(dp0
S'valfiles'
p1
(lp2
Vmidtide_1152756028.Thu.Jul.13_12_00_28.AEST.2006.narrabn.c5.jpg
p3
aVmidtide_1300496428.Sat.Mar.19_11_00_28.AEST.2011.narrabn.c5.jpg
p4
aVmidtide_1407382207.Thu.Aug.07_13_30_07.AEST.2014.narrabn.c5.jpg
p5
aVmidtide_1219201228.Wed.Aug.20_13_00_28.AEST.2008.narrabn.c5.jpg
p6
aVmidtide_1393725627.Sun.Mar.02_12_00_27.AEST.2014.narrabn.c5.jpg
p7
aVmidtide_1091593245.Wed.Aug.04_14_20_45.AEST.2004.narrabn.c5.jpg
p8
aVmidtide_1115092827.Tue.May.03_14_00_27.AEST.2005.narrabn.c5.jpg
p9
aVmidtide_1218330028.Sun.Aug.10_11_00_28.AEST.2008.narrabn.c5.jpg
p10
aVmidtide_1394866827.Sat.Mar.15_17_00_27.AEST.2014.narrabn.c5.jpg
p11
aVmidtide_1179453627.Fri.May.18_12_00_27.AEST.2007.narrabn.c5.jpg
p12
aVmidtide_1149206428.Fri.Jun.02_10_00_28.AEST.2006.narrabn.c5.jpg
p13
aVmidtide_1151625628.Fri.Jun.30_10_00_28.AEST.2006.narrabn.c5.jpg
p14
aVmidtide_1177891228.Mon.Apr.30_10_00_28.AEST.2007.narrabn.c5.jpg
p15
aVmidtide_1174694428.Sat.Mar.24_10_00_28.AEST.2007.narrabn.c5.jpg
p16
aVmidtide_1218758427.Fri.Aug.15_10_00_27.AEST.2008.narrabn.c5.jpg
p17
aVmidtide_1123380028.Sun.Aug.07_12_00_28.AEST.2005.narrabn.c5.jpg
p18
aVmidtide_1269054028.Sat.Mar.20_13_00_28.AEST.2010.narrabn.c5.jpg
p19
aVmidtide_1280552428.Sat.Jul.31_15_00_28.AEST.2010.narrabn.c5.jpg
p20
aVmidtide_1277265627.Wed.Jun.23_14_00_27.AEST.2010.narrabn.c5.jpg
p21
aVmidtide_1426656607.Wed.Mar.18_15_30_07.AEST.2015.narrabn.c5.jpg
p22
aVmidtide_1210057228.Tue.May.06_17_00_28.AEST.2008.narrabn.c5.jpg
p23
aVmidtide_1321063228.Sat.Nov.12_12_00_28.AEST.2011.narrabn.c5.jpg
p24
aVmidtide_1150344027.Thu.Jun.15_14_00_27.AEST.2006.narrabn.c5.jpg
p25
aVmidtide_1297904427.Thu.Feb.17_11_00_27.AEST.2011.narrabn.c5.jpg
p26
aVmidtide_1406334607.Sat.Jul.26_10_30_07.AEST.2014.narrabn.c5.jpg
p27
aVmidtide_1095477644.Sat.Sep.18_13_20_44.AEST.2004.narrabn.c5.jpg
p28
aVmidtide_1324688427.Sat.Dec.24_11_00_27.AEST.2011.narrabn.c5.jpg
p29
aVmidtide_1346551228.Sun.Sep.02_12_00_28.AEST.2012.narrabn.c5.jpg
p30
aVmidtide_1295665228.Sat.Jan.22_13_00_28.AEST.2011.narrabn.c5.jpg
p31
aVmidtide_1166486427.Tue.Dec.19_10_00_27.AEST.2006.narrabn.c5.jpg
p32
aVmidtide_1309590027.Sat.Jul.02_17_00_27.AEST.2011.narrabn.c5.jpg
p33
aVmidtide_1188864027.Tue.Sep.04_10_00_27.AEST.2007.narrabn.c5.jpg
p34
aVmidtide_1313640028.Thu.Aug.18_14_00_28.AEST.2011.narrabn.c5.jpg
p35
aVmidtide_1425873607.Mon.Mar.09_14_00_07.AEST.2015.narrabn.c5.jpg
p36
aVmidtide_1183431628.Tue.Jul.03_13_00_28.AEST.2007.narrabn.c5.jpg
p37
aVmidtide_1168840828.Mon.Jan.15_16_00_28.AEST.2007.narrabn.c5.jpg
p38
aVmidtide_1290477627.Tue.Nov.23_12_00_27.AEST.2010.narrabn.c5.jpg
p39
aVmidtide_1136106028.Sun.Jan.01_19_00_28.AEST.2006.narrabn.c5.jpg
p40
aVmidtide_1421805607.Wed.Jan.21_12_00_07.AEST.2015.narrabn.c5.jpg
p41
aVmidtide_1352700027.Mon.Nov.12_16_00_27.AEST.2012.narrabn.c5.jpg
p42
aVmidtide_1414380607.Mon.Oct.27_13_30_07.AEST.2014.narrabn.c5.jpg
p43
aVmidtide_1308456027.Sun.Jun.19_14_00_27.AEST.2011.narrabn.c5.jpg
p44
aVmidtide_1198904428.Sat.Dec.29_15_00_28.AEST.2007.narrabn.c5.jpg
p45
aVmidtide_1184731228.Wed.Jul.18_14_00_28.AEST.2007.narrabn.c5.jpg
p46
aVmidtide_1336784428.Sat.May.12_11_00_28.AEST.2012.narrabn.c5.jpg
p47
aVmidtide_1144717228.Tue.Apr.11_11_00_28.AEST.2006.narrabn.c5.jpg
p48
aVmidtide_1107057627.Sun.Jan.30_14_00_27.AEST.2005.narrabn.c5.jpg
p49
aVmidtide_1253412028.Sun.Sep.20_12_00_28.AEST.2009.narrabn.c5.jpg
p50
aVmidtide_1369530026.Sun.May.26_11_00_26.AEST.2013.narrabn.c5.jpg
p51
aVmidtide_1200988828.Tue.Jan.22_18_00_28.AEST.2008.narrabn.c5.jpg
p52
aVmidtide_1202349628.Thu.Feb.07_12_00_28.AEST.2008.narrabn.c5.jpg
p53
aVmidtide_1172973627.Sun.Mar.04_12_00_27.AEST.2007.narrabn.c5.jpg
p54
aVmidtide_1386572428.Mon.Dec.09_17_00_28.AEST.2013.narrabn.c5.jpg
p55
aVmidtide_1246323628.Tue.Jun.30_11_00_28.AEST.2009.narrabn.c5.jpg
p56
aVmidtide_1413781208.Mon.Oct.20_15_00_08.AEST.2014.narrabn.c5.jpg
p57
aVmidtide_1311649228.Tue.Jul.26_13_00_28.AEST.2011.narrabn.c5.jpg
p58
aVmidtide_1286499627.Fri.Oct.08_11_00_27.AEST.2010.narrabn.c5.jpg
p59
aVmidtide_1390435227.Thu.Jan.23_10_00_27.AEST.2014.narrabn.c5.jpg
p60
aVmidtide_1422343807.Tue.Jan.27_17_30_07.AEST.2015.narrabn.c5.jpg
p61
aVmidtide_1415235607.Thu.Nov.06_11_00_07.AEST.2014.narrabn.c5.jpg
p62
aVlowtide_1169442027.Mon.Jan.22_15_00_27.AEST.2007.narrabn.c5.jpg
p63
aVmidtide_1367298027.Tue.Apr.30_15_00_27.AEST.2013.narrabn.c5.jpg
p64
aVmidtide_1413509407.Fri.Oct.17_11_30_07.AEST.2014.narrabn.c5.jpg
p65
aVlowtide_1363500026.Sun.Mar.17_16_00_26.AEST.2013.narrabn.c5.jpg
p66
aVlowtide_1154149228.Sat.Jul.29_15_00_28.AEST.2006.narrabn.c5.jpg
p67
aVmidtide_1364346027.Wed.Mar.27_11_00_27.AEST.2013.narrabn.c5.jpg
p68
aVmidtide_1243393228.Wed.May.27_13_00_28.AEST.2009.narrabn.c5.jpg
p69
aVlowtide_1365300026.Sun.Apr.07_12_00_26.AEST.2013.narrabn.c5.jpg
p70
aVlowtide_1367211627.Mon.Apr.29_15_00_27.AEST.2013.narrabn.c5.jpg
p71
aVlowtide_1362621627.Thu.Mar.07_12_00_27.AEST.2013.narrabn.c5.jpg
p72
aVmidtide_1200376828.Tue.Jan.15_16_00_28.AEST.2008.narrabn.c5.jpg
p73
aVmidtide_1390190427.Mon.Jan.20_14_00_27.AEST.2014.narrabn.c5.jpg
p74
aVmidtide_1243234828.Mon.May.25_17_00_28.AEST.2009.narrabn.c5.jpg
p75
as.