(lp0
V1330534800.Wed.Feb.29_17_00_00.GMT.2012.argus02a.c0.daytimex.rect.jpg
p1
aV1089734400.Tue.Jul.13_16_00_00.GMT.2004.argus02a.c0.daytimex.rect.jpg
p2
aV1322413200.Sun.Nov.27_17_00_00.GMT.2011.argus02a.c0.daytimex.rect.jpg
p3
aV994262400.Wed.Jul.04_16_00_00.GMT.2001.argus02a.c0.daytimex.rect.jpg
p4
aV741283200.Mon.Jun.28_16_00_00.GMT.1993.argus02.c0.daytimex.rect.jpg
p5
aV1091721600.Thu.Aug.05_16_00_00.GMT.2004.argus02a.c0.daytimex.rect.jpg
p6
aV963331200.Tue.Jul.11_16_00_00.GMT.2000.argus02a.c0.daytimex.rect.jpg
p7
aV1409846400.Thu.Sep.04_16_00_00.GMT.2014.argus02a.c0.daytimex.rect.jpg
p8
aV934387200.Wed.Aug.11_16_00_00.GMT.1999.argus02a.c0.daytimex.rect.jpg
p9
aV730486800.Tue.Feb.23_17_00_00.GMT.1993.argus02.c0.daytimex.rect.jpg
p10
aV1311955200.Fri.Jul.29_16_00_00.GMT.2011.argus02a.c0.daytimex.rect.jpg
p11
aV1085500800.Tue.May.25_16_00_00.GMT.2004.argus02a.c0.daytimex.rect.jpg
p12
aV1178121600.Wed.May.02_16_00_00.GMT.2007.argus02a.c0.daytimex.rect.jpg
p13
aV1193936400.Thu.Nov.01_17_00_00.GMT.2007.argus02a.c0.daytimex.rect.jpg
p14
aV926179200.Sat.May.08_16_00_00.GMT.1999.argus02a.c0.daytimex.rect.jpg
p15
aV738691200.Sat.May.29_16_00_00.GMT.1993.argus02.c0.daytimex.rect.jpg
p16
aV1329325200.Wed.Feb.15_17_00_00.GMT.2012.argus02a.c0.daytimex.rect.jpg
p17
aV965491200.Sat.Aug.05_16_00_00.GMT.2000.argus02a.c0.daytimex.rect.jpg
p18
aV1184428800.Sat.Jul.14_16_00_00.GMT.2007.argus02a.c0.daytimex.rect.jpg
p19
aV741888000.Mon.Jul.05_16_00_00.GMT.1993.argus02.c0.daytimex.rect.jpg
p20
aV1312473600.Thu.Aug.04_16_00_00.GMT.2011.argus02a.c0.daytimex.rect.jpg
p21
aV1084291200.Tue.May.11_16_00_00.GMT.2004.argus02a.c0.daytimex.rect.jpg
p22
aV1260896400.Tue.Dec.15_17_00_00.GMT.2009.argus02a.c0.daytimex.rect.jpg
p23
aV1312387200.Wed.Aug.03_16_00_00.GMT.2011.argus02a.c0.daytimex.rect.jpg
p24
aV807724800.Sun.Aug.06_16_00_00.GMT.1995.argus02.c0.daytimex.rect.jpg
p25
aV1332003600.Sat.Mar.17_17_00_00.GMT.2012.argus02a.c0.daytimex.rect.jpg
p26
aV1019318400.Sat.Apr.20_16_00_00.GMT.2002.argus02a.c0.daytimex.rect.jpg
p27
aV1061222400.Mon.Aug.18_16_00_00.GMT.2003.argus02a.c0.daytimex.rect.jpg
p28
aV1287417600.Mon.Oct.18_16_00_00.GMT.2010.argus02a.c0.daytimex.rect.jpg
p29
aV1310313600.Sun.Jul.10_16_00_00.GMT.2011.argus02a.c0.daytimex.rect.jpg
p30
aV994003200.Sun.Jul.01_16_00_00.GMT.2001.argus02a.c0.daytimex.rect.jpg
p31
aV835286400.Thu.Jun.20_16_00_00.GMT.1996.argus02.c0.daytimex.rect.jpg
p32
aV880045200.Thu.Nov.20_17_00_00.GMT.1997.argus02a.c0.daytimex.rect.jpg
p33
aV766598400.Sun.Apr.17_16_00_00.GMT.1994.argus02.c0.daytimex.rect.jpg
p34
aV840556800.Tue.Aug.20_16_00_00.GMT.1996.argus02.c0.daytimex.rect.jpg
p35
aV1273161600.Thu.May.06_16_00_00.GMT.2010.argus02a.c0.daytimex.rect.jpg
p36
aV1197392400.Tue.Dec.11_17_00_00.GMT.2007.argus02a.c0.daytimex.rect.jpg
p37
aV898531200.Mon.Jun.22_16_00_00.GMT.1998.argus02a.c0.daytimex.rect.jpg
p38
aV966873600.Mon.Aug.21_16_00_00.GMT.2000.argus02a.c0.daytimex.rect.jpg
p39
aV845136000.Sat.Oct.12_16_00_00.GMT.1996.argus02.c0.daytimex.rect.jpg
p40
aV1333126800.Fri.Mar.30_17_00_00.GMT.2012.argus02a.c0.daytimex.rect.jpg
p41
aV1333468800.Tue.Apr.03_16_00_00.GMT.2012.argus02a.c0.daytimex.rect.jpg
p42
aV1354899600.Fri.Dec.07_17_00_00.GMT.2012.argus02a.c0.daytimex.rect.jpg
p43
aV1061913600.Tue.Aug.26_16_00_00.GMT.2003.argus02a.c0.daytimex.rect.jpg
p44
aV746035200.Sun.Aug.22_16_00_00.GMT.1993.argus02.c0.daytimex.rect.jpg
p45
aV1216396800.Fri.Jul.18_16_00_00.GMT.2008.argus02a.c0.daytimex.rect.jpg
p46
aV1214755200.Sun.Jun.29_16_00_00.GMT.2008.argus02a.c0.daytimex.rect.jpg
p47
aV1283184000.Mon.Aug.30_16_00_00.GMT.2010.argus02a.c0.daytimex.rect.jpg
p48
aV1343232000.Wed.Jul.25_16_00_00.GMT.2012.argus02a.c0.daytimex.rect.jpg
p49
aV1060876800.Thu.Aug.14_16_00_00.GMT.2003.argus02a.c0.daytimex.rect.jpg
p50
aV1345564800.Tue.Aug.21_16_00_00.GMT.2012.argus02a.c0.daytimex.rect.jpg
p51
aV1048611600.Tue.Mar.25_17_00_00.GMT.2003.argus02a.c0.daytimex.rect.jpg
p52
aV1345651200.Wed.Aug.22_16_00_00.GMT.2012.argus02a.c0.daytimex.rect.jpg
p53
aV1334764800.Wed.Apr.18_16_00_00.GMT.2012.argus02a.c0.daytimex.rect.jpg
p54
aV1356282000.Sun.Dec.23_17_00_00.GMT.2012.argus02a.c0.daytimex.rect.jpg
p55
aV1379260800.Sun.Sep.15_16_00_00.GMT.2013.argus02a.c0.daytimex.rect.jpg
p56
aV1336752000.Fri.May.11_16_00_00.GMT.2012.argus02a.c0.daytimex.rect.jpg
p57
aV1354813200.Thu.Dec.06_17_00_00.GMT.2012.argus02a.c0.daytimex.rect.jpg
p58
aV960566400.Fri.Jun.09_16_00_00.GMT.2000.argus02a.c0.daytimex.rect.jpg
p59
aV839692800.Sat.Aug.10_16_00_00.GMT.1996.argus02.c0.daytimex.rect.jpg
p60
aV763059600.Mon.Mar.07_17_00_00.GMT.1994.argus02.c0.daytimex.rect.jpg
p61
aV825526800.Wed.Feb.28_17_00_00.GMT.1996.argus02.c0.daytimex.rect.jpg
p62
aV1248624000.Sun.Jul.26_16_00_00.GMT.2009.argus02a.c0.daytimex.rect.jpg
p63
aV1331053200.Tue.Mar.06_17_00_00.GMT.2012.argus02a.c0.daytimex.rect.jpg
p64
aV1343145600.Tue.Jul.24_16_00_00.GMT.2012.argus02a.c0.daytimex.rect.jpg
p65
aV869846400.Fri.Jul.25_16_00_00.GMT.1997.argus02.c0.daytimex.rect.jpg
p66
aV957542400.Fri.May.05_16_00_00.GMT.2000.argus02a.c0.daytimex.rect.jpg
p67
aV1098892800.Wed.Oct.27_16_00_00.GMT.2004.argus02a.c0.daytimex.rect.jpg
p68
aV801676800.Sun.May.28_16_00_00.GMT.1995.argus02.c0.daytimex.rect.jpg
p69
aV1378483200.Fri.Sep.06_16_00_00.GMT.2013.argus02a.c0.daytimex.rect.jpg
p70
aV1373731200.Sat.Jul.13_16_00_00.GMT.2013.argus02a.c0.daytimex.rect.jpg
p71
aV1023379200.Thu.Jun.06_16_00_00.GMT.2002.argus02a.c0.daytimex.rect.jpg
p72
aV1008608400.Mon.Dec.17_17_00_00.GMT.2001.argus02a.c0.daytimex.rect.jpg
p73
aV1097337600.Sat.Oct.09_16_00_00.GMT.2004.argus02a.c0.daytimex.rect.jpg
p74
aV1121011200.Sun.Jul.10_16_00_00.GMT.2005.argus02a.c0.daytimex.rect.jpg
p75
aV1009558800.Fri.Dec.28_17_00_00.GMT.2001.argus02a.c0.daytimex.rect.jpg
p76
aV1247760000.Thu.Jul.16_16_00_00.GMT.2009.argus02a.c0.daytimex.rect.jpg
p77
aV1373644800.Fri.Jul.12_16_00_00.GMT.2013.argus02a.c0.daytimex.rect.jpg
p78
aV900432000.Tue.Jul.14_16_00_00.GMT.1998.argus02a.c0.daytimex.rect.jpg
p79
aV894038400.Fri.May.01_16_00_00.GMT.1998.argus02a.c0.daytimex.rect.jpg
p80
aV1339257600.Sat.Jun.09_16_00_00.GMT.2012.argus02a.c0.daytimex.rect.jpg
p81
aV1120752000.Thu.Jul.07_16_00_00.GMT.2005.argus02a.c0.daytimex.rect.jpg
p82
aV1007830800.Sat.Dec.08_17_00_00.GMT.2001.argus02a.c0.daytimex.rect.jpg
p83
aV1247155200.Thu.Jul.09_16_00_00.GMT.2009.argus02a.c0.daytimex.rect.jpg
p84
aV1120924800.Sat.Jul.09_16_00_00.GMT.2005.argus02a.c0.daytimex.rect.jpg
p85
aV1097596800.Tue.Oct.12_16_00_00.GMT.2004.argus02a.c0.daytimex.rect.jpg
p86
aV1082390400.Mon.Apr.19_16_00_00.GMT.2004.argus02a.c0.daytimex.rect.jpg
p87
aV1404403200.Thu.Jul.03_16_00_00.GMT.2014.argus02a.c0.daytimex.rect.jpg
p88
aV1380643200.Tue.Oct.01_16_00_00.GMT.2013.argus02a.c0.daytimex.rect.jpg
p89
aV958665600.Thu.May.18_16_00_00.GMT.2000.argus02a.c0.daytimex.rect.jpg
p90
aV1401552000.Sat.May.31_16_00_00.GMT.2014.argus02a.c0.daytimex.rect.jpg
p91
aV910803600.Wed.Nov.11_17_00_00.GMT.1998.argus02a.c0.daytimex.rect.jpg
p92
aV930499200.Sun.Jun.27_16_00_00.GMT.1999.argus02a.c0.daytimex.rect.jpg
p93
aV1355590800.Sat.Dec.15_17_00_00.GMT.2012.argus02a.c0.daytimex.rect.jpg
p94
aV954608400.Sat.Apr.01_17_00_00.GMT.2000.argus02a.c0.daytimex.rect.jpg
p95
aV740246400.Wed.Jun.16_16_00_00.GMT.1993.argus02.c0.daytimex.rect.jpg
p96
aV941734800.Thu.Nov.04_17_00_00.GMT.1999.argus02a.c0.daytimex.rect.jpg
p97
aV1401379200.Thu.May.29_16_00_00.GMT.2014.argus02a.c0.daytimex.rect.jpg
p98
aV1030809600.Sat.Aug.31_16_00_00.GMT.2002.argus02a.c0.daytimex.rect.jpg
p99
aV856976400.Wed.Feb.26_17_00_00.GMT.1997.argus02.c0.daytimex.rect.jpg
p100
aV896630400.Sun.May.31_16_00_00.GMT.1998.argus02a.c0.daytimex.rect.jpg
p101
aV788893200.Sat.Dec.31_17_00_00.GMT.1994.argus02.c0.daytimex.rect.jpg
p102
aV1293642000.Wed.Dec.29_17_00_00.GMT.2010.argus02a.c0.daytimex.rect.jpg
p103
aV861292800.Thu.Apr.17_16_00_00.GMT.1997.argus02.c0.daytimex.rect.jpg
p104
aV1272297600.Mon.Apr.26_16_00_00.GMT.2010.argus02a.c0.daytimex.rect.jpg
p105
aV796410000.Tue.Mar.28_17_00_00.GMT.1995.argus02.c0.daytimex.rect.jpg
p106
aV1265648400.Mon.Feb.08_17_00_00.GMT.2010.argus02a.c0.daytimex.rect.jpg
p107
aV1359306000.Sun.Jan.27_17_00_00.GMT.2013.argus02a.c0.daytimex.rect.jpg
p108
aV1233421200.Sat.Jan.31_17_00_00.GMT.2009.argus02a.c0.daytimex.rect.jpg
p109
aV1386176400.Wed.Dec.04_17_00_00.GMT.2013.argus02a.c0.daytimex.rect.jpg
p110
aV1235235600.Sat.Feb.21_17_00_00.GMT.2009.argus02a.c0.daytimex.rect.jpg
p111
aV1409068800.Tue.Aug.26_16_00_00.GMT.2014.argus02a.c0.daytimex.rect.jpg
p112
aV1226250000.Sun.Nov.09_17_00_00.GMT.2008.argus02a.c0.daytimex.rect.jpg
p113
aV1338566400.Fri.Jun.01_16_00_00.GMT.2012.argus02a.c0.daytimex.rect.jpg
p114
aV1233248400.Thu.Jan.29_17_00_00.GMT.2009.argus02a.c0.daytimex.rect.jpg
p115
aV1253030400.Tue.Sep.15_16_00_00.GMT.2009.argus02a.c0.daytimex.rect.jpg
p116
aV1243008000.Fri.May.22_16_00_00.GMT.2009.argus02a.c0.daytimex.rect.jpg
p117
aV1017853200.Wed.Apr.03_17_00_00.GMT.2002.argus02a.c0.daytimex.rect.jpg
p118
aV1396972800.Tue.Apr.08_16_00_00.GMT.2014.argus02a.c0.daytimex.rect.jpg
p119
aV1305561600.Mon.May.16_16_00_00.GMT.2011.argus02a.c0.daytimex.rect.jpg
p120
aV1256576400.Mon.Oct.26_17_00_00.GMT.2009.argus02a.c0.daytimex.rect.jpg
p121
aV812908800.Thu.Oct.05_16_00_00.GMT.1995.argus02.c0.daytimex.rect.jpg
p122
aV1396198800.Sun.Mar.30_17_00_00.GMT.2014.argus02a.c0.daytimex.rect.jpg
p123
aV1100710800.Wed.Nov.17_17_00_00.GMT.2004.argus02a.c0.daytimex.rect.jpg
p124
aV1023897600.Wed.Jun.12_16_00_00.GMT.2002.argus02a.c0.daytimex.rect.jpg
p125
aV920134800.Sat.Feb.27_17_00_00.GMT.1999.argus02a.c0.daytimex.rect.jpg
p126
aV1337875200.Thu.May.24_16_00_00.GMT.2012.argus02a.c0.daytimex.rect.jpg
p127
aV1411142400.Fri.Sep.19_16_00_00.GMT.2014.argus02a.c0.daytimex.rect.jpg
p128
aV1072630800.Sun.Dec.28_17_00_00.GMT.2003.argus02a.c0.daytimex.rect.jpg
p129
aV1256054400.Tue.Oct.20_16_00_00.GMT.2009.argus02a.c0.daytimex.rect.jpg
p130
aV1015693200.Sat.Mar.09_17_00_00.GMT.2002.argus02a.c0.daytimex.rect.jpg
p131
aV1393347600.Tue.Feb.25_17_00_00.GMT.2014.argus02a.c0.daytimex.rect.jpg
p132
aV905011200.Sat.Sep.05_16_00_00.GMT.1998.argus02a.c0.daytimex.rect.jpg
p133
aV1226163600.Sat.Nov.08_17_00_00.GMT.2008.argus02a.c0.daytimex.rect.jpg
p134
aV1298653200.Fri.Feb.25_17_00_00.GMT.2011.argus02a.c0.daytimex.rect.jpg
p135
aV854298000.Sun.Jan.26_17_00_00.GMT.1997.argus02.c0.daytimex.rect.jpg
p136
aV1315584000.Fri.Sep.09_16_00_00.GMT.2011.argus02a.c0.daytimex.rect.jpg
p137
aV1298307600.Mon.Feb.21_17_00_00.GMT.2011.argus02a.c0.daytimex.rect.jpg
p138
aV1304092800.Fri.Apr.29_16_00_00.GMT.2011.argus02a.c0.daytimex.rect.jpg
p139
aV1303920000.Wed.Apr.27_16_00_00.GMT.2011.argus02a.c0.daytimex.rect.jpg
p140
aV1040144400.Tue.Dec.17_17_00_00.GMT.2002.argus02a.c0.daytimex.rect.jpg
p141
aV1187971200.Fri.Aug.24_16_00_00.GMT.2007.argus02a.c0.daytimex.rect.jpg
p142
aV1193500800.Sat.Oct.27_16_00_00.GMT.2007.argus02a.c0.daytimex.rect.jpg
p143
aV1143133200.Thu.Mar.23_17_00_00.GMT.2006.argus02a.c0.daytimex.rect.jpg
p144
aV874166400.Sat.Sep.13_16_00_00.GMT.1997.argus02.c0.daytimex.rect.jpg
p145
aV1277136000.Mon.Jun.21_16_00_00.GMT.2010.argus02a.c0.daytimex.rect.jpg
p146
aV787856400.Mon.Dec.19_17_00_00.GMT.1994.argus02.c0.daytimex.rect.jpg
p147
aV1298394000.Tue.Feb.22_17_00_00.GMT.2011.argus02a.c0.daytimex.rect.jpg
p148
aV1178726400.Wed.May.09_16_00_00.GMT.2007.argus02a.c0.daytimex.rect.jpg
p149
aV1300986000.Thu.Mar.24_17_00_00.GMT.2011.argus02a.c0.daytimex.rect.jpg
p150
aV786906000.Thu.Dec.08_17_00_00.GMT.1994.argus02.c0.daytimex.rect.jpg
p151
aV1172250000.Fri.Feb.23_17_00_00.GMT.2007.argus02a.c0.daytimex.rect.jpg
p152
aV1074358800.Sat.Jan.17_17_00_00.GMT.2004.argus02a.c0.daytimex.rect.jpg
p153
aV755888400.Tue.Dec.14_17_00_00.GMT.1993.argus02.c0.daytimex.rect.jpg
p154
aV1196269200.Wed.Nov.28_17_00_00.GMT.2007.argus02a.c0.daytimex.rect.jpg
p155
aV1032883200.Tue.Sep.24_16_00_00.GMT.2002.argus02a.c0.daytimex.rect.jpg
p156
aV921171600.Thu.Mar.11_17_00_00.GMT.1999.argus02a.c0.daytimex.rect.jpg
p157
aV1142701200.Sat.Mar.18_17_00_00.GMT.2006.argus02a.c0.daytimex.rect.jpg
p158
aV1138122000.Tue.Jan.24_17_00_00.GMT.2006.argus02a.c0.daytimex.rect.jpg
p159
aV1133197200.Mon.Nov.28_17_00_00.GMT.2005.argus02a.c0.daytimex.rect.jpg
p160
aV915642000.Wed.Jan.06_17_00_00.GMT.1999.argus02a.c0.daytimex.rect.jpg
p161
aV1302105600.Wed.Apr.06_16_00_00.GMT.2011.argus02a.c0.daytimex.rect.jpg
p162
aV778176000.Mon.Aug.29_16_00_00.GMT.1994.argus02.c0.daytimex.rect.jpg
p163
aV799603200.Thu.May.04_16_00_00.GMT.1995.argus02.c0.daytimex.rect.jpg
p164
aV1072285200.Wed.Dec.24_17_00_00.GMT.2003.argus02a.c0.daytimex.rect.jpg
p165
aV1414166400.Fri.Oct.24_16_00_00.GMT.2014.argus02a.c0.daytimex.rect.jpg
p166
aV1255968000.Mon.Oct.19_16_00_00.GMT.2009.argus02a.c0.daytimex.rect.jpg
p167
aV1197565200.Thu.Dec.13_17_00_00.GMT.2007.argus02a.c0.daytimex.rect.jpg
p168
aV1350057600.Fri.Oct.12_16_00_00.GMT.2012.argus02a.c0.daytimex.rect.jpg
p169
aV1071507600.Mon.Dec.15_17_00_00.GMT.2003.argus02a.c0.daytimex.rect.jpg
p170
aV769190400.Tue.May.17_16_00_00.GMT.1994.argus02.c0.daytimex.rect.jpg
p171
aV1308067200.Tue.Jun.14_16_00_00.GMT.2011.argus02a.c0.daytimex.rect.jpg
p172
aV1038416400.Wed.Nov.27_17_00_00.GMT.2002.argus02a.c0.daytimex.rect.jpg
p173
aV817664400.Wed.Nov.29_17_00_00.GMT.1995.argus02.c0.daytimex.rect.jpg
p174
aV1231606800.Sat.Jan.10_17_00_00.GMT.2009.argus02a.c0.daytimex.rect.jpg
p175
aV1385053200.Thu.Nov.21_17_00_00.GMT.2013.argus02a.c0.daytimex.rect.jpg
p176
aV1261155600.Fri.Dec.18_17_00_00.GMT.2009.argus02a.c0.daytimex.rect.jpg
p177
aV1029513600.Fri.Aug.16_16_00_00.GMT.2002.argus02a.c0.daytimex.rect.jpg
p178
aV1409587200.Mon.Sep.01_16_00_00.GMT.2014.argus02a.c0.daytimex.rect.jpg
p179
aV1142874000.Mon.Mar.20_17_00_00.GMT.2006.argus02a.c0.daytimex.rect.jpg
p180
aV816886800.Mon.Nov.20_17_00_00.GMT.1995.argus02.c0.daytimex.rect.jpg
p181
aV1251820800.Tue.Sep.01_16_00_00.GMT.2009.argus02a.c0.daytimex.rect.jpg
p182
aV1131814800.Sat.Nov.12_17_00_00.GMT.2005.argus02a.c0.daytimex.rect.jpg
p183
aV1117814400.Fri.Jun.03_16_00_00.GMT.2005.argus02a.c0.daytimex.rect.jpg
p184
aV1103562000.Mon.Dec.20_17_00_00.GMT.2004.argus02a.c0.daytimex.rect.jpg
p185
aV791139600.Thu.Jan.26_17_00_00.GMT.1995.argus02.c0.daytimex.rect.jpg
p186
aV907344000.Fri.Oct.02_16_00_00.GMT.1998.argus02a.c0.daytimex.rect.jpg
p187
aV1180022400.Thu.May.24_16_00_00.GMT.2007.argus02a.c0.daytimex.rect.jpg
p188
aV815590800.Sun.Nov.05_17_00_00.GMT.1995.argus02.c0.daytimex.rect.jpg
p189
aV1413734400.Sun.Oct.19_16_00_00.GMT.2014.argus02a.c0.daytimex.rect.jpg
p190
aV847645200.Sun.Nov.10_17_00_00.GMT.1996.argus02.c0.daytimex.rect.jpg
p191
aV873475200.Fri.Sep.05_16_00_00.GMT.1997.argus02.c0.daytimex.rect.jpg
p192
aV1301331600.Mon.Mar.28_17_00_00.GMT.2011.argus02a.c0.daytimex.rect.jpg
p193
aV1196528400.Sat.Dec.01_17_00_00.GMT.2007.argus02a.c0.daytimex.rect.jpg
p194
aV1137690000.Thu.Jan.19_17_00_00.GMT.2006.argus02a.c0.daytimex.rect.jpg
p195
aV817318800.Sat.Nov.25_17_00_00.GMT.1995.argus02.c0.daytimex.rect.jpg
p196
aV817923600.Sat.Dec.02_17_00_00.GMT.1995.argus02.c0.daytimex.rect.jpg
p197
aV1193414400.Fri.Oct.26_16_00_00.GMT.2007.argus02a.c0.daytimex.rect.jpg
p198
aV923328000.Mon.Apr.05_16_00_00.GMT.1999.argus02a.c0.daytimex.rect.jpg
p199
aV1076259600.Sun.Feb.08_17_00_00.GMT.2004.argus02a.c0.daytimex.rect.jpg
p200
aV1304438400.Tue.May.03_16_00_00.GMT.2011.argus02a.c0.daytimex.rect.jpg
p201
aV1181923200.Fri.Jun.15_16_00_00.GMT.2007.argus02a.c0.daytimex.rect.jpg
p202
aV1283529600.Fri.Sep.03_16_00_00.GMT.2010.argus02a.c0.daytimex.rect.jpg
p203
aV1132160400.Wed.Nov.16_17_00_00.GMT.2005.argus02a.c0.daytimex.rect.jpg
p204
aV966182400.Sun.Aug.13_16_00_00.GMT.2000.argus02a.c0.daytimex.rect.jpg
p205
aV1297270800.Wed.Feb.09_17_00_00.GMT.2011.argus02a.c0.daytimex.rect.jpg
p206
aV1327424400.Tue.Jan.24_17_00_00.GMT.2012.argus02a.c0.daytimex.rect.jpg
p207
aV1328634000.Tue.Feb.07_17_00_00.GMT.2012.argus02a.c0.daytimex.rect.jpg
p208
aV884797200.Wed.Jan.14_17_00_00.GMT.1998.argus02a.c0.daytimex.rect.jpg
p209
aV1103734800.Wed.Dec.22_17_00_00.GMT.2004.argus02a.c0.daytimex.rect.jpg
p210
a.