(lp0
V775584000.Sat.Jul.30_16_00_00.GMT.1994.argus02.c0.daytimex.rect.jpg
p1
aV1310572800.Wed.Jul.13_16_00_00.GMT.2011.argus02a.c0.daytimex.rect.jpg
p2
aV963331200.Tue.Jul.11_16_00_00.GMT.2000.argus02a.c0.daytimex.rect.jpg
p3
aV1263661200.Sat.Jan.16_17_00_00.GMT.2010.argus02a.c0.daytimex.rect.jpg
p4
aV1260896400.Tue.Dec.15_17_00_00.GMT.2009.argus02a.c0.daytimex.rect.jpg
p5
aV741283200.Mon.Jun.28_16_00_00.GMT.1993.argus02.c0.daytimex.rect.jpg
p6
aV1330966800.Mon.Mar.05_17_00_00.GMT.2012.argus02a.c0.daytimex.rect.jpg
p7
aV1192464000.Mon.Oct.15_16_00_00.GMT.2007.argus02a.c0.daytimex.rect.jpg
p8
aV1076518800.Wed.Feb.11_17_00_00.GMT.2004.argus02a.c0.daytimex.rect.jpg
p9
aV1215100800.Thu.Jul.03_16_00_00.GMT.2008.argus02a.c0.daytimex.rect.jpg
p10
aV1321462800.Wed.Nov.16_17_00_00.GMT.2011.argus02a.c0.daytimex.rect.jpg
p11
aV1326560400.Sat.Jan.14_17_00_00.GMT.2012.argus02a.c0.daytimex.rect.jpg
p12
aV757011600.Mon.Dec.27_17_00_00.GMT.1993.argus02.c0.daytimex.rect.jpg
p13
aV1329325200.Wed.Feb.15_17_00_00.GMT.2012.argus02a.c0.daytimex.rect.jpg
p14
aV1322413200.Sun.Nov.27_17_00_00.GMT.2011.argus02a.c0.daytimex.rect.jpg
p15
aV775152000.Mon.Jul.25_16_00_00.GMT.1994.argus02.c0.daytimex.rect.jpg
p16
aV1184169600.Wed.Jul.11_16_00_00.GMT.2007.argus02a.c0.daytimex.rect.jpg
p17
aV1184342400.Fri.Jul.13_16_00_00.GMT.2007.argus02a.c0.daytimex.rect.jpg
p18
aV1084291200.Tue.May.11_16_00_00.GMT.2004.argus02a.c0.daytimex.rect.jpg
p19
aV992793600.Sun.Jun.17_16_00_00.GMT.2001.argus02a.c0.daytimex.rect.jpg
p20
aV992448000.Wed.Jun.13_16_00_00.GMT.2001.argus02a.c0.daytimex.rect.jpg
p21
aV1165856400.Mon.Dec.11_17_00_00.GMT.2006.argus02a.c0.daytimex.rect.jpg
p22
aV1189440000.Mon.Sep.10_16_00_00.GMT.2007.argus02a.c0.daytimex.rect.jpg
p23
aV1310313600.Sun.Jul.10_16_00_00.GMT.2011.argus02a.c0.daytimex.rect.jpg
p24
aV1061222400.Mon.Aug.18_16_00_00.GMT.2003.argus02a.c0.daytimex.rect.jpg
p25
aV1180281600.Sun.May.27_16_00_00.GMT.2007.argus02a.c0.daytimex.rect.jpg
p26
aV994003200.Sun.Jul.01_16_00_00.GMT.2001.argus02a.c0.daytimex.rect.jpg
p27
aV880045200.Thu.Nov.20_17_00_00.GMT.1997.argus02a.c0.daytimex.rect.jpg
p28
aV1153238400.Tue.Jul.18_16_00_00.GMT.2006.argus02a.c0.daytimex.rect.jpg
p29
aV1215705600.Thu.Jul.10_16_00_00.GMT.2008.argus02a.c0.daytimex.rect.jpg
p30
aV1330621200.Thu.Mar.01_17_00_00.GMT.2012.argus02a.c0.daytimex.rect.jpg
p31
aV1091721600.Thu.Aug.05_16_00_00.GMT.2004.argus02a.c0.daytimex.rect.jpg
p32
aV1312387200.Wed.Aug.03_16_00_00.GMT.2011.argus02a.c0.daytimex.rect.jpg
p33
aV802972800.Mon.Jun.12_16_00_00.GMT.1995.argus02.c0.daytimex.rect.jpg
p34
aV1084723200.Sun.May.16_16_00_00.GMT.2004.argus02a.c0.daytimex.rect.jpg
p35
aV1089561600.Sun.Jul.11_16_00_00.GMT.2004.argus02a.c0.daytimex.rect.jpg
p36
aV934387200.Wed.Aug.11_16_00_00.GMT.1999.argus02a.c0.daytimex.rect.jpg
p37
aV1197306000.Mon.Dec.10_17_00_00.GMT.2007.argus02a.c0.daytimex.rect.jpg
p38
aV1287417600.Mon.Oct.18_16_00_00.GMT.2010.argus02a.c0.daytimex.rect.jpg
p39
aV1197392400.Tue.Dec.11_17_00_00.GMT.2007.argus02a.c0.daytimex.rect.jpg
p40
aV1161360000.Fri.Oct.20_16_00_00.GMT.2006.argus02a.c0.daytimex.rect.jpg
p41
aV927648000.Tue.May.25_16_00_00.GMT.1999.argus02a.c0.daytimex.rect.jpg
p42
aV1190822400.Wed.Sep.26_16_00_00.GMT.2007.argus02a.c0.daytimex.rect.jpg
p43
aV730486800.Tue.Feb.23_17_00_00.GMT.1993.argus02.c0.daytimex.rect.jpg
p44
aV1312473600.Thu.Aug.04_16_00_00.GMT.2011.argus02a.c0.daytimex.rect.jpg
p45
aV1272729600.Sat.May.01_16_00_00.GMT.2010.argus02a.c0.daytimex.rect.jpg
p46
aV1084982400.Wed.May.19_16_00_00.GMT.2004.argus02a.c0.daytimex.rect.jpg
p47
aV1330534800.Wed.Feb.29_17_00_00.GMT.2012.argus02a.c0.daytimex.rect.jpg
p48
aV1091030400.Wed.Jul.28_16_00_00.GMT.2004.argus02a.c0.daytimex.rect.jpg
p49
aV1194368400.Tue.Nov.06_17_00_00.GMT.2007.argus02a.c0.daytimex.rect.jpg
p50
aV807724800.Sun.Aug.06_16_00_00.GMT.1995.argus02.c0.daytimex.rect.jpg
p51
aV1193936400.Thu.Nov.01_17_00_00.GMT.2007.argus02a.c0.daytimex.rect.jpg
p52
aV1019318400.Sat.Apr.20_16_00_00.GMT.2002.argus02a.c0.daytimex.rect.jpg
p53
aV739555200.Tue.Jun.08_16_00_00.GMT.1993.argus02.c0.daytimex.rect.jpg
p54
aV1264611600.Wed.Jan.27_17_00_00.GMT.2010.argus02a.c0.daytimex.rect.jpg
p55
aV779472000.Tue.Sep.13_16_00_00.GMT.1994.argus02.c0.daytimex.rect.jpg
p56
aV779212800.Sat.Sep.10_16_00_00.GMT.1994.argus02.c0.daytimex.rect.jpg
p57
aV1273161600.Thu.May.06_16_00_00.GMT.2010.argus02a.c0.daytimex.rect.jpg
p58
aV1139590800.Fri.Feb.10_17_00_00.GMT.2006.argus02a.c0.daytimex.rect.jpg
p59
aV1190563200.Sun.Sep.23_16_00_00.GMT.2007.argus02a.c0.daytimex.rect.jpg
p60
aV965923200.Thu.Aug.10_16_00_00.GMT.2000.argus02a.c0.daytimex.rect.jpg
p61
aV1311523200.Sun.Jul.24_16_00_00.GMT.2011.argus02a.c0.daytimex.rect.jpg
p62
aV1085500800.Tue.May.25_16_00_00.GMT.2004.argus02a.c0.daytimex.rect.jpg
p63
aV932572800.Wed.Jul.21_16_00_00.GMT.1999.argus02a.c0.daytimex.rect.jpg
p64
aV932313600.Sun.Jul.18_16_00_00.GMT.1999.argus02a.c0.daytimex.rect.jpg
p65
aV1150819200.Tue.Jun.20_16_00_00.GMT.2006.argus02a.c0.daytimex.rect.jpg
p66
aV838224000.Wed.Jul.24_16_00_00.GMT.1996.argus02.c0.daytimex.rect.jpg
p67
aV1311955200.Fri.Jul.29_16_00_00.GMT.2011.argus02a.c0.daytimex.rect.jpg
p68
aV835372800.Fri.Jun.21_16_00_00.GMT.1996.argus02.c0.daytimex.rect.jpg
p69
aV1042131600.Thu.Jan.09_17_00_00.GMT.2003.argus02a.c0.daytimex.rect.jpg
p70
aV738691200.Sat.May.29_16_00_00.GMT.1993.argus02.c0.daytimex.rect.jpg
p71
aV1185984000.Wed.Aug.01_16_00_00.GMT.2007.argus02a.c0.daytimex.rect.jpg
p72
aV1409846400.Thu.Sep.04_16_00_00.GMT.2014.argus02a.c0.daytimex.rect.jpg
p73
aV1145116800.Sat.Apr.15_16_00_00.GMT.2006.argus02a.c0.daytimex.rect.jpg
p74
aV1178121600.Wed.May.02_16_00_00.GMT.2007.argus02a.c0.daytimex.rect.jpg
p75
aV1216224000.Wed.Jul.16_16_00_00.GMT.2008.argus02a.c0.daytimex.rect.jpg
p76
aV1058803200.Mon.Jul.21_16_00_00.GMT.2003.argus02a.c0.daytimex.rect.jpg
p77
aV868204800.Sun.Jul.06_16_00_00.GMT.1997.argus02.c0.daytimex.rect.jpg
p78
aV1356454800.Tue.Dec.25_17_00_00.GMT.2012.argus02a.c0.daytimex.rect.jpg
p79
aV871920000.Mon.Aug.18_16_00_00.GMT.1997.argus02.c0.daytimex.rect.jpg
p80
aV824749200.Mon.Feb.19_17_00_00.GMT.1996.argus02.c0.daytimex.rect.jpg
p81
aV838396800.Fri.Jul.26_16_00_00.GMT.1996.argus02.c0.daytimex.rect.jpg
p82
aV965059200.Mon.Jul.31_16_00_00.GMT.2000.argus02a.c0.daytimex.rect.jpg
p83
aV1065542400.Tue.Oct.07_16_00_00.GMT.2003.argus02a.c0.daytimex.rect.jpg
p84
aV843062400.Wed.Sep.18_16_00_00.GMT.1996.argus02.c0.daytimex.rect.jpg
p85
aV832608000.Mon.May.20_16_00_00.GMT.1996.argus02.c0.daytimex.rect.jpg
p86
aV1122566400.Thu.Jul.28_16_00_00.GMT.2005.argus02a.c0.daytimex.rect.jpg
p87
aV1340726400.Tue.Jun.26_16_00_00.GMT.2012.argus02a.c0.daytimex.rect.jpg
p88
aV1216396800.Fri.Jul.18_16_00_00.GMT.2008.argus02a.c0.daytimex.rect.jpg
p89
aV864489600.Sat.May.24_16_00_00.GMT.1997.argus02.c0.daytimex.rect.jpg
p90
aV1336752000.Fri.May.11_16_00_00.GMT.2012.argus02a.c0.daytimex.rect.jpg
p91
aV960566400.Fri.Jun.09_16_00_00.GMT.2000.argus02a.c0.daytimex.rect.jpg
p92
aV1356282000.Sun.Dec.23_17_00_00.GMT.2012.argus02a.c0.daytimex.rect.jpg
p93
aV1125590400.Thu.Sep.01_16_00_00.GMT.2005.argus02a.c0.daytimex.rect.jpg
p94
aV1352221200.Tue.Nov.06_17_00_00.GMT.2012.argus02a.c0.daytimex.rect.jpg
p95
aV963417600.Wed.Jul.12_16_00_00.GMT.2000.argus02a.c0.daytimex.rect.jpg
p96
aV872611200.Tue.Aug.26_16_00_00.GMT.1997.argus02.c0.daytimex.rect.jpg
p97
aV1345564800.Tue.Aug.21_16_00_00.GMT.2012.argus02a.c0.daytimex.rect.jpg
p98
aV984934800.Sun.Mar.18_17_00_00.GMT.2001.argus02a.c0.daytimex.rect.jpg
p99
aV1210176000.Wed.May.07_16_00_00.GMT.2008.argus02a.c0.daytimex.rect.jpg
p100
aV1323882000.Wed.Dec.14_17_00_00.GMT.2011.argus02a.c0.daytimex.rect.jpg
p101
aV898531200.Mon.Jun.22_16_00_00.GMT.1998.argus02a.c0.daytimex.rect.jpg
p102
aV832435200.Sat.May.18_16_00_00.GMT.1996.argus02.c0.daytimex.rect.jpg
p103
aV749750400.Mon.Oct.04_16_00_00.GMT.1993.argus02.c0.daytimex.rect.jpg
p104
aV1006275600.Tue.Nov.20_17_00_00.GMT.2001.argus02a.c0.daytimex.rect.jpg
p105
aV991584000.Sun.Jun.03_16_00_00.GMT.2001.argus02a.c0.daytimex.rect.jpg
p106
aV985539600.Sun.Mar.25_17_00_00.GMT.2001.argus02a.c0.daytimex.rect.jpg
p107
aV837446400.Mon.Jul.15_16_00_00.GMT.1996.argus02.c0.daytimex.rect.jpg
p108
aV995385600.Tue.Jul.17_16_00_00.GMT.2001.argus02a.c0.daytimex.rect.jpg
p109
aV1343664000.Mon.Jul.30_16_00_00.GMT.2012.argus02a.c0.daytimex.rect.jpg
p110
aV1362502800.Tue.Mar.05_17_00_00.GMT.2013.argus02a.c0.daytimex.rect.jpg
p111
aV1249315200.Mon.Aug.03_16_00_00.GMT.2009.argus02a.c0.daytimex.rect.jpg
p112
aV843926400.Sat.Sep.28_16_00_00.GMT.1996.argus02.c0.daytimex.rect.jpg
p113
aV1379260800.Sun.Sep.15_16_00_00.GMT.2013.argus02a.c0.daytimex.rect.jpg
p114
aV980096400.Sun.Jan.21_17_00_00.GMT.2001.argus02a.c0.daytimex.rect.jpg
p115
aV827427600.Thu.Mar.21_17_00_00.GMT.1996.argus02.c0.daytimex.rect.jpg
p116
aV745257600.Fri.Aug.13_16_00_00.GMT.1993.argus02.c0.daytimex.rect.jpg
p117
aV964972800.Sun.Jul.30_16_00_00.GMT.2000.argus02a.c0.daytimex.rect.jpg
p118
aV1407945600.Wed.Aug.13_16_00_00.GMT.2014.argus02a.c0.daytimex.rect.jpg
p119
aV1248624000.Sun.Jul.26_16_00_00.GMT.2009.argus02a.c0.daytimex.rect.jpg
p120
aV832348800.Fri.May.17_16_00_00.GMT.1996.argus02.c0.daytimex.rect.jpg
p121
aV1250784000.Thu.Aug.20_16_00_00.GMT.2009.argus02a.c0.daytimex.rect.jpg
p122
aV839952000.Tue.Aug.13_16_00_00.GMT.1996.argus02.c0.daytimex.rect.jpg
p123
aV1343750400.Tue.Jul.31_16_00_00.GMT.2012.argus02a.c0.daytimex.rect.jpg
p124
aV1003507200.Fri.Oct.19_16_00_00.GMT.2001.argus02a.c0.daytimex.rect.jpg
p125
aV1214755200.Sun.Jun.29_16_00_00.GMT.2008.argus02a.c0.daytimex.rect.jpg
p126
aV1002902400.Fri.Oct.12_16_00_00.GMT.2001.argus02a.c0.daytimex.rect.jpg
p127
aV1094227200.Fri.Sep.03_16_00_00.GMT.2004.argus02a.c0.daytimex.rect.jpg
p128
aV842198400.Sun.Sep.08_16_00_00.GMT.1996.argus02.c0.daytimex.rect.jpg
p129
aV746035200.Sun.Aug.22_16_00_00.GMT.1993.argus02.c0.daytimex.rect.jpg
p130
aV840297600.Sat.Aug.17_16_00_00.GMT.1996.argus02.c0.daytimex.rect.jpg
p131
aV1055606400.Sat.Jun.14_16_00_00.GMT.2003.argus02a.c0.daytimex.rect.jpg
p132
aV1005325200.Fri.Nov.09_17_00_00.GMT.2001.argus02a.c0.daytimex.rect.jpg
p133
aV1356714000.Fri.Dec.28_17_00_00.GMT.2012.argus02a.c0.daytimex.rect.jpg
p134
aV870796800.Tue.Aug.05_16_00_00.GMT.1997.argus02.c0.daytimex.rect.jpg
p135
aV1333468800.Tue.Apr.03_16_00_00.GMT.2012.argus02a.c0.daytimex.rect.jpg
p136
aV965577600.Sun.Aug.06_16_00_00.GMT.2000.argus02a.c0.daytimex.rect.jpg
p137
aV1283184000.Mon.Aug.30_16_00_00.GMT.2010.argus02a.c0.daytimex.rect.jpg
p138
aV1343145600.Tue.Jul.24_16_00_00.GMT.2012.argus02a.c0.daytimex.rect.jpg
p139
aV842976000.Tue.Sep.17_16_00_00.GMT.1996.argus02.c0.daytimex.rect.jpg
p140
aV871747200.Sat.Aug.16_16_00_00.GMT.1997.argus02.c0.daytimex.rect.jpg
p141
aV1333126800.Fri.Mar.30_17_00_00.GMT.2012.argus02a.c0.daytimex.rect.jpg
p142
aV1354899600.Fri.Dec.07_17_00_00.GMT.2012.argus02a.c0.daytimex.rect.jpg
p143
aV784746000.Sun.Nov.13_17_00_00.GMT.1994.argus02.c0.daytimex.rect.jpg
p144
aV1354813200.Thu.Dec.06_17_00_00.GMT.2012.argus02a.c0.daytimex.rect.jpg
p145
aV1164819600.Wed.Nov.29_17_00_00.GMT.2006.argus02a.c0.daytimex.rect.jpg
p146
aV1156867200.Tue.Aug.29_16_00_00.GMT.2006.argus02a.c0.daytimex.rect.jpg
p147
aV966873600.Mon.Aug.21_16_00_00.GMT.2000.argus02a.c0.daytimex.rect.jpg
p148
aV1049216400.Tue.Apr.01_17_00_00.GMT.2003.argus02a.c0.daytimex.rect.jpg
p149
aV1334160000.Wed.Apr.11_16_00_00.GMT.2012.argus02a.c0.daytimex.rect.jpg
p150
aV1381593600.Sat.Oct.12_16_00_00.GMT.2013.argus02a.c0.daytimex.rect.jpg
p151
aV1401552000.Sat.May.31_16_00_00.GMT.2014.argus02a.c0.daytimex.rect.jpg
p152
aV1098892800.Wed.Oct.27_16_00_00.GMT.2004.argus02a.c0.daytimex.rect.jpg
p153
aV1373644800.Fri.Jul.12_16_00_00.GMT.2013.argus02a.c0.daytimex.rect.jpg
p154
aV1337616000.Mon.May.21_16_00_00.GMT.2012.argus02a.c0.daytimex.rect.jpg
p155
aV1030809600.Sat.Aug.31_16_00_00.GMT.2002.argus02a.c0.daytimex.rect.jpg
p156
aV1096646400.Fri.Oct.01_16_00_00.GMT.2004.argus02a.c0.daytimex.rect.jpg
p157
aV888166800.Sun.Feb.22_17_00_00.GMT.1998.argus02a.c0.daytimex.rect.jpg
p158
aV1069693200.Mon.Nov.24_17_00_00.GMT.2003.argus02a.c0.daytimex.rect.jpg
p159
aV1031414400.Sat.Sep.07_16_00_00.GMT.2002.argus02a.c0.daytimex.rect.jpg
p160
aV1378483200.Fri.Sep.06_16_00_00.GMT.2013.argus02a.c0.daytimex.rect.jpg
p161
aV1030809600.Sat.Aug.31_16_00_00.GMT.2002.argus02a.c0.daytimex.rect.jpg
p162
aV873216000.Tue.Sep.02_16_00_00.GMT.1997.argus02.c0.daytimex.rect.jpg
p163
aV1247068800.Wed.Jul.08_16_00_00.GMT.2009.argus02a.c0.daytimex.rect.jpg
p164
aV801676800.Sun.May.28_16_00_00.GMT.1995.argus02.c0.daytimex.rect.jpg
p165
aV1097596800.Tue.Oct.12_16_00_00.GMT.2004.argus02a.c0.daytimex.rect.jpg
p166
aV1358787600.Mon.Jan.21_17_00_00.GMT.2013.argus02a.c0.daytimex.rect.jpg
p167
aV1211040000.Sat.May.17_16_00_00.GMT.2008.argus02a.c0.daytimex.rect.jpg
p168
aV1097337600.Sat.Oct.09_16_00_00.GMT.2004.argus02a.c0.daytimex.rect.jpg
p169
aV1081699200.Sun.Apr.11_16_00_00.GMT.2004.argus02a.c0.daytimex.rect.jpg
p170
aV1380643200.Tue.Oct.01_16_00_00.GMT.2013.argus02a.c0.daytimex.rect.jpg
p171
aV1121011200.Sun.Jul.10_16_00_00.GMT.2005.argus02a.c0.daytimex.rect.jpg
p172
aV971798400.Tue.Oct.17_16_00_00.GMT.2000.argus02a.c0.daytimex.rect.jpg
p173
aV1404403200.Thu.Jul.03_16_00_00.GMT.2014.argus02a.c0.daytimex.rect.jpg
p174
aV896630400.Sun.May.31_16_00_00.GMT.1998.argus02a.c0.daytimex.rect.jpg
p175
aV1009818000.Mon.Dec.31_17_00_00.GMT.2001.argus02a.c0.daytimex.rect.jpg
p176
aV1023379200.Thu.Jun.06_16_00_00.GMT.2002.argus02a.c0.daytimex.rect.jpg
p177
aV1358960400.Wed.Jan.23_17_00_00.GMT.2013.argus02a.c0.daytimex.rect.jpg
p178
aV1119801600.Sun.Jun.26_16_00_00.GMT.2005.argus02a.c0.daytimex.rect.jpg
p179
aV1115308800.Thu.May.05_16_00_00.GMT.2005.argus02a.c0.daytimex.rect.jpg
p180
aV867340800.Thu.Jun.26_16_00_00.GMT.1997.argus02.c0.daytimex.rect.jpg
p181
aV856976400.Wed.Feb.26_17_00_00.GMT.1997.argus02.c0.daytimex.rect.jpg
p182
aV738000000.Fri.May.21_16_00_00.GMT.1993.argus02.c0.daytimex.rect.jpg
p183
aV902246400.Tue.Aug.04_16_00_00.GMT.1998.argus02a.c0.daytimex.rect.jpg
p184
aV1122048000.Fri.Jul.22_16_00_00.GMT.2005.argus02a.c0.daytimex.rect.jpg
p185
aV1019836800.Fri.Apr.26_16_00_00.GMT.2002.argus02a.c0.daytimex.rect.jpg
p186
aV1335024000.Sat.Apr.21_16_00_00.GMT.2012.argus02a.c0.daytimex.rect.jpg
p187
aV1401379200.Thu.May.29_16_00_00.GMT.2014.argus02a.c0.daytimex.rect.jpg
p188
aV1339257600.Sat.Jun.09_16_00_00.GMT.2012.argus02a.c0.daytimex.rect.jpg
p189
aV1373731200.Sat.Jul.13_16_00_00.GMT.2013.argus02a.c0.daytimex.rect.jpg
p190
aV896889600.Wed.Jun.03_16_00_00.GMT.1998.argus02a.c0.daytimex.rect.jpg
p191
aV740246400.Wed.Jun.16_16_00_00.GMT.1993.argus02.c0.daytimex.rect.jpg
p192
aV1377014400.Tue.Aug.20_16_00_00.GMT.2013.argus02a.c0.daytimex.rect.jpg
p193
aV1358787600.Mon.Jan.21_17_00_00.GMT.2013.argus02a.c0.daytimex.rect.jpg
p194
aV1023465600.Fri.Jun.07_16_00_00.GMT.2002.argus02a.c0.daytimex.rect.jpg
p195
aV740332800.Thu.Jun.17_16_00_00.GMT.1993.argus02.c0.daytimex.rect.jpg
p196
aV805219200.Sat.Jul.08_16_00_00.GMT.1995.argus02.c0.daytimex.rect.jpg
p197
aV900432000.Tue.Jul.14_16_00_00.GMT.1998.argus02a.c0.daytimex.rect.jpg
p198
aV896457600.Fri.May.29_16_00_00.GMT.1998.argus02a.c0.daytimex.rect.jpg
p199
aV1379088000.Fri.Sep.13_16_00_00.GMT.2013.argus02a.c0.daytimex.rect.jpg
p200
aV958147200.Fri.May.12_16_00_00.GMT.2000.argus02a.c0.daytimex.rect.jpg
p201
aV736531200.Tue.May.04_16_00_00.GMT.1993.argus02.c0.daytimex.rect.jpg
p202
aV958665600.Thu.May.18_16_00_00.GMT.2000.argus02a.c0.daytimex.rect.jpg
p203
aV1014742800.Tue.Feb.26_17_00_00.GMT.2002.argus02a.c0.daytimex.rect.jpg
p204
aV954608400.Sat.Apr.01_17_00_00.GMT.2000.argus02a.c0.daytimex.rect.jpg
p205
aV1095523200.Sat.Sep.18_16_00_00.GMT.2004.argus02a.c0.daytimex.rect.jpg
p206
aV1113840000.Mon.Apr.18_16_00_00.GMT.2005.argus02a.c0.daytimex.rect.jpg
p207
aV1401897600.Wed.Jun.04_16_00_00.GMT.2014.argus02a.c0.daytimex.rect.jpg
p208
aV910803600.Wed.Nov.11_17_00_00.GMT.1998.argus02a.c0.daytimex.rect.jpg
p209
aV1383411600.Sat.Nov.02_17_00_00.GMT.2013.argus02a.c0.daytimex.rect.jpg
p210
aV860515200.Tue.Apr.08_16_00_00.GMT.1997.argus02.c0.daytimex.rect.jpg
p211
aV1031328000.Fri.Sep.06_16_00_00.GMT.2002.argus02a.c0.daytimex.rect.jpg
p212
aV1114012800.Wed.Apr.20_16_00_00.GMT.2005.argus02a.c0.daytimex.rect.jpg
p213
aV1382198400.Sat.Oct.19_16_00_00.GMT.2013.argus02a.c0.daytimex.rect.jpg
p214
aV1253721600.Wed.Sep.23_16_00_00.GMT.2009.argus02a.c0.daytimex.rect.jpg
p215
aV1247760000.Thu.Jul.16_16_00_00.GMT.2009.argus02a.c0.daytimex.rect.jpg
p216
aV1255276800.Sun.Oct.11_16_00_00.GMT.2009.argus02a.c0.daytimex.rect.jpg
p217
aV1080752400.Wed.Mar.31_17_00_00.GMT.2004.argus02a.c0.daytimex.rect.jpg
p218
aV1336060800.Thu.May.03_16_00_00.GMT.2012.argus02a.c0.daytimex.rect.jpg
p219
aV1008349200.Fri.Dec.14_17_00_00.GMT.2001.argus02a.c0.daytimex.rect.jpg
p220
aV1383843600.Thu.Nov.07_17_00_00.GMT.2013.argus02a.c0.daytimex.rect.jpg
p221
aV739296000.Sat.Jun.05_16_00_00.GMT.1993.argus02.c0.daytimex.rect.jpg
p222
aV1401120000.Mon.May.26_16_00_00.GMT.2014.argus02a.c0.daytimex.rect.jpg
p223
aV1400515200.Mon.May.19_16_00_00.GMT.2014.argus02a.c0.daytimex.rect.jpg
p224
aV1355590800.Sat.Dec.15_17_00_00.GMT.2012.argus02a.c0.daytimex.rect.jpg
p225
aV1226250000.Sun.Nov.09_17_00_00.GMT.2008.argus02a.c0.daytimex.rect.jpg
p226
aV796410000.Tue.Mar.28_17_00_00.GMT.1995.argus02.c0.daytimex.rect.jpg
p227
aV1226422800.Tue.Nov.11_17_00_00.GMT.2008.argus02a.c0.daytimex.rect.jpg
p228
aV1338480000.Thu.May.31_16_00_00.GMT.2012.argus02a.c0.daytimex.rect.jpg
p229
aV1337875200.Thu.May.24_16_00_00.GMT.2012.argus02a.c0.daytimex.rect.jpg
p230
aV1388509200.Tue.Dec.31_17_00_00.GMT.2013.argus02a.c0.daytimex.rect.jpg
p231
aV1101229200.Tue.Nov.23_17_00_00.GMT.2004.argus02a.c0.daytimex.rect.jpg
p232
aV1233248400.Thu.Jan.29_17_00_00.GMT.2009.argus02a.c0.daytimex.rect.jpg
p233
aV813340800.Tue.Oct.10_16_00_00.GMT.1995.argus02.c0.daytimex.rect.jpg
p234
aV1265648400.Mon.Feb.08_17_00_00.GMT.2010.argus02a.c0.daytimex.rect.jpg
p235
aV1284393600.Mon.Sep.13_16_00_00.GMT.2010.argus02a.c0.daytimex.rect.jpg
p236
aV1233421200.Sat.Jan.31_17_00_00.GMT.2009.argus02a.c0.daytimex.rect.jpg
p237
aV1127318400.Wed.Sep.21_16_00_00.GMT.2005.argus02a.c0.daytimex.rect.jpg
p238
aV1396972800.Tue.Apr.08_16_00_00.GMT.2014.argus02a.c0.daytimex.rect.jpg
p239
aV1272297600.Mon.Apr.26_16_00_00.GMT.2010.argus02a.c0.daytimex.rect.jpg
p240
aV1305561600.Mon.May.16_16_00_00.GMT.2011.argus02a.c0.daytimex.rect.jpg
p241
aV1294160400.Tue.Jan.04_17_00_00.GMT.2011.argus02a.c0.daytimex.rect.jpg
p242
aV1226163600.Sat.Nov.08_17_00_00.GMT.2008.argus02a.c0.daytimex.rect.jpg
p243
aV1023897600.Wed.Jun.12_16_00_00.GMT.2002.argus02a.c0.daytimex.rect.jpg
p244
aV1395594000.Sun.Mar.23_17_00_00.GMT.2014.argus02a.c0.daytimex.rect.jpg
p245
aV1338566400.Fri.Jun.01_16_00_00.GMT.2012.argus02a.c0.daytimex.rect.jpg
p246
aV1293642000.Wed.Dec.29_17_00_00.GMT.2010.argus02a.c0.daytimex.rect.jpg
p247
aV1397577600.Tue.Apr.15_16_00_00.GMT.2014.argus02a.c0.daytimex.rect.jpg
p248
aV1139677200.Sat.Feb.11_17_00_00.GMT.2006.argus02a.c0.daytimex.rect.jpg
p249
aV1391274000.Sat.Feb.01_17_00_00.GMT.2014.argus02a.c0.daytimex.rect.jpg
p250
aV1235235600.Sat.Feb.21_17_00_00.GMT.2009.argus02a.c0.daytimex.rect.jpg
p251
aV1256576400.Mon.Oct.26_17_00_00.GMT.2009.argus02a.c0.daytimex.rect.jpg
p252
aV1175360400.Sat.Mar.31_17_00_00.GMT.2007.argus02a.c0.daytimex.rect.jpg
p253
aV799084800.Fri.Apr.28_16_00_00.GMT.1995.argus02.c0.daytimex.rect.jpg
p254
aV1307116800.Fri.Jun.03_16_00_00.GMT.2011.argus02a.c0.daytimex.rect.jpg
p255
aV1015693200.Sat.Mar.09_17_00_00.GMT.2002.argus02a.c0.daytimex.rect.jpg
p256
aV1291741200.Tue.Dec.07_17_00_00.GMT.2010.argus02a.c0.daytimex.rect.jpg
p257
aV1411142400.Fri.Sep.19_16_00_00.GMT.2014.argus02a.c0.daytimex.rect.jpg
p258
aV1014310800.Thu.Feb.21_17_00_00.GMT.2002.argus02a.c0.daytimex.rect.jpg
p259
aV1396198800.Sun.Mar.30_17_00_00.GMT.2014.argus02a.c0.daytimex.rect.jpg
p260
aV1385139600.Fri.Nov.22_17_00_00.GMT.2013.argus02a.c0.daytimex.rect.jpg
p261
aV1068570000.Tue.Nov.11_17_00_00.GMT.2003.argus02a.c0.daytimex.rect.jpg
p262
aV1233421200.Sat.Jan.31_17_00_00.GMT.2009.argus02a.c0.daytimex.rect.jpg
p263
aV1135702800.Tue.Dec.27_17_00_00.GMT.2005.argus02a.c0.daytimex.rect.jpg
p264
aV1256054400.Tue.Oct.20_16_00_00.GMT.2009.argus02a.c0.daytimex.rect.jpg
p265
aV1072026000.Sun.Dec.21_17_00_00.GMT.2003.argus02a.c0.daytimex.rect.jpg
p266
aV1103043600.Tue.Dec.14_17_00_00.GMT.2004.argus02a.c0.daytimex.rect.jpg
p267
aV1252771200.Sat.Sep.12_16_00_00.GMT.2009.argus02a.c0.daytimex.rect.jpg
p268
aV1285603200.Mon.Sep.27_16_00_00.GMT.2010.argus02a.c0.daytimex.rect.jpg
p269
aV809798400.Wed.Aug.30_16_00_00.GMT.1995.argus02.c0.daytimex.rect.jpg
p270
aV1243526400.Thu.May.28_16_00_00.GMT.2009.argus02a.c0.daytimex.rect.jpg
p271
aV1234285200.Tue.Feb.10_17_00_00.GMT.2009.argus02a.c0.daytimex.rect.jpg
p272
aV1226336400.Mon.Nov.10_17_00_00.GMT.2008.argus02a.c0.daytimex.rect.jpg
p273
aV1393347600.Tue.Feb.25_17_00_00.GMT.2014.argus02a.c0.daytimex.rect.jpg
p274
aV920134800.Sat.Feb.27_17_00_00.GMT.1999.argus02a.c0.daytimex.rect.jpg
p275
aV788893200.Sat.Dec.31_17_00_00.GMT.1994.argus02.c0.daytimex.rect.jpg
p276
aV924451200.Sun.Apr.18_16_00_00.GMT.1999.argus02a.c0.daytimex.rect.jpg
p277
aV905097600.Sun.Sep.06_16_00_00.GMT.1998.argus02a.c0.daytimex.rect.jpg
p278
aV1409068800.Tue.Aug.26_16_00_00.GMT.2014.argus02a.c0.daytimex.rect.jpg
p279
aV1385917200.Sun.Dec.01_17_00_00.GMT.2013.argus02a.c0.daytimex.rect.jpg
p280
aV1235235600.Sat.Feb.21_17_00_00.GMT.2009.argus02a.c0.daytimex.rect.jpg
p281
aV1255449600.Tue.Oct.13_16_00_00.GMT.2009.argus02a.c0.daytimex.rect.jpg
p282
aV809539200.Sun.Aug.27_16_00_00.GMT.1995.argus02.c0.daytimex.rect.jpg
p283
aV1337616000.Mon.May.21_16_00_00.GMT.2012.argus02a.c0.daytimex.rect.jpg
p284
aV1177344000.Mon.Apr.23_16_00_00.GMT.2007.argus02a.c0.daytimex.rect.jpg
p285
aV809366400.Fri.Aug.25_16_00_00.GMT.1995.argus02.c0.daytimex.rect.jpg
p286
aV1359306000.Sun.Jan.27_17_00_00.GMT.2013.argus02a.c0.daytimex.rect.jpg
p287
aV1072630800.Sun.Dec.28_17_00_00.GMT.2003.argus02a.c0.daytimex.rect.jpg
p288
aV1233248400.Thu.Jan.29_17_00_00.GMT.2009.argus02a.c0.daytimex.rect.jpg
p289
aV1416157200.Sun.Nov.16_17_00_00.GMT.2014.argus02a.c0.daytimex.rect.jpg
p290
aV1386176400.Wed.Dec.04_17_00_00.GMT.2013.argus02a.c0.daytimex.rect.jpg
p291
aV1032624000.Sat.Sep.21_16_00_00.GMT.2002.argus02a.c0.daytimex.rect.jpg
p292
aV1036170000.Fri.Nov.01_17_00_00.GMT.2002.argus02a.c0.daytimex.rect.jpg
p293
aV1385226000.Sat.Nov.23_17_00_00.GMT.2013.argus02a.c0.daytimex.rect.jpg
p294
aV1100710800.Wed.Nov.17_17_00_00.GMT.2004.argus02a.c0.daytimex.rect.jpg
p295
aV1293814800.Fri.Dec.31_17_00_00.GMT.2010.argus02a.c0.daytimex.rect.jpg
p296
aV1024070400.Fri.Jun.14_16_00_00.GMT.2002.argus02a.c0.daytimex.rect.jpg
p297
aV796064400.Fri.Mar.24_17_00_00.GMT.1995.argus02.c0.daytimex.rect.jpg
p298
aV1118073600.Mon.Jun.06_16_00_00.GMT.2005.argus02a.c0.daytimex.rect.jpg
p299
aV1178294400.Fri.May.04_16_00_00.GMT.2007.argus02a.c0.daytimex.rect.jpg
p300
aV780249600.Thu.Sep.22_16_00_00.GMT.1994.argus02.c0.daytimex.rect.jpg
p301
aV755888400.Tue.Dec.14_17_00_00.GMT.1993.argus02.c0.daytimex.rect.jpg
p302
aV1308067200.Tue.Jun.14_16_00_00.GMT.2011.argus02a.c0.daytimex.rect.jpg
p303
aV1181836800.Thu.Jun.14_16_00_00.GMT.2007.argus02a.c0.daytimex.rect.jpg
p304
aV1387645200.Sat.Dec.21_17_00_00.GMT.2013.argus02a.c0.daytimex.rect.jpg
p305
aV1038416400.Wed.Nov.27_17_00_00.GMT.2002.argus02a.c0.daytimex.rect.jpg
p306
aV1029513600.Fri.Aug.16_16_00_00.GMT.2002.argus02a.c0.daytimex.rect.jpg
p307
aV873475200.Fri.Sep.05_16_00_00.GMT.1997.argus02.c0.daytimex.rect.jpg
p308
aV1350057600.Fri.Oct.12_16_00_00.GMT.2012.argus02a.c0.daytimex.rect.jpg
p309
aV1298394000.Tue.Feb.22_17_00_00.GMT.2011.argus02a.c0.daytimex.rect.jpg
p310
aV755974800.Wed.Dec.15_17_00_00.GMT.1993.argus02.c0.daytimex.rect.jpg
p311
aV1169312400.Sat.Jan.20_17_00_00.GMT.2007.argus02a.c0.daytimex.rect.jpg
p312
aV769190400.Tue.May.17_16_00_00.GMT.1994.argus02.c0.daytimex.rect.jpg
p313
aV1285689600.Tue.Sep.28_16_00_00.GMT.2010.argus02a.c0.daytimex.rect.jpg
p314
aV1293210000.Fri.Dec.24_17_00_00.GMT.2010.argus02a.c0.daytimex.rect.jpg
p315
aV793213200.Sun.Feb.19_17_00_00.GMT.1995.argus02.c0.daytimex.rect.jpg
p316
aV819738000.Sat.Dec.23_17_00_00.GMT.1995.argus02.c0.daytimex.rect.jpg
p317
aV1304611200.Thu.May.05_16_00_00.GMT.2011.argus02a.c0.daytimex.rect.jpg
p318
aV1071248400.Fri.Dec.12_17_00_00.GMT.2003.argus02a.c0.daytimex.rect.jpg
p319
aV1232816400.Sat.Jan.24_17_00_00.GMT.2009.argus02a.c0.daytimex.rect.jpg
p320
aV1409587200.Mon.Sep.01_16_00_00.GMT.2014.argus02a.c0.daytimex.rect.jpg
p321
aV923328000.Mon.Apr.05_16_00_00.GMT.1999.argus02a.c0.daytimex.rect.jpg
p322
aV1137690000.Thu.Jan.19_17_00_00.GMT.2006.argus02a.c0.daytimex.rect.jpg
p323
aV1132160400.Wed.Nov.16_17_00_00.GMT.2005.argus02a.c0.daytimex.rect.jpg
p324
aV1251820800.Tue.Sep.01_16_00_00.GMT.2009.argus02a.c0.daytimex.rect.jpg
p325
aV1166547600.Tue.Dec.19_17_00_00.GMT.2006.argus02a.c0.daytimex.rect.jpg
p326
aV817923600.Sat.Dec.02_17_00_00.GMT.1995.argus02.c0.daytimex.rect.jpg
p327
aV966182400.Sun.Aug.13_16_00_00.GMT.2000.argus02a.c0.daytimex.rect.jpg
p328
aV1072285200.Wed.Dec.24_17_00_00.GMT.2003.argus02a.c0.daytimex.rect.jpg
p329
aV1169485200.Mon.Jan.22_17_00_00.GMT.2007.argus02a.c0.daytimex.rect.jpg
p330
aV847386000.Thu.Nov.07_17_00_00.GMT.1996.argus02.c0.daytimex.rect.jpg
p331
aV1413820800.Mon.Oct.20_16_00_00.GMT.2014.argus02a.c0.daytimex.rect.jpg
p332
aV817059600.Wed.Nov.22_17_00_00.GMT.1995.argus02.c0.daytimex.rect.jpg
p333
aV791139600.Thu.Jan.26_17_00_00.GMT.1995.argus02.c0.daytimex.rect.jpg
p334
aV769708800.Mon.May.23_16_00_00.GMT.1994.argus02.c0.daytimex.rect.jpg
p335
aV1197565200.Thu.Dec.13_17_00_00.GMT.2007.argus02a.c0.daytimex.rect.jpg
p336
aV768844800.Fri.May.13_16_00_00.GMT.1994.argus02.c0.daytimex.rect.jpg
p337
aV1193500800.Sat.Oct.27_16_00_00.GMT.2007.argus02a.c0.daytimex.rect.jpg
p338
aV1141405200.Fri.Mar.03_17_00_00.GMT.2006.argus02a.c0.daytimex.rect.jpg
p339
aV1075914000.Wed.Feb.04_17_00_00.GMT.2004.argus02a.c0.daytimex.rect.jpg
p340
aV1103821200.Thu.Dec.23_17_00_00.GMT.2004.argus02a.c0.daytimex.rect.jpg
p341
aV1298307600.Mon.Feb.21_17_00_00.GMT.2011.argus02a.c0.daytimex.rect.jpg
p342
aV807984000.Wed.Aug.09_16_00_00.GMT.1995.argus02.c0.daytimex.rect.jpg
p343
aV915642000.Wed.Jan.06_17_00_00.GMT.1999.argus02a.c0.daytimex.rect.jpg
p344
aV778176000.Mon.Aug.29_16_00_00.GMT.1994.argus02.c0.daytimex.rect.jpg
p345
aV1304438400.Tue.May.03_16_00_00.GMT.2011.argus02a.c0.daytimex.rect.jpg
p346
aV889722000.Thu.Mar.12_17_00_00.GMT.1998.argus02a.c0.daytimex.rect.jpg
p347
aV820774800.Thu.Jan.04_17_00_00.GMT.1996.argus02.c0.daytimex.rect.jpg
p348
aV1076259600.Sun.Feb.08_17_00_00.GMT.2004.argus02a.c0.daytimex.rect.jpg
p349
aV781632000.Sat.Oct.08_16_00_00.GMT.1994.argus02.c0.daytimex.rect.jpg
p350
aV1172250000.Fri.Feb.23_17_00_00.GMT.2007.argus02a.c0.daytimex.rect.jpg
p351
aV916419600.Fri.Jan.15_17_00_00.GMT.1999.argus02a.c0.daytimex.rect.jpg
p352
aV820256400.Fri.Dec.29_17_00_00.GMT.1995.argus02.c0.daytimex.rect.jpg
p353
aV1041008400.Fri.Dec.27_17_00_00.GMT.2002.argus02a.c0.daytimex.rect.jpg
p354
aV1303660800.Sun.Apr.24_16_00_00.GMT.2011.argus02a.c0.daytimex.rect.jpg
p355
aV913309200.Thu.Dec.10_17_00_00.GMT.1998.argus02a.c0.daytimex.rect.jpg
p356
aV1175014800.Tue.Mar.27_17_00_00.GMT.2007.argus02a.c0.daytimex.rect.jpg
p357
aV1104339600.Wed.Dec.29_17_00_00.GMT.2004.argus02a.c0.daytimex.rect.jpg
p358
aV1133197200.Mon.Nov.28_17_00_00.GMT.2005.argus02a.c0.daytimex.rect.jpg
p359
aV1288630800.Mon.Nov.01_17_00_00.GMT.2010.argus02a.c0.daytimex.rect.jpg
p360
aV1195750800.Thu.Nov.22_17_00_00.GMT.2007.argus02a.c0.daytimex.rect.jpg
p361
aV1165165200.Sun.Dec.03_17_00_00.GMT.2006.argus02a.c0.daytimex.rect.jpg
p362
aV798912000.Wed.Apr.26_16_00_00.GMT.1995.argus02.c0.daytimex.rect.jpg
p363
aV1163782800.Fri.Nov.17_17_00_00.GMT.2006.argus02a.c0.daytimex.rect.jpg
p364
aV1385053200.Thu.Nov.21_17_00_00.GMT.2013.argus02a.c0.daytimex.rect.jpg
p365
aV764701200.Sat.Mar.26_17_00_00.GMT.1994.argus02.c0.daytimex.rect.jpg
p366
aV1390323600.Tue.Jan.21_17_00_00.GMT.2014.argus02a.c0.daytimex.rect.jpg
p367
aV1234890000.Tue.Feb.17_17_00_00.GMT.2009.argus02a.c0.daytimex.rect.jpg
p368
aV817318800.Sat.Nov.25_17_00_00.GMT.1995.argus02.c0.daytimex.rect.jpg
p369
aV1181923200.Fri.Jun.15_16_00_00.GMT.2007.argus02a.c0.daytimex.rect.jpg
p370
aV1299862800.Fri.Mar.11_17_00_00.GMT.2011.argus02a.c0.daytimex.rect.jpg
p371
aV874166400.Sat.Sep.13_16_00_00.GMT.1997.argus02.c0.daytimex.rect.jpg
p372
aV875808000.Thu.Oct.02_16_00_00.GMT.1997.argus02.c0.daytimex.rect.jpg
p373
aV907344000.Fri.Oct.02_16_00_00.GMT.1998.argus02a.c0.daytimex.rect.jpg
p374
aV1317398400.Fri.Sep.30_16_00_00.GMT.2011.argus02a.c0.daytimex.rect.jpg
p375
a.