(lp0
V933955200.Fri.Aug.06_16_00_00.GMT.1999.argus02a.c0.daytimex.rect.jpg
p1
aV1218124800.Thu.Aug.07_16_00_00.GMT.2008.argus02a.c0.daytimex.rect.jpg
p2
aV927475200.Sun.May.23_16_00_00.GMT.1999.argus02a.c0.daytimex.rect.jpg
p3
aV1190476800.Sat.Sep.22_16_00_00.GMT.2007.argus02a.c0.daytimex.rect.jpg
p4
aV835286400.Thu.Jun.20_16_00_00.GMT.1996.argus02.c0.daytimex.rect.jpg
p5
aV1112803200.Wed.Apr.06_16_00_00.GMT.2005.argus02a.c0.daytimex.rect.jpg
p6
aV766598400.Sun.Apr.17_16_00_00.GMT.1994.argus02.c0.daytimex.rect.jpg
p7
aV771091200.Wed.Jun.08_16_00_00.GMT.1994.argus02.c0.daytimex.rect.jpg
p8
aV933264000.Thu.Jul.29_16_00_00.GMT.1999.argus02a.c0.daytimex.rect.jpg
p9
aV1086192000.Wed.Jun.02_16_00_00.GMT.2004.argus02a.c0.daytimex.rect.jpg
p10
aV733597200.Wed.Mar.31_17_00_00.GMT.1993.argus02.c0.daytimex.rect.jpg
p11
aV926179200.Sat.May.08_16_00_00.GMT.1999.argus02a.c0.daytimex.rect.jpg
p12
aV1152201600.Thu.Jul.06_16_00_00.GMT.2006.argus02a.c0.daytimex.rect.jpg
p13
aV1184428800.Sat.Jul.14_16_00_00.GMT.2007.argus02a.c0.daytimex.rect.jpg
p14
aV1345305600.Sat.Aug.18_16_00_00.GMT.2012.argus02a.c0.daytimex.rect.jpg
p15
aV1357232400.Thu.Jan.03_17_00_00.GMT.2013.argus02a.c0.daytimex.rect.jpg
p16
aV1356454800.Tue.Dec.25_17_00_00.GMT.2012.argus02a.c0.daytimex.rect.jpg
p17
aV1334764800.Wed.Apr.18_16_00_00.GMT.2012.argus02a.c0.daytimex.rect.jpg
p18
aV1223308800.Mon.Oct.06_16_00_00.GMT.2008.argus02a.c0.daytimex.rect.jpg
p19
aV744566400.Thu.Aug.05_16_00_00.GMT.1993.argus02.c0.daytimex.rect.jpg
p20
aV1165683600.Sat.Dec.09_17_00_00.GMT.2006.argus02a.c0.daytimex.rect.jpg
p21
aV1060876800.Thu.Aug.14_16_00_00.GMT.2003.argus02a.c0.daytimex.rect.jpg
p22
aV764182800.Sun.Mar.20_17_00_00.GMT.1994.argus02.c0.daytimex.rect.jpg
p23
aV825526800.Wed.Feb.28_17_00_00.GMT.1996.argus02.c0.daytimex.rect.jpg
p24
aV1374854400.Fri.Jul.26_16_00_00.GMT.2013.argus02a.c0.daytimex.rect.jpg
p25
aV839692800.Sat.Aug.10_16_00_00.GMT.1996.argus02.c0.daytimex.rect.jpg
p26
aV831052800.Thu.May.02_16_00_00.GMT.1996.argus02.c0.daytimex.rect.jpg
p27
aV763059600.Mon.Mar.07_17_00_00.GMT.1994.argus02.c0.daytimex.rect.jpg
p28
aV1343232000.Wed.Jul.25_16_00_00.GMT.2012.argus02a.c0.daytimex.rect.jpg
p29
aV1325091600.Wed.Dec.28_17_00_00.GMT.2011.argus02a.c0.daytimex.rect.jpg
p30
aV1063468800.Sat.Sep.13_16_00_00.GMT.2003.argus02a.c0.daytimex.rect.jpg
p31
aV1399478400.Wed.May.07_16_00_00.GMT.2014.argus02a.c0.daytimex.rect.jpg
p32
aV930499200.Sun.Jun.27_16_00_00.GMT.1999.argus02a.c0.daytimex.rect.jpg
p33
aV1117555200.Tue.May.31_16_00_00.GMT.2005.argus02a.c0.daytimex.rect.jpg
p34
aV1082390400.Mon.Apr.19_16_00_00.GMT.2004.argus02a.c0.daytimex.rect.jpg
p35
aV1031414400.Sat.Sep.07_16_00_00.GMT.2002.argus02a.c0.daytimex.rect.jpg
p36
aV894038400.Fri.May.01_16_00_00.GMT.1998.argus02a.c0.daytimex.rect.jpg
p37
aV1229792400.Sat.Dec.20_17_00_00.GMT.2008.argus02a.c0.daytimex.rect.jpg
p38
aV1120924800.Sat.Jul.09_16_00_00.GMT.2005.argus02a.c0.daytimex.rect.jpg
p39
aV1007830800.Sat.Dec.08_17_00_00.GMT.2001.argus02a.c0.daytimex.rect.jpg
p40
aV1082822400.Sat.Apr.24_16_00_00.GMT.2004.argus02a.c0.daytimex.rect.jpg
p41
aV941734800.Thu.Nov.04_17_00_00.GMT.1999.argus02a.c0.daytimex.rect.jpg
p42
aV1008608400.Mon.Dec.17_17_00_00.GMT.2001.argus02a.c0.daytimex.rect.jpg
p43
aV1401724800.Mon.Jun.02_16_00_00.GMT.2014.argus02a.c0.daytimex.rect.jpg
p44
aV1120752000.Thu.Jul.07_16_00_00.GMT.2005.argus02a.c0.daytimex.rect.jpg
p45
aV861292800.Thu.Apr.17_16_00_00.GMT.1997.argus02.c0.daytimex.rect.jpg
p46
aV813859200.Mon.Oct.16_16_00_00.GMT.1995.argus02.c0.daytimex.rect.jpg
p47
aV1017853200.Wed.Apr.03_17_00_00.GMT.2002.argus02a.c0.daytimex.rect.jpg
p48
aV1294678800.Mon.Jan.10_17_00_00.GMT.2011.argus02a.c0.daytimex.rect.jpg
p49
aV1072544400.Sat.Dec.27_17_00_00.GMT.2003.argus02a.c0.daytimex.rect.jpg
p50
aV905184000.Mon.Sep.07_16_00_00.GMT.1998.argus02a.c0.daytimex.rect.jpg
p51
aV1384794000.Mon.Nov.18_17_00_00.GMT.2013.argus02a.c0.daytimex.rect.jpg
p52
aV1253030400.Tue.Sep.15_16_00_00.GMT.2009.argus02a.c0.daytimex.rect.jpg
p53
aV1290618000.Wed.Nov.24_17_00_00.GMT.2010.argus02a.c0.daytimex.rect.jpg
p54
aV1252944000.Mon.Sep.14_16_00_00.GMT.2009.argus02a.c0.daytimex.rect.jpg
p55
aV1095955200.Thu.Sep.23_16_00_00.GMT.2004.argus02a.c0.daytimex.rect.jpg
p56
aV730400400.Mon.Feb.22_17_00_00.GMT.1993.argus02.c0.daytimex.rect.jpg
p57
aV1100538000.Mon.Nov.15_17_00_00.GMT.2004.argus02a.c0.daytimex.rect.jpg
p58
aV1243526400.Thu.May.28_16_00_00.GMT.2009.argus02a.c0.daytimex.rect.jpg
p59
aV1394384400.Sun.Mar.09_17_00_00.GMT.2014.argus02a.c0.daytimex.rect.jpg
p60
aV1277136000.Mon.Jun.21_16_00_00.GMT.2010.argus02a.c0.daytimex.rect.jpg
p61
aV1301331600.Mon.Mar.28_17_00_00.GMT.2011.argus02a.c0.daytimex.rect.jpg
p62
aV1174582800.Thu.Mar.22_17_00_00.GMT.2007.argus02a.c0.daytimex.rect.jpg
p63
aV1414166400.Fri.Oct.24_16_00_00.GMT.2014.argus02a.c0.daytimex.rect.jpg
p64
aV942944400.Thu.Nov.18_17_00_00.GMT.1999.argus02a.c0.daytimex.rect.jpg
p65
aV1315584000.Fri.Sep.09_16_00_00.GMT.2011.argus02a.c0.daytimex.rect.jpg
p66
aV1032883200.Tue.Sep.24_16_00_00.GMT.2002.argus02a.c0.daytimex.rect.jpg
p67
aV1171904400.Mon.Feb.19_17_00_00.GMT.2007.argus02a.c0.daytimex.rect.jpg
p68
aV1176393600.Thu.Apr.12_16_00_00.GMT.2007.argus02a.c0.daytimex.rect.jpg
p69
aV1032278400.Tue.Sep.17_16_00_00.GMT.2002.argus02a.c0.daytimex.rect.jpg
p70
aV1179158400.Mon.May.14_16_00_00.GMT.2007.argus02a.c0.daytimex.rect.jpg
p71
aV1297270800.Wed.Feb.09_17_00_00.GMT.2011.argus02a.c0.daytimex.rect.jpg
p72
aV847645200.Sun.Nov.10_17_00_00.GMT.1996.argus02.c0.daytimex.rect.jpg
p73
aV1196269200.Wed.Nov.28_17_00_00.GMT.2007.argus02a.c0.daytimex.rect.jpg
p74
aV1142701200.Sat.Mar.18_17_00_00.GMT.2006.argus02a.c0.daytimex.rect.jpg
p75
aV933955200.Fri.Aug.06_16_00_00.GMT.1999.argus02a.c0.daytimex.rect.hflip.jpg
p76
aV1218124800.Thu.Aug.07_16_00_00.GMT.2008.argus02a.c0.daytimex.rect.hflip.jpg
p77
aV927475200.Sun.May.23_16_00_00.GMT.1999.argus02a.c0.daytimex.rect.hflip.jpg
p78
aV1190476800.Sat.Sep.22_16_00_00.GMT.2007.argus02a.c0.daytimex.rect.hflip.jpg
p79
aV835286400.Thu.Jun.20_16_00_00.GMT.1996.argus02.c0.daytimex.rect.hflip.jpg
p80
aV1112803200.Wed.Apr.06_16_00_00.GMT.2005.argus02a.c0.daytimex.rect.hflip.jpg
p81
aV766598400.Sun.Apr.17_16_00_00.GMT.1994.argus02.c0.daytimex.rect.hflip.jpg
p82
aV771091200.Wed.Jun.08_16_00_00.GMT.1994.argus02.c0.daytimex.rect.hflip.jpg
p83
aV933264000.Thu.Jul.29_16_00_00.GMT.1999.argus02a.c0.daytimex.rect.hflip.jpg
p84
aV1086192000.Wed.Jun.02_16_00_00.GMT.2004.argus02a.c0.daytimex.rect.hflip.jpg
p85
aV733597200.Wed.Mar.31_17_00_00.GMT.1993.argus02.c0.daytimex.rect.hflip.jpg
p86
aV926179200.Sat.May.08_16_00_00.GMT.1999.argus02a.c0.daytimex.rect.hflip.jpg
p87
aV1152201600.Thu.Jul.06_16_00_00.GMT.2006.argus02a.c0.daytimex.rect.hflip.jpg
p88
aV1184428800.Sat.Jul.14_16_00_00.GMT.2007.argus02a.c0.daytimex.rect.hflip.jpg
p89
aV1345305600.Sat.Aug.18_16_00_00.GMT.2012.argus02a.c0.daytimex.rect.hflip.jpg
p90
aV1357232400.Thu.Jan.03_17_00_00.GMT.2013.argus02a.c0.daytimex.rect.hflip.jpg
p91
aV1356454800.Tue.Dec.25_17_00_00.GMT.2012.argus02a.c0.daytimex.rect.hflip.jpg
p92
aV1334764800.Wed.Apr.18_16_00_00.GMT.2012.argus02a.c0.daytimex.rect.hflip.jpg
p93
aV1223308800.Mon.Oct.06_16_00_00.GMT.2008.argus02a.c0.daytimex.rect.hflip.jpg
p94
aV744566400.Thu.Aug.05_16_00_00.GMT.1993.argus02.c0.daytimex.rect.hflip.jpg
p95
aV1165683600.Sat.Dec.09_17_00_00.GMT.2006.argus02a.c0.daytimex.rect.hflip.jpg
p96
aV1060876800.Thu.Aug.14_16_00_00.GMT.2003.argus02a.c0.daytimex.rect.hflip.jpg
p97
aV764182800.Sun.Mar.20_17_00_00.GMT.1994.argus02.c0.daytimex.rect.hflip.jpg
p98
aV825526800.Wed.Feb.28_17_00_00.GMT.1996.argus02.c0.daytimex.rect.hflip.jpg
p99
aV1374854400.Fri.Jul.26_16_00_00.GMT.2013.argus02a.c0.daytimex.rect.hflip.jpg
p100
aV839692800.Sat.Aug.10_16_00_00.GMT.1996.argus02.c0.daytimex.rect.hflip.jpg
p101
aV831052800.Thu.May.02_16_00_00.GMT.1996.argus02.c0.daytimex.rect.hflip.jpg
p102
aV763059600.Mon.Mar.07_17_00_00.GMT.1994.argus02.c0.daytimex.rect.hflip.jpg
p103
aV1343232000.Wed.Jul.25_16_00_00.GMT.2012.argus02a.c0.daytimex.rect.hflip.jpg
p104
aV1325091600.Wed.Dec.28_17_00_00.GMT.2011.argus02a.c0.daytimex.rect.hflip.jpg
p105
aV1063468800.Sat.Sep.13_16_00_00.GMT.2003.argus02a.c0.daytimex.rect.hflip.jpg
p106
aV1399478400.Wed.May.07_16_00_00.GMT.2014.argus02a.c0.daytimex.rect.hflip.jpg
p107
aV930499200.Sun.Jun.27_16_00_00.GMT.1999.argus02a.c0.daytimex.rect.hflip.jpg
p108
aV1117555200.Tue.May.31_16_00_00.GMT.2005.argus02a.c0.daytimex.rect.hflip.jpg
p109
aV1082390400.Mon.Apr.19_16_00_00.GMT.2004.argus02a.c0.daytimex.rect.hflip.jpg
p110
aV1031414400.Sat.Sep.07_16_00_00.GMT.2002.argus02a.c0.daytimex.rect.hflip.jpg
p111
aV894038400.Fri.May.01_16_00_00.GMT.1998.argus02a.c0.daytimex.rect.hflip.jpg
p112
aV1229792400.Sat.Dec.20_17_00_00.GMT.2008.argus02a.c0.daytimex.rect.hflip.jpg
p113
aV1120924800.Sat.Jul.09_16_00_00.GMT.2005.argus02a.c0.daytimex.rect.hflip.jpg
p114
aV1007830800.Sat.Dec.08_17_00_00.GMT.2001.argus02a.c0.daytimex.rect.hflip.jpg
p115
aV1082822400.Sat.Apr.24_16_00_00.GMT.2004.argus02a.c0.daytimex.rect.hflip.jpg
p116
aV941734800.Thu.Nov.04_17_00_00.GMT.1999.argus02a.c0.daytimex.rect.hflip.jpg
p117
aV1008608400.Mon.Dec.17_17_00_00.GMT.2001.argus02a.c0.daytimex.rect.hflip.jpg
p118
aV1401724800.Mon.Jun.02_16_00_00.GMT.2014.argus02a.c0.daytimex.rect.hflip.jpg
p119
aV1120752000.Thu.Jul.07_16_00_00.GMT.2005.argus02a.c0.daytimex.rect.hflip.jpg
p120
aV861292800.Thu.Apr.17_16_00_00.GMT.1997.argus02.c0.daytimex.rect.hflip.jpg
p121
aV813859200.Mon.Oct.16_16_00_00.GMT.1995.argus02.c0.daytimex.rect.hflip.jpg
p122
aV1017853200.Wed.Apr.03_17_00_00.GMT.2002.argus02a.c0.daytimex.rect.hflip.jpg
p123
aV1294678800.Mon.Jan.10_17_00_00.GMT.2011.argus02a.c0.daytimex.rect.hflip.jpg
p124
aV1072544400.Sat.Dec.27_17_00_00.GMT.2003.argus02a.c0.daytimex.rect.hflip.jpg
p125
aV905184000.Mon.Sep.07_16_00_00.GMT.1998.argus02a.c0.daytimex.rect.hflip.jpg
p126
aV1384794000.Mon.Nov.18_17_00_00.GMT.2013.argus02a.c0.daytimex.rect.hflip.jpg
p127
aV1253030400.Tue.Sep.15_16_00_00.GMT.2009.argus02a.c0.daytimex.rect.hflip.jpg
p128
aV1290618000.Wed.Nov.24_17_00_00.GMT.2010.argus02a.c0.daytimex.rect.hflip.jpg
p129
aV1252944000.Mon.Sep.14_16_00_00.GMT.2009.argus02a.c0.daytimex.rect.hflip.jpg
p130
aV1095955200.Thu.Sep.23_16_00_00.GMT.2004.argus02a.c0.daytimex.rect.hflip.jpg
p131
aV730400400.Mon.Feb.22_17_00_00.GMT.1993.argus02.c0.daytimex.rect.hflip.jpg
p132
aV1100538000.Mon.Nov.15_17_00_00.GMT.2004.argus02a.c0.daytimex.rect.hflip.jpg
p133
aV1243526400.Thu.May.28_16_00_00.GMT.2009.argus02a.c0.daytimex.rect.hflip.jpg
p134
aV1394384400.Sun.Mar.09_17_00_00.GMT.2014.argus02a.c0.daytimex.rect.hflip.jpg
p135
aV1277136000.Mon.Jun.21_16_00_00.GMT.2010.argus02a.c0.daytimex.rect.hflip.jpg
p136
aV1301331600.Mon.Mar.28_17_00_00.GMT.2011.argus02a.c0.daytimex.rect.hflip.jpg
p137
aV1174582800.Thu.Mar.22_17_00_00.GMT.2007.argus02a.c0.daytimex.rect.hflip.jpg
p138
aV1414166400.Fri.Oct.24_16_00_00.GMT.2014.argus02a.c0.daytimex.rect.hflip.jpg
p139
aV942944400.Thu.Nov.18_17_00_00.GMT.1999.argus02a.c0.daytimex.rect.hflip.jpg
p140
aV1315584000.Fri.Sep.09_16_00_00.GMT.2011.argus02a.c0.daytimex.rect.hflip.jpg
p141
aV1032883200.Tue.Sep.24_16_00_00.GMT.2002.argus02a.c0.daytimex.rect.hflip.jpg
p142
aV1171904400.Mon.Feb.19_17_00_00.GMT.2007.argus02a.c0.daytimex.rect.hflip.jpg
p143
aV1176393600.Thu.Apr.12_16_00_00.GMT.2007.argus02a.c0.daytimex.rect.hflip.jpg
p144
aV1032278400.Tue.Sep.17_16_00_00.GMT.2002.argus02a.c0.daytimex.rect.hflip.jpg
p145
aV1179158400.Mon.May.14_16_00_00.GMT.2007.argus02a.c0.daytimex.rect.hflip.jpg
p146
aV1297270800.Wed.Feb.09_17_00_00.GMT.2011.argus02a.c0.daytimex.rect.hflip.jpg
p147
aV847645200.Sun.Nov.10_17_00_00.GMT.1996.argus02.c0.daytimex.rect.hflip.jpg
p148
aV1196269200.Wed.Nov.28_17_00_00.GMT.2007.argus02a.c0.daytimex.rect.hflip.jpg
p149
aV1142701200.Sat.Mar.18_17_00_00.GMT.2006.argus02a.c0.daytimex.rect.hflip.jpg
p150
aV933955200.Fri.Aug.06_16_00_00.GMT.1999.argus02a.c0.daytimex.rect.vflip.jpg
p151
aV1218124800.Thu.Aug.07_16_00_00.GMT.2008.argus02a.c0.daytimex.rect.vflip.jpg
p152
aV927475200.Sun.May.23_16_00_00.GMT.1999.argus02a.c0.daytimex.rect.vflip.jpg
p153
aV1190476800.Sat.Sep.22_16_00_00.GMT.2007.argus02a.c0.daytimex.rect.vflip.jpg
p154
aV835286400.Thu.Jun.20_16_00_00.GMT.1996.argus02.c0.daytimex.rect.vflip.jpg
p155
aV1112803200.Wed.Apr.06_16_00_00.GMT.2005.argus02a.c0.daytimex.rect.vflip.jpg
p156
aV766598400.Sun.Apr.17_16_00_00.GMT.1994.argus02.c0.daytimex.rect.vflip.jpg
p157
aV771091200.Wed.Jun.08_16_00_00.GMT.1994.argus02.c0.daytimex.rect.vflip.jpg
p158
aV933264000.Thu.Jul.29_16_00_00.GMT.1999.argus02a.c0.daytimex.rect.vflip.jpg
p159
aV1086192000.Wed.Jun.02_16_00_00.GMT.2004.argus02a.c0.daytimex.rect.vflip.jpg
p160
aV733597200.Wed.Mar.31_17_00_00.GMT.1993.argus02.c0.daytimex.rect.vflip.jpg
p161
aV926179200.Sat.May.08_16_00_00.GMT.1999.argus02a.c0.daytimex.rect.vflip.jpg
p162
aV1152201600.Thu.Jul.06_16_00_00.GMT.2006.argus02a.c0.daytimex.rect.vflip.jpg
p163
aV1184428800.Sat.Jul.14_16_00_00.GMT.2007.argus02a.c0.daytimex.rect.vflip.jpg
p164
aV1345305600.Sat.Aug.18_16_00_00.GMT.2012.argus02a.c0.daytimex.rect.vflip.jpg
p165
aV1357232400.Thu.Jan.03_17_00_00.GMT.2013.argus02a.c0.daytimex.rect.vflip.jpg
p166
aV1356454800.Tue.Dec.25_17_00_00.GMT.2012.argus02a.c0.daytimex.rect.vflip.jpg
p167
aV1334764800.Wed.Apr.18_16_00_00.GMT.2012.argus02a.c0.daytimex.rect.vflip.jpg
p168
aV1223308800.Mon.Oct.06_16_00_00.GMT.2008.argus02a.c0.daytimex.rect.vflip.jpg
p169
aV744566400.Thu.Aug.05_16_00_00.GMT.1993.argus02.c0.daytimex.rect.vflip.jpg
p170
aV1165683600.Sat.Dec.09_17_00_00.GMT.2006.argus02a.c0.daytimex.rect.vflip.jpg
p171
aV1060876800.Thu.Aug.14_16_00_00.GMT.2003.argus02a.c0.daytimex.rect.vflip.jpg
p172
aV764182800.Sun.Mar.20_17_00_00.GMT.1994.argus02.c0.daytimex.rect.vflip.jpg
p173
aV825526800.Wed.Feb.28_17_00_00.GMT.1996.argus02.c0.daytimex.rect.vflip.jpg
p174
aV1374854400.Fri.Jul.26_16_00_00.GMT.2013.argus02a.c0.daytimex.rect.vflip.jpg
p175
aV839692800.Sat.Aug.10_16_00_00.GMT.1996.argus02.c0.daytimex.rect.vflip.jpg
p176
aV831052800.Thu.May.02_16_00_00.GMT.1996.argus02.c0.daytimex.rect.vflip.jpg
p177
aV763059600.Mon.Mar.07_17_00_00.GMT.1994.argus02.c0.daytimex.rect.vflip.jpg
p178
aV1343232000.Wed.Jul.25_16_00_00.GMT.2012.argus02a.c0.daytimex.rect.vflip.jpg
p179
aV1325091600.Wed.Dec.28_17_00_00.GMT.2011.argus02a.c0.daytimex.rect.vflip.jpg
p180
aV1063468800.Sat.Sep.13_16_00_00.GMT.2003.argus02a.c0.daytimex.rect.vflip.jpg
p181
aV1399478400.Wed.May.07_16_00_00.GMT.2014.argus02a.c0.daytimex.rect.vflip.jpg
p182
aV930499200.Sun.Jun.27_16_00_00.GMT.1999.argus02a.c0.daytimex.rect.vflip.jpg
p183
aV1117555200.Tue.May.31_16_00_00.GMT.2005.argus02a.c0.daytimex.rect.vflip.jpg
p184
aV1082390400.Mon.Apr.19_16_00_00.GMT.2004.argus02a.c0.daytimex.rect.vflip.jpg
p185
aV1031414400.Sat.Sep.07_16_00_00.GMT.2002.argus02a.c0.daytimex.rect.vflip.jpg
p186
aV894038400.Fri.May.01_16_00_00.GMT.1998.argus02a.c0.daytimex.rect.vflip.jpg
p187
aV1229792400.Sat.Dec.20_17_00_00.GMT.2008.argus02a.c0.daytimex.rect.vflip.jpg
p188
aV1120924800.Sat.Jul.09_16_00_00.GMT.2005.argus02a.c0.daytimex.rect.vflip.jpg
p189
aV1007830800.Sat.Dec.08_17_00_00.GMT.2001.argus02a.c0.daytimex.rect.vflip.jpg
p190
aV1082822400.Sat.Apr.24_16_00_00.GMT.2004.argus02a.c0.daytimex.rect.vflip.jpg
p191
aV941734800.Thu.Nov.04_17_00_00.GMT.1999.argus02a.c0.daytimex.rect.vflip.jpg
p192
aV1008608400.Mon.Dec.17_17_00_00.GMT.2001.argus02a.c0.daytimex.rect.vflip.jpg
p193
aV1401724800.Mon.Jun.02_16_00_00.GMT.2014.argus02a.c0.daytimex.rect.vflip.jpg
p194
aV1120752000.Thu.Jul.07_16_00_00.GMT.2005.argus02a.c0.daytimex.rect.vflip.jpg
p195
aV861292800.Thu.Apr.17_16_00_00.GMT.1997.argus02.c0.daytimex.rect.vflip.jpg
p196
aV813859200.Mon.Oct.16_16_00_00.GMT.1995.argus02.c0.daytimex.rect.vflip.jpg
p197
aV1017853200.Wed.Apr.03_17_00_00.GMT.2002.argus02a.c0.daytimex.rect.vflip.jpg
p198
aV1294678800.Mon.Jan.10_17_00_00.GMT.2011.argus02a.c0.daytimex.rect.vflip.jpg
p199
aV1072544400.Sat.Dec.27_17_00_00.GMT.2003.argus02a.c0.daytimex.rect.vflip.jpg
p200
aV905184000.Mon.Sep.07_16_00_00.GMT.1998.argus02a.c0.daytimex.rect.vflip.jpg
p201
aV1384794000.Mon.Nov.18_17_00_00.GMT.2013.argus02a.c0.daytimex.rect.vflip.jpg
p202
aV1253030400.Tue.Sep.15_16_00_00.GMT.2009.argus02a.c0.daytimex.rect.vflip.jpg
p203
aV1290618000.Wed.Nov.24_17_00_00.GMT.2010.argus02a.c0.daytimex.rect.vflip.jpg
p204
aV1252944000.Mon.Sep.14_16_00_00.GMT.2009.argus02a.c0.daytimex.rect.vflip.jpg
p205
aV1095955200.Thu.Sep.23_16_00_00.GMT.2004.argus02a.c0.daytimex.rect.vflip.jpg
p206
aV730400400.Mon.Feb.22_17_00_00.GMT.1993.argus02.c0.daytimex.rect.vflip.jpg
p207
aV1100538000.Mon.Nov.15_17_00_00.GMT.2004.argus02a.c0.daytimex.rect.vflip.jpg
p208
aV1243526400.Thu.May.28_16_00_00.GMT.2009.argus02a.c0.daytimex.rect.vflip.jpg
p209
aV1394384400.Sun.Mar.09_17_00_00.GMT.2014.argus02a.c0.daytimex.rect.vflip.jpg
p210
aV1277136000.Mon.Jun.21_16_00_00.GMT.2010.argus02a.c0.daytimex.rect.vflip.jpg
p211
aV1301331600.Mon.Mar.28_17_00_00.GMT.2011.argus02a.c0.daytimex.rect.vflip.jpg
p212
aV1174582800.Thu.Mar.22_17_00_00.GMT.2007.argus02a.c0.daytimex.rect.vflip.jpg
p213
aV1414166400.Fri.Oct.24_16_00_00.GMT.2014.argus02a.c0.daytimex.rect.vflip.jpg
p214
aV942944400.Thu.Nov.18_17_00_00.GMT.1999.argus02a.c0.daytimex.rect.vflip.jpg
p215
aV1315584000.Fri.Sep.09_16_00_00.GMT.2011.argus02a.c0.daytimex.rect.vflip.jpg
p216
aV1032883200.Tue.Sep.24_16_00_00.GMT.2002.argus02a.c0.daytimex.rect.vflip.jpg
p217
aV1171904400.Mon.Feb.19_17_00_00.GMT.2007.argus02a.c0.daytimex.rect.vflip.jpg
p218
aV1176393600.Thu.Apr.12_16_00_00.GMT.2007.argus02a.c0.daytimex.rect.vflip.jpg
p219
aV1032278400.Tue.Sep.17_16_00_00.GMT.2002.argus02a.c0.daytimex.rect.vflip.jpg
p220
aV1179158400.Mon.May.14_16_00_00.GMT.2007.argus02a.c0.daytimex.rect.vflip.jpg
p221
aV1297270800.Wed.Feb.09_17_00_00.GMT.2011.argus02a.c0.daytimex.rect.vflip.jpg
p222
aV847645200.Sun.Nov.10_17_00_00.GMT.1996.argus02.c0.daytimex.rect.vflip.jpg
p223
aV1196269200.Wed.Nov.28_17_00_00.GMT.2007.argus02a.c0.daytimex.rect.vflip.jpg
p224
aV1142701200.Sat.Mar.18_17_00_00.GMT.2006.argus02a.c0.daytimex.rect.vflip.jpg
p225
aV933955200.Fri.Aug.06_16_00_00.GMT.1999.argus02a.c0.daytimex.rect.rot.jpg
p226
aV1218124800.Thu.Aug.07_16_00_00.GMT.2008.argus02a.c0.daytimex.rect.rot.jpg
p227
aV927475200.Sun.May.23_16_00_00.GMT.1999.argus02a.c0.daytimex.rect.rot.jpg
p228
aV1190476800.Sat.Sep.22_16_00_00.GMT.2007.argus02a.c0.daytimex.rect.rot.jpg
p229
aV835286400.Thu.Jun.20_16_00_00.GMT.1996.argus02.c0.daytimex.rect.rot.jpg
p230
aV1112803200.Wed.Apr.06_16_00_00.GMT.2005.argus02a.c0.daytimex.rect.rot.jpg
p231
aV766598400.Sun.Apr.17_16_00_00.GMT.1994.argus02.c0.daytimex.rect.rot.jpg
p232
aV771091200.Wed.Jun.08_16_00_00.GMT.1994.argus02.c0.daytimex.rect.rot.jpg
p233
aV933264000.Thu.Jul.29_16_00_00.GMT.1999.argus02a.c0.daytimex.rect.rot.jpg
p234
aV1086192000.Wed.Jun.02_16_00_00.GMT.2004.argus02a.c0.daytimex.rect.rot.jpg
p235
aV733597200.Wed.Mar.31_17_00_00.GMT.1993.argus02.c0.daytimex.rect.rot.jpg
p236
aV926179200.Sat.May.08_16_00_00.GMT.1999.argus02a.c0.daytimex.rect.rot.jpg
p237
aV1152201600.Thu.Jul.06_16_00_00.GMT.2006.argus02a.c0.daytimex.rect.rot.jpg
p238
aV1184428800.Sat.Jul.14_16_00_00.GMT.2007.argus02a.c0.daytimex.rect.rot.jpg
p239
aV1345305600.Sat.Aug.18_16_00_00.GMT.2012.argus02a.c0.daytimex.rect.rot.jpg
p240
aV1357232400.Thu.Jan.03_17_00_00.GMT.2013.argus02a.c0.daytimex.rect.rot.jpg
p241
aV1356454800.Tue.Dec.25_17_00_00.GMT.2012.argus02a.c0.daytimex.rect.rot.jpg
p242
aV1334764800.Wed.Apr.18_16_00_00.GMT.2012.argus02a.c0.daytimex.rect.rot.jpg
p243
aV1223308800.Mon.Oct.06_16_00_00.GMT.2008.argus02a.c0.daytimex.rect.rot.jpg
p244
aV744566400.Thu.Aug.05_16_00_00.GMT.1993.argus02.c0.daytimex.rect.rot.jpg
p245
aV1165683600.Sat.Dec.09_17_00_00.GMT.2006.argus02a.c0.daytimex.rect.rot.jpg
p246
aV1060876800.Thu.Aug.14_16_00_00.GMT.2003.argus02a.c0.daytimex.rect.rot.jpg
p247
aV764182800.Sun.Mar.20_17_00_00.GMT.1994.argus02.c0.daytimex.rect.rot.jpg
p248
aV825526800.Wed.Feb.28_17_00_00.GMT.1996.argus02.c0.daytimex.rect.rot.jpg
p249
aV1374854400.Fri.Jul.26_16_00_00.GMT.2013.argus02a.c0.daytimex.rect.rot.jpg
p250
aV839692800.Sat.Aug.10_16_00_00.GMT.1996.argus02.c0.daytimex.rect.rot.jpg
p251
aV831052800.Thu.May.02_16_00_00.GMT.1996.argus02.c0.daytimex.rect.rot.jpg
p252
aV763059600.Mon.Mar.07_17_00_00.GMT.1994.argus02.c0.daytimex.rect.rot.jpg
p253
aV1343232000.Wed.Jul.25_16_00_00.GMT.2012.argus02a.c0.daytimex.rect.rot.jpg
p254
aV1325091600.Wed.Dec.28_17_00_00.GMT.2011.argus02a.c0.daytimex.rect.rot.jpg
p255
aV1063468800.Sat.Sep.13_16_00_00.GMT.2003.argus02a.c0.daytimex.rect.rot.jpg
p256
aV1399478400.Wed.May.07_16_00_00.GMT.2014.argus02a.c0.daytimex.rect.rot.jpg
p257
aV930499200.Sun.Jun.27_16_00_00.GMT.1999.argus02a.c0.daytimex.rect.rot.jpg
p258
aV1117555200.Tue.May.31_16_00_00.GMT.2005.argus02a.c0.daytimex.rect.rot.jpg
p259
aV1082390400.Mon.Apr.19_16_00_00.GMT.2004.argus02a.c0.daytimex.rect.rot.jpg
p260
aV1031414400.Sat.Sep.07_16_00_00.GMT.2002.argus02a.c0.daytimex.rect.rot.jpg
p261
aV894038400.Fri.May.01_16_00_00.GMT.1998.argus02a.c0.daytimex.rect.rot.jpg
p262
aV1229792400.Sat.Dec.20_17_00_00.GMT.2008.argus02a.c0.daytimex.rect.rot.jpg
p263
aV1120924800.Sat.Jul.09_16_00_00.GMT.2005.argus02a.c0.daytimex.rect.rot.jpg
p264
aV1007830800.Sat.Dec.08_17_00_00.GMT.2001.argus02a.c0.daytimex.rect.rot.jpg
p265
aV1082822400.Sat.Apr.24_16_00_00.GMT.2004.argus02a.c0.daytimex.rect.rot.jpg
p266
aV941734800.Thu.Nov.04_17_00_00.GMT.1999.argus02a.c0.daytimex.rect.rot.jpg
p267
aV1008608400.Mon.Dec.17_17_00_00.GMT.2001.argus02a.c0.daytimex.rect.rot.jpg
p268
aV1401724800.Mon.Jun.02_16_00_00.GMT.2014.argus02a.c0.daytimex.rect.rot.jpg
p269
aV1120752000.Thu.Jul.07_16_00_00.GMT.2005.argus02a.c0.daytimex.rect.rot.jpg
p270
aV861292800.Thu.Apr.17_16_00_00.GMT.1997.argus02.c0.daytimex.rect.rot.jpg
p271
aV813859200.Mon.Oct.16_16_00_00.GMT.1995.argus02.c0.daytimex.rect.rot.jpg
p272
aV1017853200.Wed.Apr.03_17_00_00.GMT.2002.argus02a.c0.daytimex.rect.rot.jpg
p273
aV1294678800.Mon.Jan.10_17_00_00.GMT.2011.argus02a.c0.daytimex.rect.rot.jpg
p274
aV1072544400.Sat.Dec.27_17_00_00.GMT.2003.argus02a.c0.daytimex.rect.rot.jpg
p275
aV905184000.Mon.Sep.07_16_00_00.GMT.1998.argus02a.c0.daytimex.rect.rot.jpg
p276
aV1384794000.Mon.Nov.18_17_00_00.GMT.2013.argus02a.c0.daytimex.rect.rot.jpg
p277
aV1253030400.Tue.Sep.15_16_00_00.GMT.2009.argus02a.c0.daytimex.rect.rot.jpg
p278
aV1290618000.Wed.Nov.24_17_00_00.GMT.2010.argus02a.c0.daytimex.rect.rot.jpg
p279
aV1252944000.Mon.Sep.14_16_00_00.GMT.2009.argus02a.c0.daytimex.rect.rot.jpg
p280
aV1095955200.Thu.Sep.23_16_00_00.GMT.2004.argus02a.c0.daytimex.rect.rot.jpg
p281
aV730400400.Mon.Feb.22_17_00_00.GMT.1993.argus02.c0.daytimex.rect.rot.jpg
p282
aV1100538000.Mon.Nov.15_17_00_00.GMT.2004.argus02a.c0.daytimex.rect.rot.jpg
p283
aV1243526400.Thu.May.28_16_00_00.GMT.2009.argus02a.c0.daytimex.rect.rot.jpg
p284
aV1394384400.Sun.Mar.09_17_00_00.GMT.2014.argus02a.c0.daytimex.rect.rot.jpg
p285
aV1277136000.Mon.Jun.21_16_00_00.GMT.2010.argus02a.c0.daytimex.rect.rot.jpg
p286
aV1301331600.Mon.Mar.28_17_00_00.GMT.2011.argus02a.c0.daytimex.rect.rot.jpg
p287
aV1174582800.Thu.Mar.22_17_00_00.GMT.2007.argus02a.c0.daytimex.rect.rot.jpg
p288
aV1414166400.Fri.Oct.24_16_00_00.GMT.2014.argus02a.c0.daytimex.rect.rot.jpg
p289
aV942944400.Thu.Nov.18_17_00_00.GMT.1999.argus02a.c0.daytimex.rect.rot.jpg
p290
aV1315584000.Fri.Sep.09_16_00_00.GMT.2011.argus02a.c0.daytimex.rect.rot.jpg
p291
aV1032883200.Tue.Sep.24_16_00_00.GMT.2002.argus02a.c0.daytimex.rect.rot.jpg
p292
aV1171904400.Mon.Feb.19_17_00_00.GMT.2007.argus02a.c0.daytimex.rect.rot.jpg
p293
aV1176393600.Thu.Apr.12_16_00_00.GMT.2007.argus02a.c0.daytimex.rect.rot.jpg
p294
aV1032278400.Tue.Sep.17_16_00_00.GMT.2002.argus02a.c0.daytimex.rect.rot.jpg
p295
aV1179158400.Mon.May.14_16_00_00.GMT.2007.argus02a.c0.daytimex.rect.rot.jpg
p296
aV1297270800.Wed.Feb.09_17_00_00.GMT.2011.argus02a.c0.daytimex.rect.rot.jpg
p297
aV847645200.Sun.Nov.10_17_00_00.GMT.1996.argus02.c0.daytimex.rect.rot.jpg
p298
aV1196269200.Wed.Nov.28_17_00_00.GMT.2007.argus02a.c0.daytimex.rect.rot.jpg
p299
aV1142701200.Sat.Mar.18_17_00_00.GMT.2006.argus02a.c0.daytimex.rect.rot.jpg
p300
aV933955200.Fri.Aug.06_16_00_00.GMT.1999.argus02a.c0.daytimex.rect.erase.jpg
p301
aV1218124800.Thu.Aug.07_16_00_00.GMT.2008.argus02a.c0.daytimex.rect.erase.jpg
p302
aV927475200.Sun.May.23_16_00_00.GMT.1999.argus02a.c0.daytimex.rect.erase.jpg
p303
aV1190476800.Sat.Sep.22_16_00_00.GMT.2007.argus02a.c0.daytimex.rect.erase.jpg
p304
aV835286400.Thu.Jun.20_16_00_00.GMT.1996.argus02.c0.daytimex.rect.erase.jpg
p305
aV1112803200.Wed.Apr.06_16_00_00.GMT.2005.argus02a.c0.daytimex.rect.erase.jpg
p306
aV766598400.Sun.Apr.17_16_00_00.GMT.1994.argus02.c0.daytimex.rect.erase.jpg
p307
aV771091200.Wed.Jun.08_16_00_00.GMT.1994.argus02.c0.daytimex.rect.erase.jpg
p308
aV933264000.Thu.Jul.29_16_00_00.GMT.1999.argus02a.c0.daytimex.rect.erase.jpg
p309
aV1086192000.Wed.Jun.02_16_00_00.GMT.2004.argus02a.c0.daytimex.rect.erase.jpg
p310
aV733597200.Wed.Mar.31_17_00_00.GMT.1993.argus02.c0.daytimex.rect.erase.jpg
p311
aV926179200.Sat.May.08_16_00_00.GMT.1999.argus02a.c0.daytimex.rect.erase.jpg
p312
aV1152201600.Thu.Jul.06_16_00_00.GMT.2006.argus02a.c0.daytimex.rect.erase.jpg
p313
aV1184428800.Sat.Jul.14_16_00_00.GMT.2007.argus02a.c0.daytimex.rect.erase.jpg
p314
aV1345305600.Sat.Aug.18_16_00_00.GMT.2012.argus02a.c0.daytimex.rect.erase.jpg
p315
aV1357232400.Thu.Jan.03_17_00_00.GMT.2013.argus02a.c0.daytimex.rect.erase.jpg
p316
aV1356454800.Tue.Dec.25_17_00_00.GMT.2012.argus02a.c0.daytimex.rect.erase.jpg
p317
aV1334764800.Wed.Apr.18_16_00_00.GMT.2012.argus02a.c0.daytimex.rect.erase.jpg
p318
aV1223308800.Mon.Oct.06_16_00_00.GMT.2008.argus02a.c0.daytimex.rect.erase.jpg
p319
aV744566400.Thu.Aug.05_16_00_00.GMT.1993.argus02.c0.daytimex.rect.erase.jpg
p320
aV1165683600.Sat.Dec.09_17_00_00.GMT.2006.argus02a.c0.daytimex.rect.erase.jpg
p321
aV1060876800.Thu.Aug.14_16_00_00.GMT.2003.argus02a.c0.daytimex.rect.erase.jpg
p322
aV764182800.Sun.Mar.20_17_00_00.GMT.1994.argus02.c0.daytimex.rect.erase.jpg
p323
aV825526800.Wed.Feb.28_17_00_00.GMT.1996.argus02.c0.daytimex.rect.erase.jpg
p324
aV1374854400.Fri.Jul.26_16_00_00.GMT.2013.argus02a.c0.daytimex.rect.erase.jpg
p325
aV839692800.Sat.Aug.10_16_00_00.GMT.1996.argus02.c0.daytimex.rect.erase.jpg
p326
aV831052800.Thu.May.02_16_00_00.GMT.1996.argus02.c0.daytimex.rect.erase.jpg
p327
aV763059600.Mon.Mar.07_17_00_00.GMT.1994.argus02.c0.daytimex.rect.erase.jpg
p328
aV1343232000.Wed.Jul.25_16_00_00.GMT.2012.argus02a.c0.daytimex.rect.erase.jpg
p329
aV1325091600.Wed.Dec.28_17_00_00.GMT.2011.argus02a.c0.daytimex.rect.erase.jpg
p330
aV1063468800.Sat.Sep.13_16_00_00.GMT.2003.argus02a.c0.daytimex.rect.erase.jpg
p331
aV1399478400.Wed.May.07_16_00_00.GMT.2014.argus02a.c0.daytimex.rect.erase.jpg
p332
aV930499200.Sun.Jun.27_16_00_00.GMT.1999.argus02a.c0.daytimex.rect.erase.jpg
p333
aV1117555200.Tue.May.31_16_00_00.GMT.2005.argus02a.c0.daytimex.rect.erase.jpg
p334
aV1082390400.Mon.Apr.19_16_00_00.GMT.2004.argus02a.c0.daytimex.rect.erase.jpg
p335
aV1031414400.Sat.Sep.07_16_00_00.GMT.2002.argus02a.c0.daytimex.rect.erase.jpg
p336
aV894038400.Fri.May.01_16_00_00.GMT.1998.argus02a.c0.daytimex.rect.erase.jpg
p337
aV1229792400.Sat.Dec.20_17_00_00.GMT.2008.argus02a.c0.daytimex.rect.erase.jpg
p338
aV1120924800.Sat.Jul.09_16_00_00.GMT.2005.argus02a.c0.daytimex.rect.erase.jpg
p339
aV1007830800.Sat.Dec.08_17_00_00.GMT.2001.argus02a.c0.daytimex.rect.erase.jpg
p340
aV1082822400.Sat.Apr.24_16_00_00.GMT.2004.argus02a.c0.daytimex.rect.erase.jpg
p341
aV941734800.Thu.Nov.04_17_00_00.GMT.1999.argus02a.c0.daytimex.rect.erase.jpg
p342
aV1008608400.Mon.Dec.17_17_00_00.GMT.2001.argus02a.c0.daytimex.rect.erase.jpg
p343
aV1401724800.Mon.Jun.02_16_00_00.GMT.2014.argus02a.c0.daytimex.rect.erase.jpg
p344
aV1120752000.Thu.Jul.07_16_00_00.GMT.2005.argus02a.c0.daytimex.rect.erase.jpg
p345
aV861292800.Thu.Apr.17_16_00_00.GMT.1997.argus02.c0.daytimex.rect.erase.jpg
p346
aV813859200.Mon.Oct.16_16_00_00.GMT.1995.argus02.c0.daytimex.rect.erase.jpg
p347
aV1017853200.Wed.Apr.03_17_00_00.GMT.2002.argus02a.c0.daytimex.rect.erase.jpg
p348
aV1294678800.Mon.Jan.10_17_00_00.GMT.2011.argus02a.c0.daytimex.rect.erase.jpg
p349
aV1072544400.Sat.Dec.27_17_00_00.GMT.2003.argus02a.c0.daytimex.rect.erase.jpg
p350
aV905184000.Mon.Sep.07_16_00_00.GMT.1998.argus02a.c0.daytimex.rect.erase.jpg
p351
aV1384794000.Mon.Nov.18_17_00_00.GMT.2013.argus02a.c0.daytimex.rect.erase.jpg
p352
aV1253030400.Tue.Sep.15_16_00_00.GMT.2009.argus02a.c0.daytimex.rect.erase.jpg
p353
aV1290618000.Wed.Nov.24_17_00_00.GMT.2010.argus02a.c0.daytimex.rect.erase.jpg
p354
aV1252944000.Mon.Sep.14_16_00_00.GMT.2009.argus02a.c0.daytimex.rect.erase.jpg
p355
aV1095955200.Thu.Sep.23_16_00_00.GMT.2004.argus02a.c0.daytimex.rect.erase.jpg
p356
aV730400400.Mon.Feb.22_17_00_00.GMT.1993.argus02.c0.daytimex.rect.erase.jpg
p357
aV1100538000.Mon.Nov.15_17_00_00.GMT.2004.argus02a.c0.daytimex.rect.erase.jpg
p358
aV1243526400.Thu.May.28_16_00_00.GMT.2009.argus02a.c0.daytimex.rect.erase.jpg
p359
aV1394384400.Sun.Mar.09_17_00_00.GMT.2014.argus02a.c0.daytimex.rect.erase.jpg
p360
aV1277136000.Mon.Jun.21_16_00_00.GMT.2010.argus02a.c0.daytimex.rect.erase.jpg
p361
aV1301331600.Mon.Mar.28_17_00_00.GMT.2011.argus02a.c0.daytimex.rect.erase.jpg
p362
aV1174582800.Thu.Mar.22_17_00_00.GMT.2007.argus02a.c0.daytimex.rect.erase.jpg
p363
aV1414166400.Fri.Oct.24_16_00_00.GMT.2014.argus02a.c0.daytimex.rect.erase.jpg
p364
aV942944400.Thu.Nov.18_17_00_00.GMT.1999.argus02a.c0.daytimex.rect.erase.jpg
p365
aV1315584000.Fri.Sep.09_16_00_00.GMT.2011.argus02a.c0.daytimex.rect.erase.jpg
p366
aV1032883200.Tue.Sep.24_16_00_00.GMT.2002.argus02a.c0.daytimex.rect.erase.jpg
p367
aV1171904400.Mon.Feb.19_17_00_00.GMT.2007.argus02a.c0.daytimex.rect.erase.jpg
p368
aV1176393600.Thu.Apr.12_16_00_00.GMT.2007.argus02a.c0.daytimex.rect.erase.jpg
p369
aV1032278400.Tue.Sep.17_16_00_00.GMT.2002.argus02a.c0.daytimex.rect.erase.jpg
p370
aV1179158400.Mon.May.14_16_00_00.GMT.2007.argus02a.c0.daytimex.rect.erase.jpg
p371
aV1297270800.Wed.Feb.09_17_00_00.GMT.2011.argus02a.c0.daytimex.rect.erase.jpg
p372
aV847645200.Sun.Nov.10_17_00_00.GMT.1996.argus02.c0.daytimex.rect.erase.jpg
p373
aV1196269200.Wed.Nov.28_17_00_00.GMT.2007.argus02a.c0.daytimex.rect.erase.jpg
p374
aV1142701200.Sat.Mar.18_17_00_00.GMT.2006.argus02a.c0.daytimex.rect.erase.jpg
p375
aV933955200.Fri.Aug.06_16_00_00.GMT.1999.argus02a.c0.daytimex.rect.gamma.jpg
p376
aV1218124800.Thu.Aug.07_16_00_00.GMT.2008.argus02a.c0.daytimex.rect.gamma.jpg
p377
aV927475200.Sun.May.23_16_00_00.GMT.1999.argus02a.c0.daytimex.rect.gamma.jpg
p378
aV1190476800.Sat.Sep.22_16_00_00.GMT.2007.argus02a.c0.daytimex.rect.gamma.jpg
p379
aV835286400.Thu.Jun.20_16_00_00.GMT.1996.argus02.c0.daytimex.rect.gamma.jpg
p380
aV1112803200.Wed.Apr.06_16_00_00.GMT.2005.argus02a.c0.daytimex.rect.gamma.jpg
p381
aV766598400.Sun.Apr.17_16_00_00.GMT.1994.argus02.c0.daytimex.rect.gamma.jpg
p382
aV771091200.Wed.Jun.08_16_00_00.GMT.1994.argus02.c0.daytimex.rect.gamma.jpg
p383
aV933264000.Thu.Jul.29_16_00_00.GMT.1999.argus02a.c0.daytimex.rect.gamma.jpg
p384
aV1086192000.Wed.Jun.02_16_00_00.GMT.2004.argus02a.c0.daytimex.rect.gamma.jpg
p385
aV733597200.Wed.Mar.31_17_00_00.GMT.1993.argus02.c0.daytimex.rect.gamma.jpg
p386
aV926179200.Sat.May.08_16_00_00.GMT.1999.argus02a.c0.daytimex.rect.gamma.jpg
p387
aV1152201600.Thu.Jul.06_16_00_00.GMT.2006.argus02a.c0.daytimex.rect.gamma.jpg
p388
aV1184428800.Sat.Jul.14_16_00_00.GMT.2007.argus02a.c0.daytimex.rect.gamma.jpg
p389
aV1345305600.Sat.Aug.18_16_00_00.GMT.2012.argus02a.c0.daytimex.rect.gamma.jpg
p390
aV1357232400.Thu.Jan.03_17_00_00.GMT.2013.argus02a.c0.daytimex.rect.gamma.jpg
p391
aV1356454800.Tue.Dec.25_17_00_00.GMT.2012.argus02a.c0.daytimex.rect.gamma.jpg
p392
aV1334764800.Wed.Apr.18_16_00_00.GMT.2012.argus02a.c0.daytimex.rect.gamma.jpg
p393
aV1223308800.Mon.Oct.06_16_00_00.GMT.2008.argus02a.c0.daytimex.rect.gamma.jpg
p394
aV744566400.Thu.Aug.05_16_00_00.GMT.1993.argus02.c0.daytimex.rect.gamma.jpg
p395
aV1165683600.Sat.Dec.09_17_00_00.GMT.2006.argus02a.c0.daytimex.rect.gamma.jpg
p396
aV1060876800.Thu.Aug.14_16_00_00.GMT.2003.argus02a.c0.daytimex.rect.gamma.jpg
p397
aV764182800.Sun.Mar.20_17_00_00.GMT.1994.argus02.c0.daytimex.rect.gamma.jpg
p398
aV825526800.Wed.Feb.28_17_00_00.GMT.1996.argus02.c0.daytimex.rect.gamma.jpg
p399
aV1374854400.Fri.Jul.26_16_00_00.GMT.2013.argus02a.c0.daytimex.rect.gamma.jpg
p400
aV839692800.Sat.Aug.10_16_00_00.GMT.1996.argus02.c0.daytimex.rect.gamma.jpg
p401
aV831052800.Thu.May.02_16_00_00.GMT.1996.argus02.c0.daytimex.rect.gamma.jpg
p402
aV763059600.Mon.Mar.07_17_00_00.GMT.1994.argus02.c0.daytimex.rect.gamma.jpg
p403
aV1343232000.Wed.Jul.25_16_00_00.GMT.2012.argus02a.c0.daytimex.rect.gamma.jpg
p404
aV1325091600.Wed.Dec.28_17_00_00.GMT.2011.argus02a.c0.daytimex.rect.gamma.jpg
p405
aV1063468800.Sat.Sep.13_16_00_00.GMT.2003.argus02a.c0.daytimex.rect.gamma.jpg
p406
aV1399478400.Wed.May.07_16_00_00.GMT.2014.argus02a.c0.daytimex.rect.gamma.jpg
p407
aV930499200.Sun.Jun.27_16_00_00.GMT.1999.argus02a.c0.daytimex.rect.gamma.jpg
p408
aV1117555200.Tue.May.31_16_00_00.GMT.2005.argus02a.c0.daytimex.rect.gamma.jpg
p409
aV1082390400.Mon.Apr.19_16_00_00.GMT.2004.argus02a.c0.daytimex.rect.gamma.jpg
p410
aV1031414400.Sat.Sep.07_16_00_00.GMT.2002.argus02a.c0.daytimex.rect.gamma.jpg
p411
aV894038400.Fri.May.01_16_00_00.GMT.1998.argus02a.c0.daytimex.rect.gamma.jpg
p412
aV1229792400.Sat.Dec.20_17_00_00.GMT.2008.argus02a.c0.daytimex.rect.gamma.jpg
p413
aV1120924800.Sat.Jul.09_16_00_00.GMT.2005.argus02a.c0.daytimex.rect.gamma.jpg
p414
aV1007830800.Sat.Dec.08_17_00_00.GMT.2001.argus02a.c0.daytimex.rect.gamma.jpg
p415
aV1082822400.Sat.Apr.24_16_00_00.GMT.2004.argus02a.c0.daytimex.rect.gamma.jpg
p416
aV941734800.Thu.Nov.04_17_00_00.GMT.1999.argus02a.c0.daytimex.rect.gamma.jpg
p417
aV1008608400.Mon.Dec.17_17_00_00.GMT.2001.argus02a.c0.daytimex.rect.gamma.jpg
p418
aV1401724800.Mon.Jun.02_16_00_00.GMT.2014.argus02a.c0.daytimex.rect.gamma.jpg
p419
aV1120752000.Thu.Jul.07_16_00_00.GMT.2005.argus02a.c0.daytimex.rect.gamma.jpg
p420
aV861292800.Thu.Apr.17_16_00_00.GMT.1997.argus02.c0.daytimex.rect.gamma.jpg
p421
aV813859200.Mon.Oct.16_16_00_00.GMT.1995.argus02.c0.daytimex.rect.gamma.jpg
p422
aV1017853200.Wed.Apr.03_17_00_00.GMT.2002.argus02a.c0.daytimex.rect.gamma.jpg
p423
aV1294678800.Mon.Jan.10_17_00_00.GMT.2011.argus02a.c0.daytimex.rect.gamma.jpg
p424
aV1072544400.Sat.Dec.27_17_00_00.GMT.2003.argus02a.c0.daytimex.rect.gamma.jpg
p425
aV905184000.Mon.Sep.07_16_00_00.GMT.1998.argus02a.c0.daytimex.rect.gamma.jpg
p426
aV1384794000.Mon.Nov.18_17_00_00.GMT.2013.argus02a.c0.daytimex.rect.gamma.jpg
p427
aV1253030400.Tue.Sep.15_16_00_00.GMT.2009.argus02a.c0.daytimex.rect.gamma.jpg
p428
aV1290618000.Wed.Nov.24_17_00_00.GMT.2010.argus02a.c0.daytimex.rect.gamma.jpg
p429
aV1252944000.Mon.Sep.14_16_00_00.GMT.2009.argus02a.c0.daytimex.rect.gamma.jpg
p430
aV1095955200.Thu.Sep.23_16_00_00.GMT.2004.argus02a.c0.daytimex.rect.gamma.jpg
p431
aV730400400.Mon.Feb.22_17_00_00.GMT.1993.argus02.c0.daytimex.rect.gamma.jpg
p432
aV1100538000.Mon.Nov.15_17_00_00.GMT.2004.argus02a.c0.daytimex.rect.gamma.jpg
p433
aV1243526400.Thu.May.28_16_00_00.GMT.2009.argus02a.c0.daytimex.rect.gamma.jpg
p434
aV1394384400.Sun.Mar.09_17_00_00.GMT.2014.argus02a.c0.daytimex.rect.gamma.jpg
p435
aV1277136000.Mon.Jun.21_16_00_00.GMT.2010.argus02a.c0.daytimex.rect.gamma.jpg
p436
aV1301331600.Mon.Mar.28_17_00_00.GMT.2011.argus02a.c0.daytimex.rect.gamma.jpg
p437
aV1174582800.Thu.Mar.22_17_00_00.GMT.2007.argus02a.c0.daytimex.rect.gamma.jpg
p438
aV1414166400.Fri.Oct.24_16_00_00.GMT.2014.argus02a.c0.daytimex.rect.gamma.jpg
p439
aV942944400.Thu.Nov.18_17_00_00.GMT.1999.argus02a.c0.daytimex.rect.gamma.jpg
p440
aV1315584000.Fri.Sep.09_16_00_00.GMT.2011.argus02a.c0.daytimex.rect.gamma.jpg
p441
aV1032883200.Tue.Sep.24_16_00_00.GMT.2002.argus02a.c0.daytimex.rect.gamma.jpg
p442
aV1171904400.Mon.Feb.19_17_00_00.GMT.2007.argus02a.c0.daytimex.rect.gamma.jpg
p443
aV1176393600.Thu.Apr.12_16_00_00.GMT.2007.argus02a.c0.daytimex.rect.gamma.jpg
p444
aV1032278400.Tue.Sep.17_16_00_00.GMT.2002.argus02a.c0.daytimex.rect.gamma.jpg
p445
aV1179158400.Mon.May.14_16_00_00.GMT.2007.argus02a.c0.daytimex.rect.gamma.jpg
p446
aV1297270800.Wed.Feb.09_17_00_00.GMT.2011.argus02a.c0.daytimex.rect.gamma.jpg
p447
aV847645200.Sun.Nov.10_17_00_00.GMT.1996.argus02.c0.daytimex.rect.gamma.jpg
p448
aV1196269200.Wed.Nov.28_17_00_00.GMT.2007.argus02a.c0.daytimex.rect.gamma.jpg
p449
aV1142701200.Sat.Mar.18_17_00_00.GMT.2006.argus02a.c0.daytimex.rect.gamma.jpg
p450
a.