(lp0
V932313600.Sun.Jul.18_16_00_00.GMT.1999.argus02a.c0.daytimex.rect.jpg
p1
aV932572800.Wed.Jul.21_16_00_00.GMT.1999.argus02a.c0.daytimex.rect.jpg
p2
aV933264000.Thu.Jul.29_16_00_00.GMT.1999.argus02a.c0.daytimex.rect.jpg
p3
aV933955200.Fri.Aug.06_16_00_00.GMT.1999.argus02a.c0.daytimex.rect.jpg
p4
aV934387200.Wed.Aug.11_16_00_00.GMT.1999.argus02a.c0.daytimex.rect.jpg
p5
aV934819200.Mon.Aug.16_16_00_00.GMT.1999.argus02a.c0.daytimex.rect.jpg
p6
aV934992000.Wed.Aug.18_16_00_00.GMT.1999.argus02a.c0.daytimex.rect.jpg
p7
aV963331200.Tue.Jul.11_16_00_00.GMT.2000.argus02a.c0.daytimex.rect.jpg
p8
aV965491200.Sat.Aug.05_16_00_00.GMT.2000.argus02a.c0.daytimex.rect.jpg
p9
aV965923200.Thu.Aug.10_16_00_00.GMT.2000.argus02a.c0.daytimex.rect.jpg
p10
aV992448000.Wed.Jun.13_16_00_00.GMT.2001.argus02a.c0.daytimex.rect.jpg
p11
aV992793600.Sun.Jun.17_16_00_00.GMT.2001.argus02a.c0.daytimex.rect.jpg
p12
aV993484800.Mon.Jun.25_16_00_00.GMT.2001.argus02a.c0.daytimex.rect.jpg
p13
aV994003200.Sun.Jul.01_16_00_00.GMT.2001.argus02a.c0.daytimex.rect.jpg
p14
aV994262400.Wed.Jul.04_16_00_00.GMT.2001.argus02a.c0.daytimex.rect.jpg
p15
aV869846400.Fri.Jul.25_16_00_00.GMT.1997.argus02.c0.daytimex.rect.jpg
p16
aV870796800.Tue.Aug.05_16_00_00.GMT.1997.argus02.c0.daytimex.rect.jpg
p17
aV871747200.Sat.Aug.16_16_00_00.GMT.1997.argus02.c0.daytimex.rect.jpg
p18
aV871920000.Mon.Aug.18_16_00_00.GMT.1997.argus02.c0.daytimex.rect.jpg
p19
aV872611200.Tue.Aug.26_16_00_00.GMT.1997.argus02.c0.daytimex.rect.jpg
p20
aV898531200.Mon.Jun.22_16_00_00.GMT.1998.argus02a.c0.daytimex.rect.jpg
p21
aV960566400.Fri.Jun.09_16_00_00.GMT.2000.argus02a.c0.daytimex.rect.jpg
p22
aV963417600.Wed.Jul.12_16_00_00.GMT.2000.argus02a.c0.daytimex.rect.jpg
p23
aV964972800.Sun.Jul.30_16_00_00.GMT.2000.argus02a.c0.daytimex.rect.jpg
p24
aV965059200.Mon.Jul.31_16_00_00.GMT.2000.argus02a.c0.daytimex.rect.jpg
p25
aV965577600.Sun.Aug.06_16_00_00.GMT.2000.argus02a.c0.daytimex.rect.jpg
p26
aV966873600.Mon.Aug.21_16_00_00.GMT.2000.argus02a.c0.daytimex.rect.jpg
p27
aV980096400.Sun.Jan.21_17_00_00.GMT.2001.argus02a.c0.daytimex.rect.jpg
p28
aV984934800.Sun.Mar.18_17_00_00.GMT.2001.argus02a.c0.daytimex.rect.jpg
p29
aV985539600.Sun.Mar.25_17_00_00.GMT.2001.argus02a.c0.daytimex.rect.jpg
p30
aV879526800.Fri.Nov.14_17_00_00.GMT.1997.argus02.c0.daytimex.rect.jpg
p31
aV879786000.Mon.Nov.17_17_00_00.GMT.1997.argus02a.c0.daytimex.rect.jpg
p32
aV888166800.Sun.Feb.22_17_00_00.GMT.1998.argus02a.c0.daytimex.rect.jpg
p33
aV893174400.Tue.Apr.21_16_00_00.GMT.1998.argus02a.c0.daytimex.rect.jpg
p34
aV894038400.Fri.May.01_16_00_00.GMT.1998.argus02a.c0.daytimex.rect.jpg
p35
aV896457600.Fri.May.29_16_00_00.GMT.1998.argus02a.c0.daytimex.rect.jpg
p36
aV896630400.Sun.May.31_16_00_00.GMT.1998.argus02a.c0.daytimex.rect.jpg
p37
aV896889600.Wed.Jun.03_16_00_00.GMT.1998.argus02a.c0.daytimex.rect.jpg
p38
aV896976000.Thu.Jun.04_16_00_00.GMT.1998.argus02a.c0.daytimex.rect.jpg
p39
aV900432000.Tue.Jul.14_16_00_00.GMT.1998.argus02a.c0.daytimex.rect.jpg
p40
aV902246400.Tue.Aug.04_16_00_00.GMT.1998.argus02a.c0.daytimex.rect.jpg
p41
aV910803600.Wed.Nov.11_17_00_00.GMT.1998.argus02a.c0.daytimex.rect.jpg
p42
aV911149200.Sun.Nov.15_17_00_00.GMT.1998.argus02a.c0.daytimex.rect.jpg
p43
aV930499200.Sun.Jun.27_16_00_00.GMT.1999.argus02a.c0.daytimex.rect.jpg
p44
aV941734800.Thu.Nov.04_17_00_00.GMT.1999.argus02a.c0.daytimex.rect.jpg
p45
aV750960000.Mon.Oct.18_16_00_00.GMT.1993.argus02.c0.daytimex.rect.jpg
p46
acnumpy.core.multiarray
scalar
p47
(cnumpy
dtype
p48
(S'U67'
p49
I0
I1
tp50
Rp51
(I3
S'<'
p52
NNNI268
I4
I8
tp53
bS'7\x00\x00\x005\x00\x00\x001\x00\x00\x009\x00\x00\x009\x00\x00\x006\x00\x00\x008\x00\x00\x000\x00\x00\x000\x00\x00\x00.\x00\x00\x00S\x00\x00\x00a\x00\x00\x00t\x00\x00\x00.\x00\x00\x00O\x00\x00\x00c\x00\x00\x00t\x00\x00\x00.\x00\x00\x003\x00\x00\x000\x00\x00\x00_\x00\x00\x001\x00\x00\x006\x00\x00\x00_\x00\x00\x000\x00\x00\x000\x00\x00\x00_\x00\x00\x000\x00\x00\x000\x00\x00\x00.\x00\x00\x00G\x00\x00\x00M\x00\x00\x00T\x00\x00\x00.\x00\x00\x001\x00\x00\x009\x00\x00\x009\x00\x00\x003\x00\x00\x00.\x00\x00\x00a\x00\x00\x00r\x00\x00\x00g\x00\x00\x00u\x00\x00\x00s\x00\x00\x000\x00\x00\x002\x00\x00\x00.\x00\x00\x00c\x00\x00\x000\x00\x00\x00.\x00\x00\x00d\x00\x00\x00a\x00\x00\x00y\x00\x00\x00t\x00\x00\x00i\x00\x00\x00m\x00\x00\x00e\x00\x00\x00x\x00\x00\x00.\x00\x00\x00r\x00\x00\x00e\x00\x00\x00c\x00\x00\x00t\x00\x00\x00.\x00\x00\x00j\x00\x00\x00p\x00\x00\x00g\x00\x00\x00'
p54
tp55
Rp56
aV788029200.Wed.Dec.21_17_00_00.GMT.1994.argus02.c0.daytimex.rect.jpg
p57
aV788893200.Sat.Dec.31_17_00_00.GMT.1994.argus02.c0.daytimex.rect.jpg
p58
aV796064400.Fri.Mar.24_17_00_00.GMT.1995.argus02.c0.daytimex.rect.jpg
p59
aV796410000.Tue.Mar.28_17_00_00.GMT.1995.argus02.c0.daytimex.rect.jpg
p60
aV799084800.Fri.Apr.28_16_00_00.GMT.1995.argus02.c0.daytimex.rect.jpg
p61
aV799689600.Fri.May.05_16_00_00.GMT.1995.argus02.c0.daytimex.rect.jpg
p62
aV809366400.Fri.Aug.25_16_00_00.GMT.1995.argus02.c0.daytimex.rect.jpg
p63
aV809539200.Sun.Aug.27_16_00_00.GMT.1995.argus02.c0.daytimex.rect.jpg
p64
aV809798400.Wed.Aug.30_16_00_00.GMT.1995.argus02.c0.daytimex.rect.jpg
p65
aV812908800.Thu.Oct.05_16_00_00.GMT.1995.argus02.c0.daytimex.rect.jpg
p66
aV813340800.Tue.Oct.10_16_00_00.GMT.1995.argus02.c0.daytimex.rect.jpg
p67
aV813859200.Mon.Oct.16_16_00_00.GMT.1995.argus02.c0.daytimex.rect.jpg
p68
aV861292800.Thu.Apr.17_16_00_00.GMT.1997.argus02.c0.daytimex.rect.jpg
p69
aV755888400.Tue.Dec.14_17_00_00.GMT.1993.argus02.c0.daytimex.rect.jpg
p70
aV755974800.Wed.Dec.15_17_00_00.GMT.1993.argus02.c0.daytimex.rect.jpg
p71
aV764701200.Sat.Mar.26_17_00_00.GMT.1994.argus02.c0.daytimex.rect.jpg
p72
aV768844800.Fri.May.13_16_00_00.GMT.1994.argus02.c0.daytimex.rect.jpg
p73
aV769190400.Tue.May.17_16_00_00.GMT.1994.argus02.c0.daytimex.rect.jpg
p74
aV769622400.Sun.May.22_16_00_00.GMT.1994.argus02.c0.daytimex.rect.jpg
p75
aV769708800.Mon.May.23_16_00_00.GMT.1994.argus02.c0.daytimex.rect.jpg
p76
aV769795200.Tue.May.24_16_00_00.GMT.1994.argus02.c0.daytimex.rect.jpg
p77
aV778176000.Mon.Aug.29_16_00_00.GMT.1994.argus02.c0.daytimex.rect.jpg
p78
aV780249600.Thu.Sep.22_16_00_00.GMT.1994.argus02.c0.daytimex.rect.jpg
p79
aV781632000.Sat.Oct.08_16_00_00.GMT.1994.argus02.c0.daytimex.rect.jpg
p80
aV786906000.Thu.Dec.08_17_00_00.GMT.1994.argus02.c0.daytimex.rect.jpg
p81
aV787856400.Mon.Dec.19_17_00_00.GMT.1994.argus02.c0.daytimex.rect.jpg
p82
aV791139600.Thu.Jan.26_17_00_00.GMT.1995.argus02.c0.daytimex.rect.jpg
p83
aV793213200.Sun.Feb.19_17_00_00.GMT.1995.argus02.c0.daytimex.rect.jpg
p84
aV932313600.Sun.Jul.18_16_00_00.GMT.1999.argus02a.c0.daytimex.rect.hflip.jpg
p85
aV932572800.Wed.Jul.21_16_00_00.GMT.1999.argus02a.c0.daytimex.rect.hflip.jpg
p86
aV933264000.Thu.Jul.29_16_00_00.GMT.1999.argus02a.c0.daytimex.rect.hflip.jpg
p87
aV933955200.Fri.Aug.06_16_00_00.GMT.1999.argus02a.c0.daytimex.rect.hflip.jpg
p88
aV934387200.Wed.Aug.11_16_00_00.GMT.1999.argus02a.c0.daytimex.rect.hflip.jpg
p89
aV934819200.Mon.Aug.16_16_00_00.GMT.1999.argus02a.c0.daytimex.rect.hflip.jpg
p90
aV934992000.Wed.Aug.18_16_00_00.GMT.1999.argus02a.c0.daytimex.rect.hflip.jpg
p91
aV963331200.Tue.Jul.11_16_00_00.GMT.2000.argus02a.c0.daytimex.rect.hflip.jpg
p92
aV965491200.Sat.Aug.05_16_00_00.GMT.2000.argus02a.c0.daytimex.rect.hflip.jpg
p93
aV965923200.Thu.Aug.10_16_00_00.GMT.2000.argus02a.c0.daytimex.rect.hflip.jpg
p94
aV992448000.Wed.Jun.13_16_00_00.GMT.2001.argus02a.c0.daytimex.rect.hflip.jpg
p95
aV992793600.Sun.Jun.17_16_00_00.GMT.2001.argus02a.c0.daytimex.rect.hflip.jpg
p96
aV993484800.Mon.Jun.25_16_00_00.GMT.2001.argus02a.c0.daytimex.rect.hflip.jpg
p97
aV994003200.Sun.Jul.01_16_00_00.GMT.2001.argus02a.c0.daytimex.rect.hflip.jpg
p98
aV994262400.Wed.Jul.04_16_00_00.GMT.2001.argus02a.c0.daytimex.rect.hflip.jpg
p99
aV869846400.Fri.Jul.25_16_00_00.GMT.1997.argus02.c0.daytimex.rect.hflip.jpg
p100
aV870796800.Tue.Aug.05_16_00_00.GMT.1997.argus02.c0.daytimex.rect.hflip.jpg
p101
aV871747200.Sat.Aug.16_16_00_00.GMT.1997.argus02.c0.daytimex.rect.hflip.jpg
p102
aV871920000.Mon.Aug.18_16_00_00.GMT.1997.argus02.c0.daytimex.rect.hflip.jpg
p103
aV872611200.Tue.Aug.26_16_00_00.GMT.1997.argus02.c0.daytimex.rect.hflip.jpg
p104
aV898531200.Mon.Jun.22_16_00_00.GMT.1998.argus02a.c0.daytimex.rect.hflip.jpg
p105
aV960566400.Fri.Jun.09_16_00_00.GMT.2000.argus02a.c0.daytimex.rect.hflip.jpg
p106
aV963417600.Wed.Jul.12_16_00_00.GMT.2000.argus02a.c0.daytimex.rect.hflip.jpg
p107
aV964972800.Sun.Jul.30_16_00_00.GMT.2000.argus02a.c0.daytimex.rect.hflip.jpg
p108
aV965059200.Mon.Jul.31_16_00_00.GMT.2000.argus02a.c0.daytimex.rect.hflip.jpg
p109
aV965577600.Sun.Aug.06_16_00_00.GMT.2000.argus02a.c0.daytimex.rect.hflip.jpg
p110
aV966873600.Mon.Aug.21_16_00_00.GMT.2000.argus02a.c0.daytimex.rect.hflip.jpg
p111
aV980096400.Sun.Jan.21_17_00_00.GMT.2001.argus02a.c0.daytimex.rect.hflip.jpg
p112
aV984934800.Sun.Mar.18_17_00_00.GMT.2001.argus02a.c0.daytimex.rect.hflip.jpg
p113
aV985539600.Sun.Mar.25_17_00_00.GMT.2001.argus02a.c0.daytimex.rect.hflip.jpg
p114
aV879526800.Fri.Nov.14_17_00_00.GMT.1997.argus02.c0.daytimex.rect.hflip.jpg
p115
aV879786000.Mon.Nov.17_17_00_00.GMT.1997.argus02a.c0.daytimex.rect.hflip.jpg
p116
aV888166800.Sun.Feb.22_17_00_00.GMT.1998.argus02a.c0.daytimex.rect.hflip.jpg
p117
aV893174400.Tue.Apr.21_16_00_00.GMT.1998.argus02a.c0.daytimex.rect.hflip.jpg
p118
aV894038400.Fri.May.01_16_00_00.GMT.1998.argus02a.c0.daytimex.rect.hflip.jpg
p119
aV896457600.Fri.May.29_16_00_00.GMT.1998.argus02a.c0.daytimex.rect.hflip.jpg
p120
aV896630400.Sun.May.31_16_00_00.GMT.1998.argus02a.c0.daytimex.rect.hflip.jpg
p121
aV896889600.Wed.Jun.03_16_00_00.GMT.1998.argus02a.c0.daytimex.rect.hflip.jpg
p122
aV896976000.Thu.Jun.04_16_00_00.GMT.1998.argus02a.c0.daytimex.rect.hflip.jpg
p123
aV900432000.Tue.Jul.14_16_00_00.GMT.1998.argus02a.c0.daytimex.rect.hflip.jpg
p124
aV902246400.Tue.Aug.04_16_00_00.GMT.1998.argus02a.c0.daytimex.rect.hflip.jpg
p125
aV910803600.Wed.Nov.11_17_00_00.GMT.1998.argus02a.c0.daytimex.rect.hflip.jpg
p126
aV911149200.Sun.Nov.15_17_00_00.GMT.1998.argus02a.c0.daytimex.rect.hflip.jpg
p127
aV930499200.Sun.Jun.27_16_00_00.GMT.1999.argus02a.c0.daytimex.rect.hflip.jpg
p128
aV941734800.Thu.Nov.04_17_00_00.GMT.1999.argus02a.c0.daytimex.rect.hflip.jpg
p129
aV750960000.Mon.Oct.18_16_00_00.GMT.1993.argus02.c0.daytimex.rect.hflip.jpg
p130
aV751996800.Sat.Oct.30_16_00_00.GMT.1993.argus02.c0.daytimex.rect.hflip.jpg
p131
aV788029200.Wed.Dec.21_17_00_00.GMT.1994.argus02.c0.daytimex.rect.hflip.jpg
p132
aV788893200.Sat.Dec.31_17_00_00.GMT.1994.argus02.c0.daytimex.rect.hflip.jpg
p133
aV796064400.Fri.Mar.24_17_00_00.GMT.1995.argus02.c0.daytimex.rect.hflip.jpg
p134
aV796410000.Tue.Mar.28_17_00_00.GMT.1995.argus02.c0.daytimex.rect.hflip.jpg
p135
aV799084800.Fri.Apr.28_16_00_00.GMT.1995.argus02.c0.daytimex.rect.hflip.jpg
p136
aV799689600.Fri.May.05_16_00_00.GMT.1995.argus02.c0.daytimex.rect.hflip.jpg
p137
aV809366400.Fri.Aug.25_16_00_00.GMT.1995.argus02.c0.daytimex.rect.hflip.jpg
p138
aV809539200.Sun.Aug.27_16_00_00.GMT.1995.argus02.c0.daytimex.rect.hflip.jpg
p139
aV809798400.Wed.Aug.30_16_00_00.GMT.1995.argus02.c0.daytimex.rect.hflip.jpg
p140
aV812908800.Thu.Oct.05_16_00_00.GMT.1995.argus02.c0.daytimex.rect.hflip.jpg
p141
aV813340800.Tue.Oct.10_16_00_00.GMT.1995.argus02.c0.daytimex.rect.hflip.jpg
p142
aV813859200.Mon.Oct.16_16_00_00.GMT.1995.argus02.c0.daytimex.rect.hflip.jpg
p143
aV861292800.Thu.Apr.17_16_00_00.GMT.1997.argus02.c0.daytimex.rect.hflip.jpg
p144
aV755888400.Tue.Dec.14_17_00_00.GMT.1993.argus02.c0.daytimex.rect.hflip.jpg
p145
aV755974800.Wed.Dec.15_17_00_00.GMT.1993.argus02.c0.daytimex.rect.hflip.jpg
p146
aV764701200.Sat.Mar.26_17_00_00.GMT.1994.argus02.c0.daytimex.rect.hflip.jpg
p147
aV768844800.Fri.May.13_16_00_00.GMT.1994.argus02.c0.daytimex.rect.hflip.jpg
p148
aV769190400.Tue.May.17_16_00_00.GMT.1994.argus02.c0.daytimex.rect.hflip.jpg
p149
aV769622400.Sun.May.22_16_00_00.GMT.1994.argus02.c0.daytimex.rect.hflip.jpg
p150
aV769708800.Mon.May.23_16_00_00.GMT.1994.argus02.c0.daytimex.rect.hflip.jpg
p151
aV769795200.Tue.May.24_16_00_00.GMT.1994.argus02.c0.daytimex.rect.hflip.jpg
p152
aV778176000.Mon.Aug.29_16_00_00.GMT.1994.argus02.c0.daytimex.rect.hflip.jpg
p153
aV780249600.Thu.Sep.22_16_00_00.GMT.1994.argus02.c0.daytimex.rect.hflip.jpg
p154
aV781632000.Sat.Oct.08_16_00_00.GMT.1994.argus02.c0.daytimex.rect.hflip.jpg
p155
aV786906000.Thu.Dec.08_17_00_00.GMT.1994.argus02.c0.daytimex.rect.hflip.jpg
p156
aV787856400.Mon.Dec.19_17_00_00.GMT.1994.argus02.c0.daytimex.rect.hflip.jpg
p157
aV791139600.Thu.Jan.26_17_00_00.GMT.1995.argus02.c0.daytimex.rect.hflip.jpg
p158
aV793213200.Sun.Feb.19_17_00_00.GMT.1995.argus02.c0.daytimex.rect.hflip.jpg
p159
aV932313600.Sun.Jul.18_16_00_00.GMT.1999.argus02a.c0.daytimex.rect.vflip.jpg
p160
aV932572800.Wed.Jul.21_16_00_00.GMT.1999.argus02a.c0.daytimex.rect.vflip.jpg
p161
aV933264000.Thu.Jul.29_16_00_00.GMT.1999.argus02a.c0.daytimex.rect.vflip.jpg
p162
aV933955200.Fri.Aug.06_16_00_00.GMT.1999.argus02a.c0.daytimex.rect.vflip.jpg
p163
aV934387200.Wed.Aug.11_16_00_00.GMT.1999.argus02a.c0.daytimex.rect.vflip.jpg
p164
aV934819200.Mon.Aug.16_16_00_00.GMT.1999.argus02a.c0.daytimex.rect.vflip.jpg
p165
aV934992000.Wed.Aug.18_16_00_00.GMT.1999.argus02a.c0.daytimex.rect.vflip.jpg
p166
aV963331200.Tue.Jul.11_16_00_00.GMT.2000.argus02a.c0.daytimex.rect.vflip.jpg
p167
aV965491200.Sat.Aug.05_16_00_00.GMT.2000.argus02a.c0.daytimex.rect.vflip.jpg
p168
aV965923200.Thu.Aug.10_16_00_00.GMT.2000.argus02a.c0.daytimex.rect.vflip.jpg
p169
aV992448000.Wed.Jun.13_16_00_00.GMT.2001.argus02a.c0.daytimex.rect.vflip.jpg
p170
aV992793600.Sun.Jun.17_16_00_00.GMT.2001.argus02a.c0.daytimex.rect.vflip.jpg
p171
aV993484800.Mon.Jun.25_16_00_00.GMT.2001.argus02a.c0.daytimex.rect.vflip.jpg
p172
aV994003200.Sun.Jul.01_16_00_00.GMT.2001.argus02a.c0.daytimex.rect.vflip.jpg
p173
aV994262400.Wed.Jul.04_16_00_00.GMT.2001.argus02a.c0.daytimex.rect.vflip.jpg
p174
aV869846400.Fri.Jul.25_16_00_00.GMT.1997.argus02.c0.daytimex.rect.vflip.jpg
p175
aV870796800.Tue.Aug.05_16_00_00.GMT.1997.argus02.c0.daytimex.rect.vflip.jpg
p176
aV871747200.Sat.Aug.16_16_00_00.GMT.1997.argus02.c0.daytimex.rect.vflip.jpg
p177
aV871920000.Mon.Aug.18_16_00_00.GMT.1997.argus02.c0.daytimex.rect.vflip.jpg
p178
aV872611200.Tue.Aug.26_16_00_00.GMT.1997.argus02.c0.daytimex.rect.vflip.jpg
p179
aV898531200.Mon.Jun.22_16_00_00.GMT.1998.argus02a.c0.daytimex.rect.vflip.jpg
p180
aV960566400.Fri.Jun.09_16_00_00.GMT.2000.argus02a.c0.daytimex.rect.vflip.jpg
p181
aV963417600.Wed.Jul.12_16_00_00.GMT.2000.argus02a.c0.daytimex.rect.vflip.jpg
p182
aV964972800.Sun.Jul.30_16_00_00.GMT.2000.argus02a.c0.daytimex.rect.vflip.jpg
p183
aV965059200.Mon.Jul.31_16_00_00.GMT.2000.argus02a.c0.daytimex.rect.vflip.jpg
p184
aV965577600.Sun.Aug.06_16_00_00.GMT.2000.argus02a.c0.daytimex.rect.vflip.jpg
p185
aV966873600.Mon.Aug.21_16_00_00.GMT.2000.argus02a.c0.daytimex.rect.vflip.jpg
p186
aV980096400.Sun.Jan.21_17_00_00.GMT.2001.argus02a.c0.daytimex.rect.vflip.jpg
p187
aV984934800.Sun.Mar.18_17_00_00.GMT.2001.argus02a.c0.daytimex.rect.vflip.jpg
p188
aV985539600.Sun.Mar.25_17_00_00.GMT.2001.argus02a.c0.daytimex.rect.vflip.jpg
p189
aV879526800.Fri.Nov.14_17_00_00.GMT.1997.argus02.c0.daytimex.rect.vflip.jpg
p190
aV879786000.Mon.Nov.17_17_00_00.GMT.1997.argus02a.c0.daytimex.rect.vflip.jpg
p191
aV888166800.Sun.Feb.22_17_00_00.GMT.1998.argus02a.c0.daytimex.rect.vflip.jpg
p192
aV893174400.Tue.Apr.21_16_00_00.GMT.1998.argus02a.c0.daytimex.rect.vflip.jpg
p193
aV894038400.Fri.May.01_16_00_00.GMT.1998.argus02a.c0.daytimex.rect.vflip.jpg
p194
aV896457600.Fri.May.29_16_00_00.GMT.1998.argus02a.c0.daytimex.rect.vflip.jpg
p195
aV896630400.Sun.May.31_16_00_00.GMT.1998.argus02a.c0.daytimex.rect.vflip.jpg
p196
aV896889600.Wed.Jun.03_16_00_00.GMT.1998.argus02a.c0.daytimex.rect.vflip.jpg
p197
aV896976000.Thu.Jun.04_16_00_00.GMT.1998.argus02a.c0.daytimex.rect.vflip.jpg
p198
aV900432000.Tue.Jul.14_16_00_00.GMT.1998.argus02a.c0.daytimex.rect.vflip.jpg
p199
aV902246400.Tue.Aug.04_16_00_00.GMT.1998.argus02a.c0.daytimex.rect.vflip.jpg
p200
aV910803600.Wed.Nov.11_17_00_00.GMT.1998.argus02a.c0.daytimex.rect.vflip.jpg
p201
aV911149200.Sun.Nov.15_17_00_00.GMT.1998.argus02a.c0.daytimex.rect.vflip.jpg
p202
aV930499200.Sun.Jun.27_16_00_00.GMT.1999.argus02a.c0.daytimex.rect.vflip.jpg
p203
aV941734800.Thu.Nov.04_17_00_00.GMT.1999.argus02a.c0.daytimex.rect.vflip.jpg
p204
aV750960000.Mon.Oct.18_16_00_00.GMT.1993.argus02.c0.daytimex.rect.vflip.jpg
p205
aV751996800.Sat.Oct.30_16_00_00.GMT.1993.argus02.c0.daytimex.rect.vflip.jpg
p206
aV788029200.Wed.Dec.21_17_00_00.GMT.1994.argus02.c0.daytimex.rect.vflip.jpg
p207
aV788893200.Sat.Dec.31_17_00_00.GMT.1994.argus02.c0.daytimex.rect.vflip.jpg
p208
aV796064400.Fri.Mar.24_17_00_00.GMT.1995.argus02.c0.daytimex.rect.vflip.jpg
p209
aV796410000.Tue.Mar.28_17_00_00.GMT.1995.argus02.c0.daytimex.rect.vflip.jpg
p210
aV799084800.Fri.Apr.28_16_00_00.GMT.1995.argus02.c0.daytimex.rect.vflip.jpg
p211
aV799689600.Fri.May.05_16_00_00.GMT.1995.argus02.c0.daytimex.rect.vflip.jpg
p212
aV809366400.Fri.Aug.25_16_00_00.GMT.1995.argus02.c0.daytimex.rect.vflip.jpg
p213
aV809539200.Sun.Aug.27_16_00_00.GMT.1995.argus02.c0.daytimex.rect.vflip.jpg
p214
aV809798400.Wed.Aug.30_16_00_00.GMT.1995.argus02.c0.daytimex.rect.vflip.jpg
p215
aV812908800.Thu.Oct.05_16_00_00.GMT.1995.argus02.c0.daytimex.rect.vflip.jpg
p216
aV813340800.Tue.Oct.10_16_00_00.GMT.1995.argus02.c0.daytimex.rect.vflip.jpg
p217
aV813859200.Mon.Oct.16_16_00_00.GMT.1995.argus02.c0.daytimex.rect.vflip.jpg
p218
aV861292800.Thu.Apr.17_16_00_00.GMT.1997.argus02.c0.daytimex.rect.vflip.jpg
p219
aV755888400.Tue.Dec.14_17_00_00.GMT.1993.argus02.c0.daytimex.rect.vflip.jpg
p220
aV755974800.Wed.Dec.15_17_00_00.GMT.1993.argus02.c0.daytimex.rect.vflip.jpg
p221
aV764701200.Sat.Mar.26_17_00_00.GMT.1994.argus02.c0.daytimex.rect.vflip.jpg
p222
aV768844800.Fri.May.13_16_00_00.GMT.1994.argus02.c0.daytimex.rect.vflip.jpg
p223
aV769190400.Tue.May.17_16_00_00.GMT.1994.argus02.c0.daytimex.rect.vflip.jpg
p224
aV769622400.Sun.May.22_16_00_00.GMT.1994.argus02.c0.daytimex.rect.vflip.jpg
p225
aV769708800.Mon.May.23_16_00_00.GMT.1994.argus02.c0.daytimex.rect.vflip.jpg
p226
aV769795200.Tue.May.24_16_00_00.GMT.1994.argus02.c0.daytimex.rect.vflip.jpg
p227
aV778176000.Mon.Aug.29_16_00_00.GMT.1994.argus02.c0.daytimex.rect.vflip.jpg
p228
aV780249600.Thu.Sep.22_16_00_00.GMT.1994.argus02.c0.daytimex.rect.vflip.jpg
p229
aV781632000.Sat.Oct.08_16_00_00.GMT.1994.argus02.c0.daytimex.rect.vflip.jpg
p230
aV786906000.Thu.Dec.08_17_00_00.GMT.1994.argus02.c0.daytimex.rect.vflip.jpg
p231
aV787856400.Mon.Dec.19_17_00_00.GMT.1994.argus02.c0.daytimex.rect.vflip.jpg
p232
aV791139600.Thu.Jan.26_17_00_00.GMT.1995.argus02.c0.daytimex.rect.vflip.jpg
p233
aV793213200.Sun.Feb.19_17_00_00.GMT.1995.argus02.c0.daytimex.rect.vflip.jpg
p234
aV932313600.Sun.Jul.18_16_00_00.GMT.1999.argus02a.c0.daytimex.rect.rot.jpg
p235
aV932572800.Wed.Jul.21_16_00_00.GMT.1999.argus02a.c0.daytimex.rect.rot.jpg
p236
aV933264000.Thu.Jul.29_16_00_00.GMT.1999.argus02a.c0.daytimex.rect.rot.jpg
p237
aV933955200.Fri.Aug.06_16_00_00.GMT.1999.argus02a.c0.daytimex.rect.rot.jpg
p238
aV934387200.Wed.Aug.11_16_00_00.GMT.1999.argus02a.c0.daytimex.rect.rot.jpg
p239
aV934819200.Mon.Aug.16_16_00_00.GMT.1999.argus02a.c0.daytimex.rect.rot.jpg
p240
aV934992000.Wed.Aug.18_16_00_00.GMT.1999.argus02a.c0.daytimex.rect.rot.jpg
p241
aV963331200.Tue.Jul.11_16_00_00.GMT.2000.argus02a.c0.daytimex.rect.rot.jpg
p242
aV965491200.Sat.Aug.05_16_00_00.GMT.2000.argus02a.c0.daytimex.rect.rot.jpg
p243
aV965923200.Thu.Aug.10_16_00_00.GMT.2000.argus02a.c0.daytimex.rect.rot.jpg
p244
aV992448000.Wed.Jun.13_16_00_00.GMT.2001.argus02a.c0.daytimex.rect.rot.jpg
p245
aV992793600.Sun.Jun.17_16_00_00.GMT.2001.argus02a.c0.daytimex.rect.rot.jpg
p246
aV993484800.Mon.Jun.25_16_00_00.GMT.2001.argus02a.c0.daytimex.rect.rot.jpg
p247
aV994003200.Sun.Jul.01_16_00_00.GMT.2001.argus02a.c0.daytimex.rect.rot.jpg
p248
aV994262400.Wed.Jul.04_16_00_00.GMT.2001.argus02a.c0.daytimex.rect.rot.jpg
p249
aV869846400.Fri.Jul.25_16_00_00.GMT.1997.argus02.c0.daytimex.rect.rot.jpg
p250
aV870796800.Tue.Aug.05_16_00_00.GMT.1997.argus02.c0.daytimex.rect.rot.jpg
p251
aV871747200.Sat.Aug.16_16_00_00.GMT.1997.argus02.c0.daytimex.rect.rot.jpg
p252
aV871920000.Mon.Aug.18_16_00_00.GMT.1997.argus02.c0.daytimex.rect.rot.jpg
p253
aV872611200.Tue.Aug.26_16_00_00.GMT.1997.argus02.c0.daytimex.rect.rot.jpg
p254
aV898531200.Mon.Jun.22_16_00_00.GMT.1998.argus02a.c0.daytimex.rect.rot.jpg
p255
aV960566400.Fri.Jun.09_16_00_00.GMT.2000.argus02a.c0.daytimex.rect.rot.jpg
p256
aV963417600.Wed.Jul.12_16_00_00.GMT.2000.argus02a.c0.daytimex.rect.rot.jpg
p257
aV964972800.Sun.Jul.30_16_00_00.GMT.2000.argus02a.c0.daytimex.rect.rot.jpg
p258
aV965059200.Mon.Jul.31_16_00_00.GMT.2000.argus02a.c0.daytimex.rect.rot.jpg
p259
aV965577600.Sun.Aug.06_16_00_00.GMT.2000.argus02a.c0.daytimex.rect.rot.jpg
p260
aV966873600.Mon.Aug.21_16_00_00.GMT.2000.argus02a.c0.daytimex.rect.rot.jpg
p261
aV980096400.Sun.Jan.21_17_00_00.GMT.2001.argus02a.c0.daytimex.rect.rot.jpg
p262
aV984934800.Sun.Mar.18_17_00_00.GMT.2001.argus02a.c0.daytimex.rect.rot.jpg
p263
aV985539600.Sun.Mar.25_17_00_00.GMT.2001.argus02a.c0.daytimex.rect.rot.jpg
p264
aV879526800.Fri.Nov.14_17_00_00.GMT.1997.argus02.c0.daytimex.rect.rot.jpg
p265
aV879786000.Mon.Nov.17_17_00_00.GMT.1997.argus02a.c0.daytimex.rect.rot.jpg
p266
aV888166800.Sun.Feb.22_17_00_00.GMT.1998.argus02a.c0.daytimex.rect.rot.jpg
p267
aV893174400.Tue.Apr.21_16_00_00.GMT.1998.argus02a.c0.daytimex.rect.rot.jpg
p268
aV894038400.Fri.May.01_16_00_00.GMT.1998.argus02a.c0.daytimex.rect.rot.jpg
p269
aV896457600.Fri.May.29_16_00_00.GMT.1998.argus02a.c0.daytimex.rect.rot.jpg
p270
aV896630400.Sun.May.31_16_00_00.GMT.1998.argus02a.c0.daytimex.rect.rot.jpg
p271
aV896889600.Wed.Jun.03_16_00_00.GMT.1998.argus02a.c0.daytimex.rect.rot.jpg
p272
aV896976000.Thu.Jun.04_16_00_00.GMT.1998.argus02a.c0.daytimex.rect.rot.jpg
p273
aV900432000.Tue.Jul.14_16_00_00.GMT.1998.argus02a.c0.daytimex.rect.rot.jpg
p274
aV902246400.Tue.Aug.04_16_00_00.GMT.1998.argus02a.c0.daytimex.rect.rot.jpg
p275
aV910803600.Wed.Nov.11_17_00_00.GMT.1998.argus02a.c0.daytimex.rect.rot.jpg
p276
aV911149200.Sun.Nov.15_17_00_00.GMT.1998.argus02a.c0.daytimex.rect.rot.jpg
p277
aV930499200.Sun.Jun.27_16_00_00.GMT.1999.argus02a.c0.daytimex.rect.rot.jpg
p278
aV941734800.Thu.Nov.04_17_00_00.GMT.1999.argus02a.c0.daytimex.rect.rot.jpg
p279
aV750960000.Mon.Oct.18_16_00_00.GMT.1993.argus02.c0.daytimex.rect.rot.jpg
p280
aV751996800.Sat.Oct.30_16_00_00.GMT.1993.argus02.c0.daytimex.rect.rot.jpg
p281
aV788029200.Wed.Dec.21_17_00_00.GMT.1994.argus02.c0.daytimex.rect.rot.jpg
p282
aV788893200.Sat.Dec.31_17_00_00.GMT.1994.argus02.c0.daytimex.rect.rot.jpg
p283
aV796064400.Fri.Mar.24_17_00_00.GMT.1995.argus02.c0.daytimex.rect.rot.jpg
p284
aV796410000.Tue.Mar.28_17_00_00.GMT.1995.argus02.c0.daytimex.rect.rot.jpg
p285
aV799084800.Fri.Apr.28_16_00_00.GMT.1995.argus02.c0.daytimex.rect.rot.jpg
p286
aV799689600.Fri.May.05_16_00_00.GMT.1995.argus02.c0.daytimex.rect.rot.jpg
p287
aV809366400.Fri.Aug.25_16_00_00.GMT.1995.argus02.c0.daytimex.rect.rot.jpg
p288
aV809539200.Sun.Aug.27_16_00_00.GMT.1995.argus02.c0.daytimex.rect.rot.jpg
p289
aV809798400.Wed.Aug.30_16_00_00.GMT.1995.argus02.c0.daytimex.rect.rot.jpg
p290
aV812908800.Thu.Oct.05_16_00_00.GMT.1995.argus02.c0.daytimex.rect.rot.jpg
p291
aV813340800.Tue.Oct.10_16_00_00.GMT.1995.argus02.c0.daytimex.rect.rot.jpg
p292
aV813859200.Mon.Oct.16_16_00_00.GMT.1995.argus02.c0.daytimex.rect.rot.jpg
p293
aV861292800.Thu.Apr.17_16_00_00.GMT.1997.argus02.c0.daytimex.rect.rot.jpg
p294
aV755888400.Tue.Dec.14_17_00_00.GMT.1993.argus02.c0.daytimex.rect.rot.jpg
p295
aV755974800.Wed.Dec.15_17_00_00.GMT.1993.argus02.c0.daytimex.rect.rot.jpg
p296
aV764701200.Sat.Mar.26_17_00_00.GMT.1994.argus02.c0.daytimex.rect.rot.jpg
p297
aV768844800.Fri.May.13_16_00_00.GMT.1994.argus02.c0.daytimex.rect.rot.jpg
p298
aV769190400.Tue.May.17_16_00_00.GMT.1994.argus02.c0.daytimex.rect.rot.jpg
p299
aV769622400.Sun.May.22_16_00_00.GMT.1994.argus02.c0.daytimex.rect.rot.jpg
p300
aV769708800.Mon.May.23_16_00_00.GMT.1994.argus02.c0.daytimex.rect.rot.jpg
p301
aV769795200.Tue.May.24_16_00_00.GMT.1994.argus02.c0.daytimex.rect.rot.jpg
p302
aV778176000.Mon.Aug.29_16_00_00.GMT.1994.argus02.c0.daytimex.rect.rot.jpg
p303
aV780249600.Thu.Sep.22_16_00_00.GMT.1994.argus02.c0.daytimex.rect.rot.jpg
p304
aV781632000.Sat.Oct.08_16_00_00.GMT.1994.argus02.c0.daytimex.rect.rot.jpg
p305
aV786906000.Thu.Dec.08_17_00_00.GMT.1994.argus02.c0.daytimex.rect.rot.jpg
p306
aV787856400.Mon.Dec.19_17_00_00.GMT.1994.argus02.c0.daytimex.rect.rot.jpg
p307
aV791139600.Thu.Jan.26_17_00_00.GMT.1995.argus02.c0.daytimex.rect.rot.jpg
p308
aV793213200.Sun.Feb.19_17_00_00.GMT.1995.argus02.c0.daytimex.rect.rot.jpg
p309
aV932313600.Sun.Jul.18_16_00_00.GMT.1999.argus02a.c0.daytimex.rect.erase.jpg
p310
aV932572800.Wed.Jul.21_16_00_00.GMT.1999.argus02a.c0.daytimex.rect.erase.jpg
p311
aV933264000.Thu.Jul.29_16_00_00.GMT.1999.argus02a.c0.daytimex.rect.erase.jpg
p312
aV933955200.Fri.Aug.06_16_00_00.GMT.1999.argus02a.c0.daytimex.rect.erase.jpg
p313
aV934387200.Wed.Aug.11_16_00_00.GMT.1999.argus02a.c0.daytimex.rect.erase.jpg
p314
aV934819200.Mon.Aug.16_16_00_00.GMT.1999.argus02a.c0.daytimex.rect.erase.jpg
p315
aV934992000.Wed.Aug.18_16_00_00.GMT.1999.argus02a.c0.daytimex.rect.erase.jpg
p316
aV963331200.Tue.Jul.11_16_00_00.GMT.2000.argus02a.c0.daytimex.rect.erase.jpg
p317
aV965491200.Sat.Aug.05_16_00_00.GMT.2000.argus02a.c0.daytimex.rect.erase.jpg
p318
aV965923200.Thu.Aug.10_16_00_00.GMT.2000.argus02a.c0.daytimex.rect.erase.jpg
p319
aV992448000.Wed.Jun.13_16_00_00.GMT.2001.argus02a.c0.daytimex.rect.erase.jpg
p320
aV992793600.Sun.Jun.17_16_00_00.GMT.2001.argus02a.c0.daytimex.rect.erase.jpg
p321
aV993484800.Mon.Jun.25_16_00_00.GMT.2001.argus02a.c0.daytimex.rect.erase.jpg
p322
aV994003200.Sun.Jul.01_16_00_00.GMT.2001.argus02a.c0.daytimex.rect.erase.jpg
p323
aV994262400.Wed.Jul.04_16_00_00.GMT.2001.argus02a.c0.daytimex.rect.erase.jpg
p324
aV869846400.Fri.Jul.25_16_00_00.GMT.1997.argus02.c0.daytimex.rect.erase.jpg
p325
aV870796800.Tue.Aug.05_16_00_00.GMT.1997.argus02.c0.daytimex.rect.erase.jpg
p326
aV871747200.Sat.Aug.16_16_00_00.GMT.1997.argus02.c0.daytimex.rect.erase.jpg
p327
aV871920000.Mon.Aug.18_16_00_00.GMT.1997.argus02.c0.daytimex.rect.erase.jpg
p328
aV872611200.Tue.Aug.26_16_00_00.GMT.1997.argus02.c0.daytimex.rect.erase.jpg
p329
aV898531200.Mon.Jun.22_16_00_00.GMT.1998.argus02a.c0.daytimex.rect.erase.jpg
p330
aV960566400.Fri.Jun.09_16_00_00.GMT.2000.argus02a.c0.daytimex.rect.erase.jpg
p331
aV963417600.Wed.Jul.12_16_00_00.GMT.2000.argus02a.c0.daytimex.rect.erase.jpg
p332
aV964972800.Sun.Jul.30_16_00_00.GMT.2000.argus02a.c0.daytimex.rect.erase.jpg
p333
aV965059200.Mon.Jul.31_16_00_00.GMT.2000.argus02a.c0.daytimex.rect.erase.jpg
p334
aV965577600.Sun.Aug.06_16_00_00.GMT.2000.argus02a.c0.daytimex.rect.erase.jpg
p335
aV966873600.Mon.Aug.21_16_00_00.GMT.2000.argus02a.c0.daytimex.rect.erase.jpg
p336
aV980096400.Sun.Jan.21_17_00_00.GMT.2001.argus02a.c0.daytimex.rect.erase.jpg
p337
aV984934800.Sun.Mar.18_17_00_00.GMT.2001.argus02a.c0.daytimex.rect.erase.jpg
p338
aV985539600.Sun.Mar.25_17_00_00.GMT.2001.argus02a.c0.daytimex.rect.erase.jpg
p339
aV879526800.Fri.Nov.14_17_00_00.GMT.1997.argus02.c0.daytimex.rect.erase.jpg
p340
aV879786000.Mon.Nov.17_17_00_00.GMT.1997.argus02a.c0.daytimex.rect.erase.jpg
p341
aV888166800.Sun.Feb.22_17_00_00.GMT.1998.argus02a.c0.daytimex.rect.erase.jpg
p342
aV893174400.Tue.Apr.21_16_00_00.GMT.1998.argus02a.c0.daytimex.rect.erase.jpg
p343
aV894038400.Fri.May.01_16_00_00.GMT.1998.argus02a.c0.daytimex.rect.erase.jpg
p344
aV896457600.Fri.May.29_16_00_00.GMT.1998.argus02a.c0.daytimex.rect.erase.jpg
p345
aV896630400.Sun.May.31_16_00_00.GMT.1998.argus02a.c0.daytimex.rect.erase.jpg
p346
aV896889600.Wed.Jun.03_16_00_00.GMT.1998.argus02a.c0.daytimex.rect.erase.jpg
p347
aV896976000.Thu.Jun.04_16_00_00.GMT.1998.argus02a.c0.daytimex.rect.erase.jpg
p348
aV900432000.Tue.Jul.14_16_00_00.GMT.1998.argus02a.c0.daytimex.rect.erase.jpg
p349
aV902246400.Tue.Aug.04_16_00_00.GMT.1998.argus02a.c0.daytimex.rect.erase.jpg
p350
aV910803600.Wed.Nov.11_17_00_00.GMT.1998.argus02a.c0.daytimex.rect.erase.jpg
p351
aV911149200.Sun.Nov.15_17_00_00.GMT.1998.argus02a.c0.daytimex.rect.erase.jpg
p352
aV930499200.Sun.Jun.27_16_00_00.GMT.1999.argus02a.c0.daytimex.rect.erase.jpg
p353
aV941734800.Thu.Nov.04_17_00_00.GMT.1999.argus02a.c0.daytimex.rect.erase.jpg
p354
aV750960000.Mon.Oct.18_16_00_00.GMT.1993.argus02.c0.daytimex.rect.erase.jpg
p355
aV751996800.Sat.Oct.30_16_00_00.GMT.1993.argus02.c0.daytimex.rect.erase.jpg
p356
aV788029200.Wed.Dec.21_17_00_00.GMT.1994.argus02.c0.daytimex.rect.erase.jpg
p357
aV788893200.Sat.Dec.31_17_00_00.GMT.1994.argus02.c0.daytimex.rect.erase.jpg
p358
aV796064400.Fri.Mar.24_17_00_00.GMT.1995.argus02.c0.daytimex.rect.erase.jpg
p359
aV796410000.Tue.Mar.28_17_00_00.GMT.1995.argus02.c0.daytimex.rect.erase.jpg
p360
aV799084800.Fri.Apr.28_16_00_00.GMT.1995.argus02.c0.daytimex.rect.erase.jpg
p361
aV799689600.Fri.May.05_16_00_00.GMT.1995.argus02.c0.daytimex.rect.erase.jpg
p362
aV809366400.Fri.Aug.25_16_00_00.GMT.1995.argus02.c0.daytimex.rect.erase.jpg
p363
aV809539200.Sun.Aug.27_16_00_00.GMT.1995.argus02.c0.daytimex.rect.erase.jpg
p364
aV809798400.Wed.Aug.30_16_00_00.GMT.1995.argus02.c0.daytimex.rect.erase.jpg
p365
aV812908800.Thu.Oct.05_16_00_00.GMT.1995.argus02.c0.daytimex.rect.erase.jpg
p366
aV813340800.Tue.Oct.10_16_00_00.GMT.1995.argus02.c0.daytimex.rect.erase.jpg
p367
aV813859200.Mon.Oct.16_16_00_00.GMT.1995.argus02.c0.daytimex.rect.erase.jpg
p368
aV861292800.Thu.Apr.17_16_00_00.GMT.1997.argus02.c0.daytimex.rect.erase.jpg
p369
aV755888400.Tue.Dec.14_17_00_00.GMT.1993.argus02.c0.daytimex.rect.erase.jpg
p370
aV755974800.Wed.Dec.15_17_00_00.GMT.1993.argus02.c0.daytimex.rect.erase.jpg
p371
aV764701200.Sat.Mar.26_17_00_00.GMT.1994.argus02.c0.daytimex.rect.erase.jpg
p372
aV768844800.Fri.May.13_16_00_00.GMT.1994.argus02.c0.daytimex.rect.erase.jpg
p373
aV769190400.Tue.May.17_16_00_00.GMT.1994.argus02.c0.daytimex.rect.erase.jpg
p374
aV769622400.Sun.May.22_16_00_00.GMT.1994.argus02.c0.daytimex.rect.erase.jpg
p375
aV769708800.Mon.May.23_16_00_00.GMT.1994.argus02.c0.daytimex.rect.erase.jpg
p376
aV769795200.Tue.May.24_16_00_00.GMT.1994.argus02.c0.daytimex.rect.erase.jpg
p377
aV778176000.Mon.Aug.29_16_00_00.GMT.1994.argus02.c0.daytimex.rect.erase.jpg
p378
aV780249600.Thu.Sep.22_16_00_00.GMT.1994.argus02.c0.daytimex.rect.erase.jpg
p379
aV781632000.Sat.Oct.08_16_00_00.GMT.1994.argus02.c0.daytimex.rect.erase.jpg
p380
aV786906000.Thu.Dec.08_17_00_00.GMT.1994.argus02.c0.daytimex.rect.erase.jpg
p381
aV787856400.Mon.Dec.19_17_00_00.GMT.1994.argus02.c0.daytimex.rect.erase.jpg
p382
aV791139600.Thu.Jan.26_17_00_00.GMT.1995.argus02.c0.daytimex.rect.erase.jpg
p383
aV793213200.Sun.Feb.19_17_00_00.GMT.1995.argus02.c0.daytimex.rect.erase.jpg
p384
aV932313600.Sun.Jul.18_16_00_00.GMT.1999.argus02a.c0.daytimex.rect.gamma.jpg
p385
aV932572800.Wed.Jul.21_16_00_00.GMT.1999.argus02a.c0.daytimex.rect.gamma.jpg
p386
aV933264000.Thu.Jul.29_16_00_00.GMT.1999.argus02a.c0.daytimex.rect.gamma.jpg
p387
aV933955200.Fri.Aug.06_16_00_00.GMT.1999.argus02a.c0.daytimex.rect.gamma.jpg
p388
aV934387200.Wed.Aug.11_16_00_00.GMT.1999.argus02a.c0.daytimex.rect.gamma.jpg
p389
aV934819200.Mon.Aug.16_16_00_00.GMT.1999.argus02a.c0.daytimex.rect.gamma.jpg
p390
aV934992000.Wed.Aug.18_16_00_00.GMT.1999.argus02a.c0.daytimex.rect.gamma.jpg
p391
aV963331200.Tue.Jul.11_16_00_00.GMT.2000.argus02a.c0.daytimex.rect.gamma.jpg
p392
aV965491200.Sat.Aug.05_16_00_00.GMT.2000.argus02a.c0.daytimex.rect.gamma.jpg
p393
aV965923200.Thu.Aug.10_16_00_00.GMT.2000.argus02a.c0.daytimex.rect.gamma.jpg
p394
aV992448000.Wed.Jun.13_16_00_00.GMT.2001.argus02a.c0.daytimex.rect.gamma.jpg
p395
aV992793600.Sun.Jun.17_16_00_00.GMT.2001.argus02a.c0.daytimex.rect.gamma.jpg
p396
aV993484800.Mon.Jun.25_16_00_00.GMT.2001.argus02a.c0.daytimex.rect.gamma.jpg
p397
aV994003200.Sun.Jul.01_16_00_00.GMT.2001.argus02a.c0.daytimex.rect.gamma.jpg
p398
aV994262400.Wed.Jul.04_16_00_00.GMT.2001.argus02a.c0.daytimex.rect.gamma.jpg
p399
aV869846400.Fri.Jul.25_16_00_00.GMT.1997.argus02.c0.daytimex.rect.gamma.jpg
p400
aV870796800.Tue.Aug.05_16_00_00.GMT.1997.argus02.c0.daytimex.rect.gamma.jpg
p401
aV871747200.Sat.Aug.16_16_00_00.GMT.1997.argus02.c0.daytimex.rect.gamma.jpg
p402
aV871920000.Mon.Aug.18_16_00_00.GMT.1997.argus02.c0.daytimex.rect.gamma.jpg
p403
aV872611200.Tue.Aug.26_16_00_00.GMT.1997.argus02.c0.daytimex.rect.gamma.jpg
p404
aV898531200.Mon.Jun.22_16_00_00.GMT.1998.argus02a.c0.daytimex.rect.gamma.jpg
p405
aV960566400.Fri.Jun.09_16_00_00.GMT.2000.argus02a.c0.daytimex.rect.gamma.jpg
p406
aV963417600.Wed.Jul.12_16_00_00.GMT.2000.argus02a.c0.daytimex.rect.gamma.jpg
p407
aV964972800.Sun.Jul.30_16_00_00.GMT.2000.argus02a.c0.daytimex.rect.gamma.jpg
p408
aV965059200.Mon.Jul.31_16_00_00.GMT.2000.argus02a.c0.daytimex.rect.gamma.jpg
p409
aV965577600.Sun.Aug.06_16_00_00.GMT.2000.argus02a.c0.daytimex.rect.gamma.jpg
p410
aV966873600.Mon.Aug.21_16_00_00.GMT.2000.argus02a.c0.daytimex.rect.gamma.jpg
p411
aV980096400.Sun.Jan.21_17_00_00.GMT.2001.argus02a.c0.daytimex.rect.gamma.jpg
p412
aV984934800.Sun.Mar.18_17_00_00.GMT.2001.argus02a.c0.daytimex.rect.gamma.jpg
p413
aV985539600.Sun.Mar.25_17_00_00.GMT.2001.argus02a.c0.daytimex.rect.gamma.jpg
p414
aV879526800.Fri.Nov.14_17_00_00.GMT.1997.argus02.c0.daytimex.rect.gamma.jpg
p415
aV879786000.Mon.Nov.17_17_00_00.GMT.1997.argus02a.c0.daytimex.rect.gamma.jpg
p416
aV888166800.Sun.Feb.22_17_00_00.GMT.1998.argus02a.c0.daytimex.rect.gamma.jpg
p417
aV893174400.Tue.Apr.21_16_00_00.GMT.1998.argus02a.c0.daytimex.rect.gamma.jpg
p418
aV894038400.Fri.May.01_16_00_00.GMT.1998.argus02a.c0.daytimex.rect.gamma.jpg
p419
aV896457600.Fri.May.29_16_00_00.GMT.1998.argus02a.c0.daytimex.rect.gamma.jpg
p420
aV896630400.Sun.May.31_16_00_00.GMT.1998.argus02a.c0.daytimex.rect.gamma.jpg
p421
aV896889600.Wed.Jun.03_16_00_00.GMT.1998.argus02a.c0.daytimex.rect.gamma.jpg
p422
aV896976000.Thu.Jun.04_16_00_00.GMT.1998.argus02a.c0.daytimex.rect.gamma.jpg
p423
aV900432000.Tue.Jul.14_16_00_00.GMT.1998.argus02a.c0.daytimex.rect.gamma.jpg
p424
aV902246400.Tue.Aug.04_16_00_00.GMT.1998.argus02a.c0.daytimex.rect.gamma.jpg
p425
aV910803600.Wed.Nov.11_17_00_00.GMT.1998.argus02a.c0.daytimex.rect.gamma.jpg
p426
aV911149200.Sun.Nov.15_17_00_00.GMT.1998.argus02a.c0.daytimex.rect.gamma.jpg
p427
aV930499200.Sun.Jun.27_16_00_00.GMT.1999.argus02a.c0.daytimex.rect.gamma.jpg
p428
aV941734800.Thu.Nov.04_17_00_00.GMT.1999.argus02a.c0.daytimex.rect.gamma.jpg
p429
aV750960000.Mon.Oct.18_16_00_00.GMT.1993.argus02.c0.daytimex.rect.gamma.jpg
p430
aV751996800.Sat.Oct.30_16_00_00.GMT.1993.argus02.c0.daytimex.rect.gamma.jpg
p431
aV788029200.Wed.Dec.21_17_00_00.GMT.1994.argus02.c0.daytimex.rect.gamma.jpg
p432
aV788893200.Sat.Dec.31_17_00_00.GMT.1994.argus02.c0.daytimex.rect.gamma.jpg
p433
aV796064400.Fri.Mar.24_17_00_00.GMT.1995.argus02.c0.daytimex.rect.gamma.jpg
p434
aV796410000.Tue.Mar.28_17_00_00.GMT.1995.argus02.c0.daytimex.rect.gamma.jpg
p435
aV799084800.Fri.Apr.28_16_00_00.GMT.1995.argus02.c0.daytimex.rect.gamma.jpg
p436
aV799689600.Fri.May.05_16_00_00.GMT.1995.argus02.c0.daytimex.rect.gamma.jpg
p437
aV809366400.Fri.Aug.25_16_00_00.GMT.1995.argus02.c0.daytimex.rect.gamma.jpg
p438
aV809539200.Sun.Aug.27_16_00_00.GMT.1995.argus02.c0.daytimex.rect.gamma.jpg
p439
aV809798400.Wed.Aug.30_16_00_00.GMT.1995.argus02.c0.daytimex.rect.gamma.jpg
p440
aV812908800.Thu.Oct.05_16_00_00.GMT.1995.argus02.c0.daytimex.rect.gamma.jpg
p441
aV813340800.Tue.Oct.10_16_00_00.GMT.1995.argus02.c0.daytimex.rect.gamma.jpg
p442
aV813859200.Mon.Oct.16_16_00_00.GMT.1995.argus02.c0.daytimex.rect.gamma.jpg
p443
aV861292800.Thu.Apr.17_16_00_00.GMT.1997.argus02.c0.daytimex.rect.gamma.jpg
p444
aV755888400.Tue.Dec.14_17_00_00.GMT.1993.argus02.c0.daytimex.rect.gamma.jpg
p445
aV755974800.Wed.Dec.15_17_00_00.GMT.1993.argus02.c0.daytimex.rect.gamma.jpg
p446
aV764701200.Sat.Mar.26_17_00_00.GMT.1994.argus02.c0.daytimex.rect.gamma.jpg
p447
aV768844800.Fri.May.13_16_00_00.GMT.1994.argus02.c0.daytimex.rect.gamma.jpg
p448
aV769190400.Tue.May.17_16_00_00.GMT.1994.argus02.c0.daytimex.rect.gamma.jpg
p449
aV769622400.Sun.May.22_16_00_00.GMT.1994.argus02.c0.daytimex.rect.gamma.jpg
p450
aV769708800.Mon.May.23_16_00_00.GMT.1994.argus02.c0.daytimex.rect.gamma.jpg
p451
aV769795200.Tue.May.24_16_00_00.GMT.1994.argus02.c0.daytimex.rect.gamma.jpg
p452
aV778176000.Mon.Aug.29_16_00_00.GMT.1994.argus02.c0.daytimex.rect.gamma.jpg
p453
aV780249600.Thu.Sep.22_16_00_00.GMT.1994.argus02.c0.daytimex.rect.gamma.jpg
p454
aV781632000.Sat.Oct.08_16_00_00.GMT.1994.argus02.c0.daytimex.rect.gamma.jpg
p455
aV786906000.Thu.Dec.08_17_00_00.GMT.1994.argus02.c0.daytimex.rect.gamma.jpg
p456
aV787856400.Mon.Dec.19_17_00_00.GMT.1994.argus02.c0.daytimex.rect.gamma.jpg
p457
aV791139600.Thu.Jan.26_17_00_00.GMT.1995.argus02.c0.daytimex.rect.gamma.jpg
p458
aV793213200.Sun.Feb.19_17_00_00.GMT.1995.argus02.c0.daytimex.rect.gamma.jpg
p459
a.