(dp0
V775152000.Mon.Jul.25_16_00_00.GMT.1994.argus02.c0.daytimex.rect.jpg
p1
I0
sV1329325200.Wed.Feb.15_17_00_00.GMT.2012.argus02a.c0.daytimex.rect.jpg
p2
I0
sV764182800.Sun.Mar.20_17_00_00.GMT.1994.argus02.c0.daytimex.rect.jpg
p3
I1
sV896889600.Wed.Jun.03_16_00_00.GMT.1998.argus02a.c0.daytimex.rect.jpg
p4
I2
sV960566400.Fri.Jun.09_16_00_00.GMT.2000.argus02a.c0.daytimex.rect.jpg
p5
I1
sV1256054400.Tue.Oct.20_16_00_00.GMT.2009.argus02a.c0.daytimex.rect.jpg
p6
I3
sV995385600.Tue.Jul.17_16_00_00.GMT.2001.argus02a.c0.daytimex.rect.jpg
p7
I1
sV1235235600.Sat.Feb.21_17_00_00.GMT.2009.argus02a.c0.daytimex.rect.jpg
p8
I3
sV1184342400.Fri.Jul.13_16_00_00.GMT.2007.argus02a.c0.daytimex.rect.jpg
p9
I0
sV913309200.Thu.Dec.10_17_00_00.GMT.1998.argus02a.c0.daytimex.rect.jpg
p10
I4
sV1404403200.Thu.Jul.03_16_00_00.GMT.2014.argus02a.c0.daytimex.rect.jpg
p11
I2
sV1084291200.Tue.May.11_16_00_00.GMT.2004.argus02a.c0.daytimex.rect.jpg
p12
I0
sV1301331600.Mon.Mar.28_17_00_00.GMT.2011.argus02a.c0.daytimex.rect.jpg
p13
I4
sV1218124800.Thu.Aug.07_16_00_00.GMT.2008.argus02a.c0.daytimex.rect.jpg
p14
I0
sV796410000.Tue.Mar.28_17_00_00.GMT.1995.argus02.c0.daytimex.rect.jpg
p15
I3
sV1323882000.Wed.Dec.14_17_00_00.GMT.2011.argus02a.c0.daytimex.rect.jpg
p16
I1
sV1407945600.Wed.Aug.13_16_00_00.GMT.2014.argus02a.c0.daytimex.rect.jpg
p17
I1
sV980096400.Sun.Jan.21_17_00_00.GMT.2001.argus02a.c0.daytimex.rect.jpg
p18
I1
sV1379260800.Sun.Sep.15_16_00_00.GMT.2013.argus02a.c0.daytimex.rect.jpg
p19
I1
sV1127318400.Wed.Sep.21_16_00_00.GMT.2005.argus02a.c0.daytimex.rect.jpg
p20
I3
sV1291741200.Tue.Dec.07_17_00_00.GMT.2010.argus02a.c0.daytimex.rect.jpg
p21
I3
sV1343664000.Mon.Jul.30_16_00_00.GMT.2012.argus02a.c0.daytimex.rect.jpg
p22
I1
sV730486800.Tue.Feb.23_17_00_00.GMT.1993.argus02.c0.daytimex.rect.jpg
p23
I0
sV1153238400.Tue.Jul.18_16_00_00.GMT.2006.argus02a.c0.daytimex.rect.jpg
p24
I0
sV1330621200.Thu.Mar.01_17_00_00.GMT.2012.argus02a.c0.daytimex.rect.jpg
p25
I0
sV1336060800.Thu.May.03_16_00_00.GMT.2012.argus02a.c0.daytimex.rect.jpg
p26
I2
sV1350057600.Fri.Oct.12_16_00_00.GMT.2012.argus02a.c0.daytimex.rect.jpg
p27
I4
sV1097337600.Sat.Oct.09_16_00_00.GMT.2004.argus02a.c0.daytimex.rect.jpg
p28
I2
sV1145116800.Sat.Apr.15_16_00_00.GMT.2006.argus02a.c0.daytimex.rect.jpg
p29
I0
sV1356282000.Sun.Dec.23_17_00_00.GMT.2012.argus02a.c0.daytimex.rect.jpg
p30
I1
sV733597200.Wed.Mar.31_17_00_00.GMT.1993.argus02.c0.daytimex.rect.jpg
p31
I0
sV749750400.Mon.Oct.04_16_00_00.GMT.1993.argus02.c0.daytimex.rect.jpg
p32
I1
sV920134800.Sat.Feb.27_17_00_00.GMT.1999.argus02a.c0.daytimex.rect.jpg
p33
I3
sV889722000.Thu.Mar.12_17_00_00.GMT.1998.argus02a.c0.daytimex.rect.jpg
p34
I4
sV1019145600.Thu.Apr.18_16_00_00.GMT.2002.argus02a.c0.daytimex.rect.jpg
p35
I0
sV1100710800.Wed.Nov.17_17_00_00.GMT.2004.argus02a.c0.daytimex.rect.jpg
p36
I3
sV1120752000.Thu.Jul.07_16_00_00.GMT.2005.argus02a.c0.daytimex.rect.jpg
p37
I2
sV1304611200.Thu.May.05_16_00_00.GMT.2011.argus02a.c0.daytimex.rect.jpg
p38
I4
sV1226163600.Sat.Nov.08_17_00_00.GMT.2008.argus02a.c0.daytimex.rect.jpg
p39
I3
sV813340800.Tue.Oct.10_16_00_00.GMT.1995.argus02.c0.daytimex.rect.jpg
p40
I3
sV1327424400.Tue.Jan.24_17_00_00.GMT.2012.argus02a.c0.daytimex.rect.jpg
p41
I4
sV894038400.Fri.May.01_16_00_00.GMT.1998.argus02a.c0.daytimex.rect.jpg
p42
I2
sV738000000.Fri.May.21_16_00_00.GMT.1993.argus02.c0.daytimex.rect.jpg
p43
I2
sV1250784000.Thu.Aug.20_16_00_00.GMT.2009.argus02a.c0.daytimex.rect.jpg
p44
I1
sV1297270800.Wed.Feb.09_17_00_00.GMT.2011.argus02a.c0.daytimex.rect.jpg
p45
I4
sV968428800.Fri.Sep.08_16_00_00.GMT.2000.argus02a.c0.daytimex.rect.jpg
p46
I2
sV1336665600.Thu.May.10_16_00_00.GMT.2012.argus02a.c0.daytimex.rect.jpg
p47
I1
sV817059600.Wed.Nov.22_17_00_00.GMT.1995.argus02.c0.daytimex.rect.jpg
p48
I4
sV1400515200.Mon.May.19_16_00_00.GMT.2014.argus02a.c0.daytimex.rect.jpg
p49
I2
sV832608000.Mon.May.20_16_00_00.GMT.1996.argus02.c0.daytimex.rect.jpg
p50
I1
sV1255449600.Tue.Oct.13_16_00_00.GMT.2009.argus02a.c0.daytimex.rect.jpg
p51
I3
sV744652800.Fri.Aug.06_16_00_00.GMT.1993.argus02.c0.daytimex.rect.jpg
p52
I0
sV1169485200.Mon.Jan.22_17_00_00.GMT.2007.argus02a.c0.daytimex.rect.jpg
p53
I4
sV837446400.Mon.Jul.15_16_00_00.GMT.1996.argus02.c0.daytimex.rect.jpg
p54
I1
sV1063468800.Sat.Sep.13_16_00_00.GMT.2003.argus02a.c0.daytimex.rect.jpg
p55
I2
sV740332800.Thu.Jun.17_16_00_00.GMT.1993.argus02.c0.daytimex.rect.jpg
p56
I2
sV1383411600.Sat.Nov.02_17_00_00.GMT.2013.argus02a.c0.daytimex.rect.jpg
p57
I2
sV1055606400.Sat.Jun.14_16_00_00.GMT.2003.argus02a.c0.daytimex.rect.jpg
p58
I1
sV780249600.Thu.Sep.22_16_00_00.GMT.1994.argus02.c0.daytimex.rect.jpg
p59
I4
sV907344000.Fri.Oct.02_16_00_00.GMT.1998.argus02a.c0.daytimex.rect.jpg
p60
I4
sV1175014800.Tue.Mar.27_17_00_00.GMT.2007.argus02a.c0.daytimex.rect.jpg
p61
I4
sV1401120000.Mon.May.26_16_00_00.GMT.2014.argus02a.c0.daytimex.rect.jpg
p62
I2
sV1397577600.Tue.Apr.15_16_00_00.GMT.2014.argus02a.c0.daytimex.rect.jpg
p63
I3
sV965923200.Thu.Aug.10_16_00_00.GMT.2000.argus02a.c0.daytimex.rect.jpg
p64
I0
sV1247155200.Thu.Jul.09_16_00_00.GMT.2009.argus02a.c0.daytimex.rect.jpg
p65
I2
sV1290618000.Wed.Nov.24_17_00_00.GMT.2010.argus02a.c0.daytimex.rect.jpg
p66
I3
sV1390323600.Tue.Jan.21_17_00_00.GMT.2014.argus02a.c0.daytimex.rect.jpg
p67
I4
sV868204800.Sun.Jul.06_16_00_00.GMT.1997.argus02.c0.daytimex.rect.jpg
p68
I1
sV1307116800.Fri.Jun.03_16_00_00.GMT.2011.argus02a.c0.daytimex.rect.jpg
p69
I3
sV860515200.Tue.Apr.08_16_00_00.GMT.1997.argus02.c0.daytimex.rect.jpg
p70
I2
sV781632000.Sat.Oct.08_16_00_00.GMT.1994.argus02.c0.daytimex.rect.jpg
p71
I4
sV1409068800.Tue.Aug.26_16_00_00.GMT.2014.argus02a.c0.daytimex.rect.jpg
p72
I3
sV1382198400.Sat.Oct.19_16_00_00.GMT.2013.argus02a.c0.daytimex.rect.jpg
p73
I2
sV934387200.Wed.Aug.11_16_00_00.GMT.1999.argus02a.c0.daytimex.rect.jpg
p74
I0
sV1181923200.Fri.Jun.15_16_00_00.GMT.2007.argus02a.c0.daytimex.rect.jpg
p75
I4
sV1097596800.Tue.Oct.12_16_00_00.GMT.2004.argus02a.c0.daytimex.rect.jpg
p76
I2
sV1383843600.Thu.Nov.07_17_00_00.GMT.2013.argus02a.c0.daytimex.rect.jpg
p77
I2
sV1379088000.Fri.Sep.13_16_00_00.GMT.2013.argus02a.c0.daytimex.rect.jpg
p78
I2
sV801763200.Mon.May.29_16_00_00.GMT.1995.argus02.c0.daytimex.rect.jpg
p79
I2
sV1409846400.Thu.Sep.04_16_00_00.GMT.2014.argus02a.c0.daytimex.rect.jpg
p80
I0
sV1237050000.Sat.Mar.14_17_00_00.GMT.2009.argus02a.c0.daytimex.rect.jpg
p81
I2
sV1189440000.Mon.Sep.10_16_00_00.GMT.2007.argus02a.c0.daytimex.rect.jpg
p82
I0
sV1253721600.Wed.Sep.23_16_00_00.GMT.2009.argus02a.c0.daytimex.rect.jpg
p83
I2
sV1336752000.Fri.May.11_16_00_00.GMT.2012.argus02a.c0.daytimex.rect.jpg
p84
I1
sV923328000.Mon.Apr.05_16_00_00.GMT.1999.argus02a.c0.daytimex.rect.jpg
p85
I4
sV1139677200.Sat.Feb.11_17_00_00.GMT.2006.argus02a.c0.daytimex.rect.jpg
p86
I3
sV1311523200.Sun.Jul.24_16_00_00.GMT.2011.argus02a.c0.daytimex.rect.jpg
p87
I0
sV788029200.Wed.Dec.21_17_00_00.GMT.1994.argus02.c0.daytimex.rect.jpg
p88
I3
sV1185984000.Wed.Aug.01_16_00_00.GMT.2007.argus02a.c0.daytimex.rect.jpg
p89
I0
sV1104339600.Wed.Dec.29_17_00_00.GMT.2004.argus02a.c0.daytimex.rect.jpg
p90
I4
sV1082822400.Sat.Apr.24_16_00_00.GMT.2004.argus02a.c0.daytimex.rect.jpg
p91
I2
sV1337875200.Thu.May.24_16_00_00.GMT.2012.argus02a.c0.daytimex.rect.jpg
p92
I3
sV1180022400.Thu.May.24_16_00_00.GMT.2007.argus02a.c0.daytimex.rect.jpg
p93
I4
sV1211040000.Sat.May.17_16_00_00.GMT.2008.argus02a.c0.daytimex.rect.jpg
p94
I2
sV820774800.Thu.Jan.04_17_00_00.GMT.1996.argus02.c0.daytimex.rect.jpg
p95
I4
sV1165165200.Sun.Dec.03_17_00_00.GMT.2006.argus02a.c0.daytimex.rect.jpg
p96
I4
sV1310313600.Sun.Jul.10_16_00_00.GMT.2011.argus02a.c0.daytimex.rect.jpg
p97
I0
sV867340800.Thu.Jun.26_16_00_00.GMT.1997.argus02.c0.daytimex.rect.jpg
p98
I2
sV817923600.Sat.Dec.02_17_00_00.GMT.1995.argus02.c0.daytimex.rect.jpg
p99
I4
sV807984000.Wed.Aug.09_16_00_00.GMT.1995.argus02.c0.daytimex.rect.jpg
p100
I4
sV843926400.Sat.Sep.28_16_00_00.GMT.1996.argus02.c0.daytimex.rect.jpg
p101
I1
sV934819200.Mon.Aug.16_16_00_00.GMT.1999.argus02a.c0.daytimex.rect.jpg
p102
I0
sV1396198800.Sun.Mar.30_17_00_00.GMT.2014.argus02a.c0.daytimex.rect.jpg
p103
I3
sV1007830800.Sat.Dec.08_17_00_00.GMT.2001.argus02a.c0.daytimex.rect.jpg
p104
I2
sV1299690000.Wed.Mar.09_17_00_00.GMT.2011.argus02a.c0.daytimex.rect.jpg
p105
I4
sV813859200.Mon.Oct.16_16_00_00.GMT.1995.argus02.c0.daytimex.rect.jpg
p106
I3
sV839692800.Sat.Aug.10_16_00_00.GMT.1996.argus02.c0.daytimex.rect.jpg
p107
I1
sV1226250000.Sun.Nov.09_17_00_00.GMT.2008.argus02a.c0.daytimex.rect.jpg
p108
I3
sV1152201600.Thu.Jul.06_16_00_00.GMT.2006.argus02a.c0.daytimex.rect.jpg
p109
I0
sV809366400.Fri.Aug.25_16_00_00.GMT.1995.argus02.c0.daytimex.rect.jpg
p110
I3
sV1333468800.Tue.Apr.03_16_00_00.GMT.2012.argus02a.c0.daytimex.rect.jpg
p111
I1
sV1293814800.Fri.Dec.31_17_00_00.GMT.2010.argus02a.c0.daytimex.rect.jpg
p112
I3
sV965059200.Mon.Jul.31_16_00_00.GMT.2000.argus02a.c0.daytimex.rect.jpg
p113
I1
sV1175360400.Sat.Mar.31_17_00_00.GMT.2007.argus02a.c0.daytimex.rect.jpg
p114
I3
sV1233421200.Sat.Jan.31_17_00_00.GMT.2009.argus02a.c0.daytimex.rect.jpg
p115
I3
sV1298653200.Fri.Feb.25_17_00_00.GMT.2011.argus02a.c0.daytimex.rect.jpg
p116
I4
sV809798400.Wed.Aug.30_16_00_00.GMT.1995.argus02.c0.daytimex.rect.jpg
p117
I3
sV740246400.Wed.Jun.16_16_00_00.GMT.1993.argus02.c0.daytimex.rect.jpg
p118
I2
sV1243008000.Fri.May.22_16_00_00.GMT.2009.argus02a.c0.daytimex.rect.jpg
p119
I3
sV1074358800.Sat.Jan.17_17_00_00.GMT.2004.argus02a.c0.daytimex.rect.jpg
p120
I4
sV1384794000.Mon.Nov.18_17_00_00.GMT.2013.argus02a.c0.daytimex.rect.jpg
p121
I3
sV1166547600.Tue.Dec.19_17_00_00.GMT.2006.argus02a.c0.daytimex.rect.jpg
p122
I4
sV1264611600.Wed.Jan.27_17_00_00.GMT.2010.argus02a.c0.daytimex.rect.jpg
p123
I0
sV763059600.Mon.Mar.07_17_00_00.GMT.1994.argus02.c0.daytimex.rect.jpg
p124
I1
sV1288630800.Mon.Nov.01_17_00_00.GMT.2010.argus02a.c0.daytimex.rect.jpg
p125
I4
sV871920000.Mon.Aug.18_16_00_00.GMT.1997.argus02.c0.daytimex.rect.jpg
p126
I1
sV1143133200.Thu.Mar.23_17_00_00.GMT.2006.argus02a.c0.daytimex.rect.jpg
p127
I4
sV1298394000.Tue.Feb.22_17_00_00.GMT.2011.argus02a.c0.daytimex.rect.jpg
p128
I4
sV1165856400.Mon.Dec.11_17_00_00.GMT.2006.argus02a.c0.daytimex.rect.jpg
p129
I0
sV893174400.Tue.Apr.21_16_00_00.GMT.1998.argus02a.c0.daytimex.rect.jpg
p130
I2
sV1338480000.Thu.May.31_16_00_00.GMT.2012.argus02a.c0.daytimex.rect.jpg
p131
I3
sV1315584000.Fri.Sep.09_16_00_00.GMT.2011.argus02a.c0.daytimex.rect.jpg
p132
I4
sV807724800.Sun.Aug.06_16_00_00.GMT.1995.argus02.c0.daytimex.rect.jpg
p133
I0
sV1178726400.Wed.May.09_16_00_00.GMT.2007.argus02a.c0.daytimex.rect.jpg
p134
I4
sV1385139600.Fri.Nov.22_17_00_00.GMT.2013.argus02a.c0.daytimex.rect.jpg
p135
I3
sV1284393600.Mon.Sep.13_16_00_00.GMT.2010.argus02a.c0.daytimex.rect.jpg
p136
I3
sV1356714000.Fri.Dec.28_17_00_00.GMT.2012.argus02a.c0.daytimex.rect.jpg
p137
I1
sV1401552000.Sat.May.31_16_00_00.GMT.2014.argus02a.c0.daytimex.rect.jpg
p138
I2
sV1294160400.Tue.Jan.04_17_00_00.GMT.2011.argus02a.c0.daytimex.rect.jpg
p139
I3
sV1023897600.Wed.Jun.12_16_00_00.GMT.2002.argus02a.c0.daytimex.rect.jpg
p140
I3
sV798912000.Wed.Apr.26_16_00_00.GMT.1995.argus02.c0.daytimex.rect.jpg
p141
I4
sV1161360000.Fri.Oct.20_16_00_00.GMT.2006.argus02a.c0.daytimex.rect.jpg
p142
I0
sV1334764800.Wed.Apr.18_16_00_00.GMT.2012.argus02a.c0.daytimex.rect.jpg
p143
I1
sV1414166400.Fri.Oct.24_16_00_00.GMT.2014.argus02a.c0.daytimex.rect.jpg
p144
I4
sV1118073600.Mon.Jun.06_16_00_00.GMT.2005.argus02a.c0.daytimex.rect.jpg
p145
I3
sV1216396800.Fri.Jul.18_16_00_00.GMT.2008.argus02a.c0.daytimex.rect.jpg
p146
I1
sV1065628800.Wed.Oct.08_16_00_00.GMT.2003.argus02a.c0.daytimex.rect.jpg
p147
I1
sV1122048000.Fri.Jul.22_16_00_00.GMT.2005.argus02a.c0.daytimex.rect.jpg
p148
I2
sV1210176000.Wed.May.07_16_00_00.GMT.2008.argus02a.c0.daytimex.rect.jpg
p149
I1
sV888166800.Sun.Feb.22_17_00_00.GMT.1998.argus02a.c0.daytimex.rect.jpg
p150
I2
sV1065542400.Tue.Oct.07_16_00_00.GMT.2003.argus02a.c0.daytimex.rect.jpg
p151
I1
sV1178121600.Wed.May.02_16_00_00.GMT.2007.argus02a.c0.daytimex.rect.jpg
p152
I0
sV745257600.Fri.Aug.13_16_00_00.GMT.1993.argus02.c0.daytimex.rect.jpg
p153
I1
sV1030809600.Sat.Aug.31_16_00_00.GMT.2002.argus02a.c0.daytimex.rect.jpg
p154
I2
sV1234285200.Tue.Feb.10_17_00_00.GMT.2009.argus02a.c0.daytimex.rect.jpg
p155
I3
sV1302105600.Wed.Apr.06_16_00_00.GMT.2011.argus02a.c0.daytimex.rect.jpg
p156
I4
sV1095523200.Sat.Sep.18_16_00_00.GMT.2004.argus02a.c0.daytimex.rect.jpg
p157
I2
sV958147200.Fri.May.12_16_00_00.GMT.2000.argus02a.c0.daytimex.rect.jpg
p158
I2
sV1103821200.Thu.Dec.23_17_00_00.GMT.2004.argus02a.c0.daytimex.rect.jpg
p159
I4
sV847645200.Sun.Nov.10_17_00_00.GMT.1996.argus02.c0.daytimex.rect.jpg
p160
I4
sV791139600.Thu.Jan.26_17_00_00.GMT.1995.argus02.c0.daytimex.rect.jpg
p161
I4
sV1072890000.Wed.Dec.31_17_00_00.GMT.2003.argus02a.c0.daytimex.rect.jpg
p162
I3
sV1413820800.Mon.Oct.20_16_00_00.GMT.2014.argus02a.c0.daytimex.rect.jpg
p163
I4
sV1396972800.Tue.Apr.08_16_00_00.GMT.2014.argus02a.c0.daytimex.rect.jpg
p164
I3
sV1287417600.Mon.Oct.18_16_00_00.GMT.2010.argus02a.c0.daytimex.rect.jpg
p165
I0
sV1343750400.Tue.Jul.31_16_00_00.GMT.2012.argus02a.c0.daytimex.rect.jpg
p166
I1
sV1114012800.Wed.Apr.20_16_00_00.GMT.2005.argus02a.c0.daytimex.rect.jpg
p167
I2
sV1100538000.Mon.Nov.15_17_00_00.GMT.2004.argus02a.c0.daytimex.rect.jpg
p168
I3
sV1101229200.Tue.Nov.23_17_00_00.GMT.2004.argus02a.c0.daytimex.rect.jpg
p169
I3
sV1249056000.Fri.Jul.31_16_00_00.GMT.2009.argus02a.c0.daytimex.rect.jpg
p170
I1
sV1024070400.Fri.Jun.14_16_00_00.GMT.2002.argus02a.c0.daytimex.rect.jpg
p171
I3
sV1401724800.Mon.Jun.02_16_00_00.GMT.2014.argus02a.c0.daytimex.rect.jpg
p172
I2
sV1358960400.Wed.Jan.23_17_00_00.GMT.2013.argus02a.c0.daytimex.rect.jpg
p173
I2
sV905184000.Mon.Sep.07_16_00_00.GMT.1998.argus02a.c0.daytimex.rect.jpg
p174
I3
sV1265648400.Mon.Feb.08_17_00_00.GMT.2010.argus02a.c0.daytimex.rect.jpg
p175
I3
sV971798400.Tue.Oct.17_16_00_00.GMT.2000.argus02a.c0.daytimex.rect.jpg
p176
I2
sV1255968000.Mon.Oct.19_16_00_00.GMT.2009.argus02a.c0.daytimex.rect.jpg
p177
I4
sV1003507200.Fri.Oct.19_16_00_00.GMT.2001.argus02a.c0.daytimex.rect.jpg
p178
I1
sV965577600.Sun.Aug.06_16_00_00.GMT.2000.argus02a.c0.daytimex.rect.jpg
p179
I1
sV1138122000.Tue.Jan.24_17_00_00.GMT.2006.argus02a.c0.daytimex.rect.jpg
p180
I4
sV1354899600.Fri.Dec.07_17_00_00.GMT.2012.argus02a.c0.daytimex.rect.jpg
p181
I1
sV801676800.Sun.May.28_16_00_00.GMT.1995.argus02.c0.daytimex.rect.jpg
p182
I2
sV1071507600.Mon.Dec.15_17_00_00.GMT.2003.argus02a.c0.daytimex.rect.jpg
p183
I4
sV994003200.Sun.Jul.01_16_00_00.GMT.2001.argus02a.c0.daytimex.rect.jpg
p184
I0
sV879786000.Mon.Nov.17_17_00_00.GMT.1997.argus02a.c0.daytimex.rect.jpg
p185
I2
sV1312473600.Thu.Aug.04_16_00_00.GMT.2011.argus02a.c0.daytimex.rect.jpg
p186
I0
sV1416157200.Sun.Nov.16_17_00_00.GMT.2014.argus02a.c0.daytimex.rect.jpg
p187
I3
sV1304092800.Fri.Apr.29_16_00_00.GMT.2011.argus02a.c0.daytimex.rect.jpg
p188
I4
sV1283529600.Fri.Sep.03_16_00_00.GMT.2010.argus02a.c0.daytimex.rect.jpg
p189
I4
sV769708800.Mon.May.23_16_00_00.GMT.1994.argus02.c0.daytimex.rect.jpg
p190
I4
sV927475200.Sun.May.23_16_00_00.GMT.1999.argus02a.c0.daytimex.rect.jpg
p191
I0
sV1340726400.Tue.Jun.26_16_00_00.GMT.2012.argus02a.c0.daytimex.rect.jpg
p192
I1
sV1197392400.Tue.Dec.11_17_00_00.GMT.2007.argus02a.c0.daytimex.rect.jpg
p193
I0
sV1061913600.Tue.Aug.26_16_00_00.GMT.2003.argus02a.c0.daytimex.rect.jpg
p194
I1
sV820947600.Sat.Jan.06_17_00_00.GMT.1996.argus02.c0.daytimex.rect.jpg
p195
I4
sV1373731200.Sat.Jul.13_16_00_00.GMT.2013.argus02a.c0.daytimex.rect.jpg
p196
I2
sV1393347600.Tue.Feb.25_17_00_00.GMT.2014.argus02a.c0.daytimex.rect.jpg
p197
I3
sV1299862800.Fri.Mar.11_17_00_00.GMT.2011.argus02a.c0.daytimex.rect.jpg
p198
I4
sV1132160400.Wed.Nov.16_17_00_00.GMT.2005.argus02a.c0.daytimex.rect.jpg
p199
I4
sV1193500800.Sat.Oct.27_16_00_00.GMT.2007.argus02a.c0.daytimex.rect.jpg
p200
I4
sV1082390400.Mon.Apr.19_16_00_00.GMT.2004.argus02a.c0.daytimex.rect.jpg
p201
I2
sV1023379200.Thu.Jun.06_16_00_00.GMT.2002.argus02a.c0.daytimex.rect.jpg
p202
I2
sV1305561600.Mon.May.16_16_00_00.GMT.2011.argus02a.c0.daytimex.rect.jpg
p203
I3
sV1263661200.Sat.Jan.16_17_00_00.GMT.2010.argus02a.c0.daytimex.rect.jpg
p204
I0
sV1399478400.Wed.May.07_16_00_00.GMT.2014.argus02a.c0.daytimex.rect.jpg
p205
I2
sV1115308800.Thu.May.05_16_00_00.GMT.2005.argus02a.c0.daytimex.rect.jpg
p206
I2
sV1009558800.Fri.Dec.28_17_00_00.GMT.2001.argus02a.c0.daytimex.rect.jpg
p207
I2
sV991584000.Sun.Jun.03_16_00_00.GMT.2001.argus02a.c0.daytimex.rect.jpg
p208
I1
sV1178294400.Fri.May.04_16_00_00.GMT.2007.argus02a.c0.daytimex.rect.jpg
p209
I3
sV1215100800.Thu.Jul.03_16_00_00.GMT.2008.argus02a.c0.daytimex.rect.jpg
p210
I0
sV1215705600.Thu.Jul.10_16_00_00.GMT.2008.argus02a.c0.daytimex.rect.jpg
p211
I0
sV1330966800.Mon.Mar.05_17_00_00.GMT.2012.argus02a.c0.daytimex.rect.jpg
p212
I0
sV755888400.Tue.Dec.14_17_00_00.GMT.1993.argus02.c0.daytimex.rect.jpg
p213
I4
sV1178985600.Sat.May.12_16_00_00.GMT.2007.argus02a.c0.daytimex.rect.jpg
p214
I0
sV874166400.Sat.Sep.13_16_00_00.GMT.1997.argus02.c0.daytimex.rect.jpg
p215
I4
sV1247068800.Wed.Jul.08_16_00_00.GMT.2009.argus02a.c0.daytimex.rect.jpg
p216
I2
sV736531200.Tue.May.04_16_00_00.GMT.1993.argus02.c0.daytimex.rect.jpg
p217
I2
sV963331200.Tue.Jul.11_16_00_00.GMT.2000.argus02a.c0.daytimex.rect.jpg
p218
I0
sV1029513600.Fri.Aug.16_16_00_00.GMT.2002.argus02a.c0.daytimex.rect.jpg
p219
I4
sV1253462400.Sun.Sep.20_16_00_00.GMT.2009.argus02a.c0.daytimex.rect.jpg
p220
I2
sV842198400.Sun.Sep.08_16_00_00.GMT.1996.argus02.c0.daytimex.rect.jpg
p221
I1
sV793213200.Sun.Feb.19_17_00_00.GMT.1995.argus02.c0.daytimex.rect.jpg
p222
I4
sV1098892800.Wed.Oct.27_16_00_00.GMT.2004.argus02a.c0.daytimex.rect.jpg
p223
I2
sV1117814400.Fri.Jun.03_16_00_00.GMT.2005.argus02a.c0.daytimex.rect.jpg
p224
I4
sV916419600.Fri.Jan.15_17_00_00.GMT.1999.argus02a.c0.daytimex.rect.jpg
p225
I4
sV856976400.Wed.Feb.26_17_00_00.GMT.1997.argus02.c0.daytimex.rect.jpg
p226
I2
sV1039798800.Fri.Dec.13_17_00_00.GMT.2002.argus02a.c0.daytimex.rect.jpg
p227
I4
sV1009818000.Mon.Dec.31_17_00_00.GMT.2001.argus02a.c0.daytimex.rect.jpg
p228
I2
sV1354813200.Thu.Dec.06_17_00_00.GMT.2012.argus02a.c0.daytimex.rect.jpg
p229
I1
sV1378483200.Fri.Sep.06_16_00_00.GMT.2013.argus02a.c0.daytimex.rect.jpg
p230
I2
sV1310572800.Wed.Jul.13_16_00_00.GMT.2011.argus02a.c0.daytimex.rect.jpg
p231
I0
sV1304438400.Tue.May.03_16_00_00.GMT.2011.argus02a.c0.daytimex.rect.jpg
p232
I4
sV741801600.Sun.Jul.04_16_00_00.GMT.1993.argus02.c0.daytimex.rect.jpg
p233
I0
sV1015088400.Sat.Mar.02_17_00_00.GMT.2002.argus02a.c0.daytimex.rect.jpg
p234
I2
sV1356454800.Tue.Dec.25_17_00_00.GMT.2012.argus02a.c0.daytimex.rect.jpg
p235
I1
sV1391274000.Sat.Feb.01_17_00_00.GMT.2014.argus02a.c0.daytimex.rect.jpg
p236
I3
sV771091200.Wed.Jun.08_16_00_00.GMT.1994.argus02.c0.daytimex.rect.jpg
p237
I0
sV1141405200.Fri.Mar.03_17_00_00.GMT.2006.argus02a.c0.daytimex.rect.jpg
p238
I4
sV1076518800.Wed.Feb.11_17_00_00.GMT.2004.argus02a.c0.daytimex.rect.jpg
p239
I0
sV870796800.Tue.Aug.05_16_00_00.GMT.1997.argus02.c0.daytimex.rect.jpg
p240
I1
sV1128441600.Tue.Oct.04_16_00_00.GMT.2005.argus02a.c0.daytimex.rect.jpg
p241
I2
sV1410969600.Wed.Sep.17_16_00_00.GMT.2014.argus02a.c0.daytimex.rect.jpg
p242
I1
sV1142701200.Sat.Mar.18_17_00_00.GMT.2006.argus02a.c0.daytimex.rect.jpg
p243
I4
sV788893200.Sat.Dec.31_17_00_00.GMT.1994.argus02.c0.daytimex.rect.jpg
p244
I3
sV1232816400.Sat.Jan.24_17_00_00.GMT.2009.argus02a.c0.daytimex.rect.jpg
p245
I4
sV1214755200.Sun.Jun.29_16_00_00.GMT.2008.argus02a.c0.daytimex.rect.jpg
p246
I1
sV843062400.Wed.Sep.18_16_00_00.GMT.1996.argus02.c0.daytimex.rect.jpg
p247
I1
sV755974800.Wed.Dec.15_17_00_00.GMT.1993.argus02.c0.daytimex.rect.jpg
p248
I4
sV1007139600.Fri.Nov.30_17_00_00.GMT.2001.argus02a.c0.daytimex.rect.jpg
p249
I1
sV1096646400.Fri.Oct.01_16_00_00.GMT.2004.argus02a.c0.daytimex.rect.jpg
p250
I2
sV1197565200.Thu.Dec.13_17_00_00.GMT.2007.argus02a.c0.daytimex.rect.jpg
p251
I4
sV1150819200.Tue.Jun.20_16_00_00.GMT.2006.argus02a.c0.daytimex.rect.jpg
p252
I0
sV1387126800.Sun.Dec.15_17_00_00.GMT.2013.argus02a.c0.daytimex.rect.jpg
p253
I4
sV1195750800.Thu.Nov.22_17_00_00.GMT.2007.argus02a.c0.daytimex.rect.jpg
p254
I4
sV1321462800.Wed.Nov.16_17_00_00.GMT.2011.argus02a.c0.daytimex.rect.jpg
p255
I0
sV799603200.Thu.May.04_16_00_00.GMT.1995.argus02.c0.daytimex.rect.jpg
p256
I4
sV1086192000.Wed.Jun.02_16_00_00.GMT.2004.argus02a.c0.daytimex.rect.jpg
p257
I0
sV1116000000.Fri.May.13_16_00_00.GMT.2005.argus02a.c0.daytimex.rect.jpg
p258
I2
sV755715600.Sun.Dec.12_17_00_00.GMT.1993.argus02.c0.daytimex.rect.jpg
p259
I4
sV1303920000.Wed.Apr.27_16_00_00.GMT.2011.argus02a.c0.daytimex.rect.jpg
p260
I4
sV1179158400.Mon.May.14_16_00_00.GMT.2007.argus02a.c0.daytimex.rect.jpg
p261
I4
sV1294678800.Mon.Jan.10_17_00_00.GMT.2011.argus02a.c0.daytimex.rect.jpg
p262
I3
sV1243526400.Thu.May.28_16_00_00.GMT.2009.argus02a.c0.daytimex.rect.jpg
p263
I3
sV1194368400.Tue.Nov.06_17_00_00.GMT.2007.argus02a.c0.daytimex.rect.jpg
p264
I0
sV1249315200.Mon.Aug.03_16_00_00.GMT.2009.argus02a.c0.daytimex.rect.jpg
p265
I1
sV880045200.Thu.Nov.20_17_00_00.GMT.1997.argus02a.c0.daytimex.rect.jpg
p266
I0
sV1135702800.Tue.Dec.27_17_00_00.GMT.2005.argus02a.c0.daytimex.rect.jpg
p267
I3
sV1187971200.Fri.Aug.24_16_00_00.GMT.2007.argus02a.c0.daytimex.rect.jpg
p268
I4
sV784746000.Sun.Nov.13_17_00_00.GMT.1994.argus02.c0.daytimex.rect.jpg
p269
I1
sV779731200.Fri.Sep.16_16_00_00.GMT.1994.argus02.c0.daytimex.rect.jpg
p270
I0
sV1331485200.Sun.Mar.11_17_00_00.GMT.2012.argus02a.c0.daytimex.rect.jpg
p271
I0
sV819738000.Sat.Dec.23_17_00_00.GMT.1995.argus02.c0.daytimex.rect.jpg
p272
I4
sV832348800.Fri.May.17_16_00_00.GMT.1996.argus02.c0.daytimex.rect.jpg
p273
I1
sV1343232000.Wed.Jul.25_16_00_00.GMT.2012.argus02a.c0.daytimex.rect.jpg
p274
I1
sV1337616000.Mon.May.21_16_00_00.GMT.2012.argus02a.c0.daytimex.rect.jpg
p275
I2
sV1008349200.Fri.Dec.14_17_00_00.GMT.2001.argus02a.c0.daytimex.rect.jpg
p276
I2
sV1325091600.Wed.Dec.28_17_00_00.GMT.2011.argus02a.c0.daytimex.rect.jpg
p277
I1
sV1041008400.Fri.Dec.27_17_00_00.GMT.2002.argus02a.c0.daytimex.rect.jpg
p278
I4
sV769190400.Tue.May.17_16_00_00.GMT.1994.argus02.c0.daytimex.rect.jpg
p279
I4
sV1272729600.Sat.May.01_16_00_00.GMT.2010.argus02a.c0.daytimex.rect.jpg
p280
I0
sV1133197200.Mon.Nov.28_17_00_00.GMT.2005.argus02a.c0.daytimex.rect.jpg
p281
I4
sV1019836800.Fri.Apr.26_16_00_00.GMT.2002.argus02a.c0.daytimex.rect.jpg
p282
I2
sV1386176400.Wed.Dec.04_17_00_00.GMT.2013.argus02a.c0.daytimex.rect.jpg
p283
I3
sV1091721600.Thu.Aug.05_16_00_00.GMT.2004.argus02a.c0.daytimex.rect.jpg
p284
I0
sV1401379200.Thu.May.29_16_00_00.GMT.2014.argus02a.c0.daytimex.rect.jpg
p285
I2
sV913395600.Fri.Dec.11_17_00_00.GMT.1998.argus02a.c0.daytimex.rect.jpg
p286
I4
sV1328634000.Tue.Feb.07_17_00_00.GMT.2012.argus02a.c0.daytimex.rect.jpg
p287
I4
sV931622400.Sat.Jul.10_16_00_00.GMT.1999.argus02a.c0.daytimex.rect.jpg
p288
I0
sV1394384400.Sun.Mar.09_17_00_00.GMT.2014.argus02a.c0.daytimex.rect.jpg
p289
I3
sV1401897600.Wed.Jun.04_16_00_00.GMT.2014.argus02a.c0.daytimex.rect.jpg
p290
I2
sV1226422800.Tue.Nov.11_17_00_00.GMT.2008.argus02a.c0.daytimex.rect.jpg
p291
I3
sV1345305600.Sat.Aug.18_16_00_00.GMT.2012.argus02a.c0.daytimex.rect.jpg
p292
I0
sV1037293200.Thu.Nov.14_17_00_00.GMT.2002.argus02a.c0.daytimex.rect.jpg
p293
I4
sV1181836800.Thu.Jun.14_16_00_00.GMT.2007.argus02a.c0.daytimex.rect.jpg
p294
I4
sV730400400.Mon.Feb.22_17_00_00.GMT.1993.argus02.c0.daytimex.rect.jpg
p295
I3
sV941734800.Thu.Nov.04_17_00_00.GMT.1999.argus02a.c0.daytimex.rect.jpg
p296
I2
sV1385053200.Thu.Nov.21_17_00_00.GMT.2013.argus02a.c0.daytimex.rect.jpg
p297
I4
sV824749200.Mon.Feb.19_17_00_00.GMT.1996.argus02.c0.daytimex.rect.jpg
p298
I1
sV1042131600.Thu.Jan.09_17_00_00.GMT.2003.argus02a.c0.daytimex.rect.jpg
p299
I0
sV1385226000.Sat.Nov.23_17_00_00.GMT.2013.argus02a.c0.daytimex.rect.jpg
p300
I3
sV1300986000.Thu.Mar.24_17_00_00.GMT.2011.argus02a.c0.daytimex.rect.jpg
p301
I4
sV766598400.Sun.Apr.17_16_00_00.GMT.1994.argus02.c0.daytimex.rect.jpg
p302
I0
sV1103562000.Mon.Dec.20_17_00_00.GMT.2004.argus02a.c0.daytimex.rect.jpg
p303
I4
sV873216000.Tue.Sep.02_16_00_00.GMT.1997.argus02.c0.daytimex.rect.jpg
p304
I2
sV1177344000.Mon.Apr.23_16_00_00.GMT.2007.argus02a.c0.daytimex.rect.jpg
p305
I3
sV1061222400.Mon.Aug.18_16_00_00.GMT.2003.argus02a.c0.daytimex.rect.jpg
p306
I0
sV1084723200.Sun.May.16_16_00_00.GMT.2004.argus02a.c0.daytimex.rect.jpg
p307
I0
sV1311955200.Fri.Jul.29_16_00_00.GMT.2011.argus02a.c0.daytimex.rect.jpg
p308
I0
sV1331053200.Tue.Mar.06_17_00_00.GMT.2012.argus02a.c0.daytimex.rect.jpg
p309
I1
sV1069693200.Mon.Nov.24_17_00_00.GMT.2003.argus02a.c0.daytimex.rect.jpg
p310
I2
sV815590800.Sun.Nov.05_17_00_00.GMT.1995.argus02.c0.daytimex.rect.jpg
p311
I4
sV933264000.Thu.Jul.29_16_00_00.GMT.1999.argus02a.c0.daytimex.rect.jpg
p312
I0
sV1233248400.Thu.Jan.29_17_00_00.GMT.2009.argus02a.c0.daytimex.rect.jpg
p313
I3
sV1358614800.Sat.Jan.19_17_00_00.GMT.2013.argus02a.c0.daytimex.rect.jpg
p314
I2
sV1248624000.Sun.Jul.26_16_00_00.GMT.2009.argus02a.c0.daytimex.rect.jpg
p315
I1
sV1068570000.Tue.Nov.11_17_00_00.GMT.2003.argus02a.c0.daytimex.rect.jpg
p316
I3
sV1165683600.Sat.Dec.09_17_00_00.GMT.2006.argus02a.c0.daytimex.rect.jpg
p317
I1
sV958665600.Thu.May.18_16_00_00.GMT.2000.argus02a.c0.daytimex.rect.jpg
p318
I2
sV1247760000.Thu.Jul.16_16_00_00.GMT.2009.argus02a.c0.daytimex.rect.jpg
p319
I2
sV1058803200.Mon.Jul.21_16_00_00.GMT.2003.argus02a.c0.daytimex.rect.jpg
p320
I1
sV1373644800.Fri.Jul.12_16_00_00.GMT.2013.argus02a.c0.daytimex.rect.jpg
p321
I2
sV1072630800.Sun.Dec.28_17_00_00.GMT.2003.argus02a.c0.daytimex.rect.jpg
p322
I3
sV775584000.Sat.Jul.30_16_00_00.GMT.1994.argus02.c0.daytimex.rect.jpg
p323
I0
sV750960000.Mon.Oct.18_16_00_00.GMT.1993.argus02.c0.daytimex.rect.jpg
p324
I3
sV1351267200.Fri.Oct.26_16_00_00.GMT.2012.argus02a.c0.daytimex.rect.jpg
p325
I4
sV1076259600.Sun.Feb.08_17_00_00.GMT.2004.argus02a.c0.daytimex.rect.jpg
p326
I4
sV933955200.Fri.Aug.06_16_00_00.GMT.1999.argus02a.c0.daytimex.rect.jpg
p327
I0
sV1231606800.Sat.Jan.10_17_00_00.GMT.2009.argus02a.c0.daytimex.rect.jpg
p328
I4
sV915642000.Wed.Jan.06_17_00_00.GMT.1999.argus02a.c0.daytimex.rect.jpg
p329
I4
sV1072026000.Sun.Dec.21_17_00_00.GMT.2003.argus02a.c0.daytimex.rect.jpg
p330
I3
sV966873600.Mon.Aug.21_16_00_00.GMT.2000.argus02a.c0.daytimex.rect.jpg
p331
I1
sV1345651200.Wed.Aug.22_16_00_00.GMT.2012.argus02a.c0.daytimex.rect.jpg
p332
I1
sV1014742800.Tue.Feb.26_17_00_00.GMT.2002.argus02a.c0.daytimex.rect.jpg
p333
I2
sV1385917200.Sun.Dec.01_17_00_00.GMT.2013.argus02a.c0.daytimex.rect.jpg
p334
I3
sV896630400.Sun.May.31_16_00_00.GMT.1998.argus02a.c0.daytimex.rect.jpg
p335
I2
sV1188748800.Sun.Sep.02_16_00_00.GMT.2007.argus02a.c0.daytimex.rect.jpg
p336
I4
sV1335024000.Sat.Apr.21_16_00_00.GMT.2012.argus02a.c0.daytimex.rect.jpg
p337
I2
sV1287244800.Sat.Oct.16_16_00_00.GMT.2010.argus02a.c0.daytimex.rect.jpg
p338
I3
sV1252771200.Sat.Sep.12_16_00_00.GMT.2009.argus02a.c0.daytimex.rect.jpg
p339
I3
sV872611200.Tue.Aug.26_16_00_00.GMT.1997.argus02.c0.daytimex.rect.jpg
p340
I1
sV817318800.Sat.Nov.25_17_00_00.GMT.1995.argus02.c0.daytimex.rect.jpg
p341
I4
sV809539200.Sun.Aug.27_16_00_00.GMT.1995.argus02.c0.daytimex.rect.jpg
p342
I3
sV1413734400.Sun.Oct.19_16_00_00.GMT.2014.argus02a.c0.daytimex.rect.jpg
p343
I4
sV1183219200.Sat.Jun.30_16_00_00.GMT.2007.argus02a.c0.daytimex.rect.jpg
p344
I0
sV1184169600.Wed.Jul.11_16_00_00.GMT.2007.argus02a.c0.daytimex.rect.jpg
p345
I0
sV835286400.Thu.Jun.20_16_00_00.GMT.1996.argus02.c0.daytimex.rect.jpg
p346
I0
sV1117555200.Tue.May.31_16_00_00.GMT.2005.argus02a.c0.daytimex.rect.jpg
p347
I2
sV1031414400.Sat.Sep.07_16_00_00.GMT.2002.argus02a.c0.daytimex.rect.jpg
p348
I2
sV1303660800.Sun.Apr.24_16_00_00.GMT.2011.argus02a.c0.daytimex.rect.jpg
p349
I4
sV1352221200.Tue.Nov.06_17_00_00.GMT.2012.argus02a.c0.daytimex.rect.jpg
p350
I1
sV825526800.Wed.Feb.28_17_00_00.GMT.1996.argus02.c0.daytimex.rect.jpg
p351
I1
sV820256400.Fri.Dec.29_17_00_00.GMT.1995.argus02.c0.daytimex.rect.jpg
p352
I4
sV1008608400.Mon.Dec.17_17_00_00.GMT.2001.argus02a.c0.daytimex.rect.jpg
p353
I2
sV1197306000.Mon.Dec.10_17_00_00.GMT.2007.argus02a.c0.daytimex.rect.jpg
p354
I0
sV1375718400.Mon.Aug.05_16_00_00.GMT.2013.argus02a.c0.daytimex.rect.jpg
p355
I3
sV1122566400.Thu.Jul.28_16_00_00.GMT.2005.argus02a.c0.daytimex.rect.jpg
p356
I1
sV964972800.Sun.Jul.30_16_00_00.GMT.2000.argus02a.c0.daytimex.rect.jpg
p357
I1
sV1079370000.Mon.Mar.15_17_00_00.GMT.2004.argus02a.c0.daytimex.rect.jpg
p358
I0
sV1298566800.Thu.Feb.24_17_00_00.GMT.2011.argus02a.c0.daytimex.rect.jpg
p359
I4
sV796064400.Fri.Mar.24_17_00_00.GMT.1995.argus02.c0.daytimex.rect.jpg
p360
I3
sV905097600.Sun.Sep.06_16_00_00.GMT.1998.argus02a.c0.daytimex.rect.jpg
p361
I3
sV1377014400.Tue.Aug.20_16_00_00.GMT.2013.argus02a.c0.daytimex.rect.jpg
p362
I2
sV1186243200.Sat.Aug.04_16_00_00.GMT.2007.argus02a.c0.daytimex.rect.jpg
p363
I0
sV833385600.Wed.May.29_16_00_00.GMT.1996.argus02.c0.daytimex.rect.jpg
p364
I1
sV812908800.Thu.Oct.05_16_00_00.GMT.1995.argus02.c0.daytimex.rect.jpg
p365
I3
sV1075914000.Wed.Feb.04_17_00_00.GMT.2004.argus02a.c0.daytimex.rect.jpg
p366
I4
sV1359306000.Sun.Jan.27_17_00_00.GMT.2013.argus02a.c0.daytimex.rect.jpg
p367
I3
sV993484800.Mon.Jun.25_16_00_00.GMT.2001.argus02a.c0.daytimex.rect.jpg
p368
I0
sV898531200.Mon.Jun.22_16_00_00.GMT.1998.argus02a.c0.daytimex.rect.jpg
p369
I1
sV1308067200.Tue.Jun.14_16_00_00.GMT.2011.argus02a.c0.daytimex.rect.jpg
p370
I4
sV1304265600.Sun.May.01_16_00_00.GMT.2011.argus02a.c0.daytimex.rect.jpg
p371
I4
sV984934800.Sun.Mar.18_17_00_00.GMT.2001.argus02a.c0.daytimex.rect.jpg
p372
I1
sV1142874000.Mon.Mar.20_17_00_00.GMT.2006.argus02a.c0.daytimex.rect.jpg
p373
I4
sV942944400.Thu.Nov.18_17_00_00.GMT.1999.argus02a.c0.daytimex.rect.jpg
p374
I4
sV1169312400.Sat.Jan.20_17_00_00.GMT.2007.argus02a.c0.daytimex.rect.jpg
p375
I4
sV1395594000.Sun.Mar.23_17_00_00.GMT.2014.argus02a.c0.daytimex.rect.jpg
p376
I3
sV1381939200.Wed.Oct.16_16_00_00.GMT.2013.argus02a.c0.daytimex.rect.jpg
p377
I2
sV1273161600.Thu.May.06_16_00_00.GMT.2010.argus02a.c0.daytimex.rect.jpg
p378
I0
sV1277136000.Mon.Jun.21_16_00_00.GMT.2010.argus02a.c0.daytimex.rect.jpg
p379
I4
sV738691200.Sat.May.29_16_00_00.GMT.1993.argus02.c0.daytimex.rect.jpg
p380
I0
sV816886800.Mon.Nov.20_17_00_00.GMT.1995.argus02.c0.daytimex.rect.jpg
p381
I4
sV1251820800.Tue.Sep.01_16_00_00.GMT.2009.argus02a.c0.daytimex.rect.jpg
p382
I4
sV948474000.Fri.Jan.21_17_00_00.GMT.2000.argus02a.c0.daytimex.rect.jpg
p383
I4
sV1409587200.Mon.Sep.01_16_00_00.GMT.2014.argus02a.c0.daytimex.rect.jpg
p384
I4
sV1017853200.Wed.Apr.03_17_00_00.GMT.2002.argus02a.c0.daytimex.rect.jpg
p385
I3
sV1176393600.Thu.Apr.12_16_00_00.GMT.2007.argus02a.c0.daytimex.rect.jpg
p386
I4
sV1172250000.Fri.Feb.23_17_00_00.GMT.2007.argus02a.c0.daytimex.rect.jpg
p387
I4
sV871747200.Sat.Aug.16_16_00_00.GMT.1997.argus02.c0.daytimex.rect.jpg
p388
I1
sV1256576400.Mon.Oct.26_17_00_00.GMT.2009.argus02a.c0.daytimex.rect.jpg
p389
I3
sV1332003600.Sat.Mar.17_17_00_00.GMT.2012.argus02a.c0.daytimex.rect.jpg
p390
I0
sV1285603200.Mon.Sep.27_16_00_00.GMT.2010.argus02a.c0.daytimex.rect.jpg
p391
I3
sV1285689600.Tue.Sep.28_16_00_00.GMT.2010.argus02a.c0.daytimex.rect.jpg
p392
I4
sV1179590400.Sat.May.19_16_00_00.GMT.2007.argus02a.c0.daytimex.rect.jpg
p393
I4
sV1002902400.Fri.Oct.12_16_00_00.GMT.2001.argus02a.c0.daytimex.rect.jpg
p394
I1
sV1174582800.Thu.Mar.22_17_00_00.GMT.2007.argus02a.c0.daytimex.rect.jpg
p395
I4
sV921171600.Thu.Mar.11_17_00_00.GMT.1999.argus02a.c0.daytimex.rect.jpg
p396
I4
sV847386000.Thu.Nov.07_17_00_00.GMT.1996.argus02.c0.daytimex.rect.jpg
p397
I4
sV1298307600.Mon.Feb.21_17_00_00.GMT.2011.argus02a.c0.daytimex.rect.jpg
p398
I4
sV1196528400.Sat.Dec.01_17_00_00.GMT.2007.argus02a.c0.daytimex.rect.jpg
p399
I4
sV755629200.Sat.Dec.11_17_00_00.GMT.1993.argus02.c0.daytimex.rect.jpg
p400
I4
sV992448000.Wed.Jun.13_16_00_00.GMT.2001.argus02a.c0.daytimex.rect.jpg
p401
I0
sV1388509200.Tue.Dec.31_17_00_00.GMT.2013.argus02a.c0.daytimex.rect.jpg
p402
I3
sV1156867200.Tue.Aug.29_16_00_00.GMT.2006.argus02a.c0.daytimex.rect.jpg
p403
I1
sV1261155600.Fri.Dec.18_17_00_00.GMT.2009.argus02a.c0.daytimex.rect.jpg
p404
I4
sV911149200.Sun.Nov.15_17_00_00.GMT.1998.argus02a.c0.daytimex.rect.jpg
p405
I2
sV778176000.Mon.Aug.29_16_00_00.GMT.1994.argus02.c0.daytimex.rect.jpg
p406
I4
sV869846400.Fri.Jul.25_16_00_00.GMT.1997.argus02.c0.daytimex.rect.jpg
p407
I1
sV741888000.Mon.Jul.05_16_00_00.GMT.1993.argus02.c0.daytimex.rect.jpg
p408
I0
sV1168016400.Fri.Jan.05_17_00_00.GMT.2007.argus02a.c0.daytimex.rect.jpg
p409
I1
sV966182400.Sun.Aug.13_16_00_00.GMT.2000.argus02a.c0.daytimex.rect.jpg
p410
I4
sV1038416400.Wed.Nov.27_17_00_00.GMT.2002.argus02a.c0.daytimex.rect.jpg
p411
I4
sV1272297600.Mon.Apr.26_16_00_00.GMT.2010.argus02a.c0.daytimex.rect.jpg
p412
I3
sV854298000.Sun.Jan.26_17_00_00.GMT.1997.argus02.c0.daytimex.rect.jpg
p413
I4
sV1355590800.Sat.Dec.15_17_00_00.GMT.2012.argus02a.c0.daytimex.rect.jpg
p414
I2
sV1032278400.Tue.Sep.17_16_00_00.GMT.2002.argus02a.c0.daytimex.rect.jpg
p415
I4
sV842976000.Tue.Sep.17_16_00_00.GMT.1996.argus02.c0.daytimex.rect.jpg
p416
I1
sV1094227200.Fri.Sep.03_16_00_00.GMT.2004.argus02a.c0.daytimex.rect.jpg
p417
I1
sV825958800.Mon.Mar.04_17_00_00.GMT.1996.argus02.c0.daytimex.rect.jpg
p418
I4
sV942685200.Mon.Nov.15_17_00_00.GMT.1999.argus02a.c0.daytimex.rect.jpg
p419
I4
sV838396800.Fri.Jul.26_16_00_00.GMT.1996.argus02.c0.daytimex.rect.jpg
p420
I1
sV927648000.Tue.May.25_16_00_00.GMT.1999.argus02a.c0.daytimex.rect.jpg
p421
I0
sV1177257600.Sun.Apr.22_16_00_00.GMT.2007.argus02a.c0.daytimex.rect.jpg
p422
I3
sV840297600.Sat.Aug.17_16_00_00.GMT.1996.argus02.c0.daytimex.rect.jpg
p423
I1
sV739296000.Sat.Jun.05_16_00_00.GMT.1993.argus02.c0.daytimex.rect.jpg
p424
I2
sV861292800.Thu.Apr.17_16_00_00.GMT.1997.argus02.c0.daytimex.rect.jpg
p425
I3
sV1283184000.Mon.Aug.30_16_00_00.GMT.2010.argus02a.c0.daytimex.rect.jpg
p426
I1
sV1312387200.Wed.Aug.03_16_00_00.GMT.2011.argus02a.c0.daytimex.rect.jpg
p427
I0
sV1112803200.Wed.Apr.06_16_00_00.GMT.2005.argus02a.c0.daytimex.rect.jpg
p428
I0
sV1164819600.Wed.Nov.29_17_00_00.GMT.2006.argus02a.c0.daytimex.rect.jpg
p429
I1
sV1103043600.Tue.Dec.14_17_00_00.GMT.2004.argus02a.c0.daytimex.rect.jpg
p430
I3
sV831052800.Thu.May.02_16_00_00.GMT.1996.argus02.c0.daytimex.rect.jpg
p431
I1
sV1031328000.Fri.Sep.06_16_00_00.GMT.2002.argus02a.c0.daytimex.rect.jpg
p432
I2
sV1032624000.Sat.Sep.21_16_00_00.GMT.2002.argus02a.c0.daytimex.rect.jpg
p433
I3
sV1374854400.Fri.Jul.26_16_00_00.GMT.2013.argus02a.c0.daytimex.rect.jpg
p434
I1
sV1358787600.Mon.Jan.21_17_00_00.GMT.2013.argus02a.c0.daytimex.rect.jpg
p435
I2
sV1085500800.Tue.May.25_16_00_00.GMT.2004.argus02a.c0.daytimex.rect.jpg
p436
I0
sV1409155200.Wed.Aug.27_16_00_00.GMT.2014.argus02a.c0.daytimex.rect.jpg
p437
I3
sV1048611600.Tue.Mar.25_17_00_00.GMT.2003.argus02a.c0.daytimex.rect.jpg
p438
I1
sV1229792400.Sat.Dec.20_17_00_00.GMT.2008.argus02a.c0.daytimex.rect.jpg
p439
I2
sV1184428800.Sat.Jul.14_16_00_00.GMT.2007.argus02a.c0.daytimex.rect.jpg
p440
I0
sV1381593600.Sat.Oct.12_16_00_00.GMT.2013.argus02a.c0.daytimex.rect.jpg
p441
I2
sV1180540800.Wed.May.30_16_00_00.GMT.2007.argus02a.c0.daytimex.rect.jpg
p442
I0
sV1380643200.Tue.Oct.01_16_00_00.GMT.2013.argus02a.c0.daytimex.rect.jpg
p443
I2
sV799689600.Fri.May.05_16_00_00.GMT.1995.argus02.c0.daytimex.rect.jpg
p444
I3
sV992793600.Sun.Jun.17_16_00_00.GMT.2001.argus02a.c0.daytimex.rect.jpg
p445
I0
sV744566400.Thu.Aug.05_16_00_00.GMT.1993.argus02.c0.daytimex.rect.jpg
p446
I1
sV1040144400.Tue.Dec.17_17_00_00.GMT.2002.argus02a.c0.daytimex.rect.jpg
p447
I4
sV1411142400.Fri.Sep.19_16_00_00.GMT.2014.argus02a.c0.daytimex.rect.jpg
p448
I3
sV797443200.Sun.Apr.09_16_00_00.GMT.1995.argus02.c0.daytimex.rect.jpg
p449
I4
sV1120924800.Sat.Jul.09_16_00_00.GMT.2005.argus02a.c0.daytimex.rect.jpg
p450
I2
sV769622400.Sun.May.22_16_00_00.GMT.1994.argus02.c0.daytimex.rect.jpg
p451
I4
sV1081699200.Sun.Apr.11_16_00_00.GMT.2004.argus02a.c0.daytimex.rect.jpg
p452
I2
sV1089561600.Sun.Jul.11_16_00_00.GMT.2004.argus02a.c0.daytimex.rect.jpg
p453
I0
sV1387645200.Sat.Dec.21_17_00_00.GMT.2013.argus02a.c0.daytimex.rect.jpg
p454
I4
sV1357232400.Thu.Jan.03_17_00_00.GMT.2013.argus02a.c0.daytimex.rect.jpg
p455
I1
sV926179200.Sat.May.08_16_00_00.GMT.1999.argus02a.c0.daytimex.rect.jpg
p456
I0
sV739555200.Tue.Jun.08_16_00_00.GMT.1993.argus02.c0.daytimex.rect.jpg
p457
I0
sV827427600.Thu.Mar.21_17_00_00.GMT.1996.argus02.c0.daytimex.rect.jpg
p458
I1
sV932313600.Sun.Jul.18_16_00_00.GMT.1999.argus02a.c0.daytimex.rect.jpg
p459
I0
sV1410105600.Sun.Sep.07_16_00_00.GMT.2014.argus02a.c0.daytimex.rect.jpg
p460
I3
sV896976000.Thu.Jun.04_16_00_00.GMT.1998.argus02a.c0.daytimex.rect.jpg
p461
I2
sV1339084800.Thu.Jun.07_16_00_00.GMT.2012.argus02a.c0.daytimex.rect.jpg
p462
I2
sV1071248400.Fri.Dec.12_17_00_00.GMT.2003.argus02a.c0.daytimex.rect.jpg
p463
I4
sV1190563200.Sun.Sep.23_16_00_00.GMT.2007.argus02a.c0.daytimex.rect.jpg
p464
I0
sV1190822400.Wed.Sep.26_16_00_00.GMT.2007.argus02a.c0.daytimex.rect.jpg
p465
I0
sV1293210000.Fri.Dec.24_17_00_00.GMT.2010.argus02a.c0.daytimex.rect.jpg
p466
I4
sV954608400.Sat.Apr.01_17_00_00.GMT.2000.argus02a.c0.daytimex.rect.jpg
p467
I2
sV1046797200.Tue.Mar.04_17_00_00.GMT.2003.argus02a.c0.daytimex.rect.jpg
p468
I2
sV1317398400.Fri.Sep.30_16_00_00.GMT.2011.argus02a.c0.daytimex.rect.jpg
p469
I4
sV1392570000.Sun.Feb.16_17_00_00.GMT.2014.argus02a.c0.daytimex.rect.jpg
p470
I4
sV1125590400.Thu.Sep.01_16_00_00.GMT.2005.argus02a.c0.daytimex.rect.jpg
p471
I1
sV1072544400.Sat.Dec.27_17_00_00.GMT.2003.argus02a.c0.daytimex.rect.jpg
p472
I3
sV1019318400.Sat.Apr.20_16_00_00.GMT.2002.argus02a.c0.daytimex.rect.jpg
p473
I0
sV779472000.Tue.Sep.13_16_00_00.GMT.1994.argus02.c0.daytimex.rect.jpg
p474
I0
sV1080752400.Wed.Mar.31_17_00_00.GMT.2004.argus02a.c0.daytimex.rect.jpg
p475
I2
sV1415638800.Mon.Nov.10_17_00_00.GMT.2014.argus02a.c0.daytimex.rect.jpg
p476
I4
sV1330534800.Wed.Feb.29_17_00_00.GMT.2012.argus02a.c0.daytimex.rect.jpg
p477
I0
sV1234890000.Tue.Feb.17_17_00_00.GMT.2009.argus02a.c0.daytimex.rect.jpg
p478
I4
sV1260896400.Tue.Dec.15_17_00_00.GMT.2009.argus02a.c0.daytimex.rect.jpg
p479
I0
sV1089734400.Tue.Jul.13_16_00_00.GMT.2004.argus02a.c0.daytimex.rect.jpg
p480
I0
sV757011600.Mon.Dec.27_17_00_00.GMT.1993.argus02.c0.daytimex.rect.jpg
p481
I0
sV1163782800.Fri.Nov.17_17_00_00.GMT.2006.argus02a.c0.daytimex.rect.jpg
p482
I4
sV1362502800.Tue.Mar.05_17_00_00.GMT.2013.argus02a.c0.daytimex.rect.jpg
p483
I1
sV1113840000.Mon.Apr.18_16_00_00.GMT.2005.argus02a.c0.daytimex.rect.jpg
p484
I2
sV1193414400.Fri.Oct.26_16_00_00.GMT.2007.argus02a.c0.daytimex.rect.jpg
p485
I4
sV1339257600.Sat.Jun.09_16_00_00.GMT.2012.argus02a.c0.daytimex.rect.jpg
p486
I2
sV1193936400.Thu.Nov.01_17_00_00.GMT.2007.argus02a.c0.daytimex.rect.jpg
p487
I0
sV1392138000.Tue.Feb.11_17_00_00.GMT.2014.argus02a.c0.daytimex.rect.jpg
p488
I4
sV1121011200.Sun.Jul.10_16_00_00.GMT.2005.argus02a.c0.daytimex.rect.jpg
p489
I2
sV746035200.Sun.Aug.22_16_00_00.GMT.1993.argus02.c0.daytimex.rect.jpg
p490
I1
sV1119801600.Sun.Jun.26_16_00_00.GMT.2005.argus02a.c0.daytimex.rect.jpg
p491
I2
sV910803600.Wed.Nov.11_17_00_00.GMT.1998.argus02a.c0.daytimex.rect.jpg
p492
I2
sV787856400.Mon.Dec.19_17_00_00.GMT.1994.argus02.c0.daytimex.rect.jpg
p493
I4
sV1131814800.Sat.Nov.12_17_00_00.GMT.2005.argus02a.c0.daytimex.rect.jpg
p494
I4
sV1005325200.Fri.Nov.09_17_00_00.GMT.2001.argus02a.c0.daytimex.rect.jpg
p495
I1
sV786906000.Thu.Dec.08_17_00_00.GMT.1994.argus02.c0.daytimex.rect.jpg
p496
I4
sV930499200.Sun.Jun.27_16_00_00.GMT.1999.argus02a.c0.daytimex.rect.jpg
p497
I2
sV838224000.Wed.Jul.24_16_00_00.GMT.1996.argus02.c0.daytimex.rect.jpg
p498
I0
sV1137690000.Thu.Jan.19_17_00_00.GMT.2006.argus02a.c0.daytimex.rect.jpg
p499
I4
sV1293642000.Wed.Dec.29_17_00_00.GMT.2010.argus02a.c0.daytimex.rect.jpg
p500
I3
sV1006275600.Tue.Nov.20_17_00_00.GMT.2001.argus02a.c0.daytimex.rect.jpg
p501
I1
sV965491200.Sat.Aug.05_16_00_00.GMT.2000.argus02a.c0.daytimex.rect.jpg
p502
I0
sV764701200.Sat.Mar.26_17_00_00.GMT.1994.argus02.c0.daytimex.rect.jpg
p503
I4
sV1032883200.Tue.Sep.24_16_00_00.GMT.2002.argus02a.c0.daytimex.rect.jpg
p504
I4
sV1216224000.Wed.Jul.16_16_00_00.GMT.2008.argus02a.c0.daytimex.rect.jpg
p505
I1
sV1139590800.Fri.Feb.10_17_00_00.GMT.2006.argus02a.c0.daytimex.rect.jpg
p506
I0
sV873475200.Fri.Sep.05_16_00_00.GMT.1997.argus02.c0.daytimex.rect.jpg
p507
I4
sV1192464000.Mon.Oct.15_16_00_00.GMT.2007.argus02a.c0.daytimex.rect.jpg
p508
I0
sV802972800.Mon.Jun.12_16_00_00.GMT.1995.argus02.c0.daytimex.rect.jpg
p509
I0
sV995299200.Mon.Jul.16_16_00_00.GMT.2001.argus02a.c0.daytimex.rect.jpg
p510
I0
sV1023465600.Fri.Jun.07_16_00_00.GMT.2002.argus02a.c0.daytimex.rect.jpg
p511
I2
sV1333126800.Fri.Mar.30_17_00_00.GMT.2012.argus02a.c0.daytimex.rect.jpg
p512
I1
sV902246400.Tue.Aug.04_16_00_00.GMT.1998.argus02a.c0.daytimex.rect.jpg
p513
I2
sV1014310800.Thu.Feb.21_17_00_00.GMT.2002.argus02a.c0.daytimex.rect.jpg
p514
I3
sV905011200.Sat.Sep.05_16_00_00.GMT.1998.argus02a.c0.daytimex.rect.jpg
p515
I3
sV985539600.Sun.Mar.25_17_00_00.GMT.2001.argus02a.c0.daytimex.rect.jpg
p516
I1
sV1338566400.Fri.Jun.01_16_00_00.GMT.2012.argus02a.c0.daytimex.rect.jpg
p517
I3
sV1103734800.Wed.Dec.22_17_00_00.GMT.2004.argus02a.c0.daytimex.rect.jpg
p518
I4
sV1084982400.Wed.May.19_16_00_00.GMT.2004.argus02a.c0.daytimex.rect.jpg
p519
I0
sV840556800.Tue.Aug.20_16_00_00.GMT.1996.argus02.c0.daytimex.rect.jpg
p520
I0
sV1345564800.Tue.Aug.21_16_00_00.GMT.2012.argus02a.c0.daytimex.rect.jpg
p521
I1
sV879526800.Fri.Nov.14_17_00_00.GMT.1997.argus02.c0.daytimex.rect.jpg
p522
I2
sV1171904400.Mon.Feb.19_17_00_00.GMT.2007.argus02a.c0.daytimex.rect.jpg
p523
I4
sV839952000.Tue.Aug.13_16_00_00.GMT.1996.argus02.c0.daytimex.rect.jpg
p524
I1
sV1049216400.Tue.Apr.01_17_00_00.GMT.2003.argus02a.c0.daytimex.rect.jpg
p525
I1
sV1017248400.Wed.Mar.27_17_00_00.GMT.2002.argus02a.c0.daytimex.rect.jpg
p526
I3
sV741283200.Mon.Jun.28_16_00_00.GMT.1993.argus02.c0.daytimex.rect.jpg
p527
I0
sV769795200.Tue.May.24_16_00_00.GMT.1994.argus02.c0.daytimex.rect.jpg
p528
I4
sV1253030400.Tue.Sep.15_16_00_00.GMT.2009.argus02a.c0.daytimex.rect.jpg
p529
I3
sV934992000.Wed.Aug.18_16_00_00.GMT.1999.argus02a.c0.daytimex.rect.jpg
p530
I0
sV1036170000.Fri.Nov.01_17_00_00.GMT.2002.argus02a.c0.daytimex.rect.jpg
p531
I3
sV832435200.Sat.May.18_16_00_00.GMT.1996.argus02.c0.daytimex.rect.jpg
p532
I1
sV896457600.Fri.May.29_16_00_00.GMT.1998.argus02a.c0.daytimex.rect.jpg
p533
I2
sV835372800.Fri.Jun.21_16_00_00.GMT.1996.argus02.c0.daytimex.rect.jpg
p534
I0
sV845136000.Sat.Oct.12_16_00_00.GMT.1996.argus02.c0.daytimex.rect.jpg
p535
I1
sV1180281600.Sun.May.27_16_00_00.GMT.2007.argus02a.c0.daytimex.rect.jpg
p536
I0
sV1091030400.Wed.Jul.28_16_00_00.GMT.2004.argus02a.c0.daytimex.rect.jpg
p537
I0
sV1343145600.Tue.Jul.24_16_00_00.GMT.2012.argus02a.c0.daytimex.rect.jpg
p538
I1
sV1394816400.Fri.Mar.14_17_00_00.GMT.2014.argus02a.c0.daytimex.rect.jpg
p539
I3
sV963417600.Wed.Jul.12_16_00_00.GMT.2000.argus02a.c0.daytimex.rect.jpg
p540
I1
sV927993600.Sat.May.29_16_00_00.GMT.1999.argus02a.c0.daytimex.rect.jpg
p541
I0
sV805219200.Sat.Jul.08_16_00_00.GMT.1995.argus02.c0.daytimex.rect.jpg
p542
I2
sV779212800.Sat.Sep.10_16_00_00.GMT.1994.argus02.c0.daytimex.rect.jpg
p543
I0
sV1072285200.Wed.Dec.24_17_00_00.GMT.2003.argus02a.c0.daytimex.rect.jpg
p544
I4
sV768844800.Fri.May.13_16_00_00.GMT.1994.argus02.c0.daytimex.rect.jpg
p545
I4
sV924451200.Sun.Apr.18_16_00_00.GMT.1999.argus02a.c0.daytimex.rect.jpg
p546
I3
sV817664400.Wed.Nov.29_17_00_00.GMT.1995.argus02.c0.daytimex.rect.jpg
p547
I4
sV1060876800.Thu.Aug.14_16_00_00.GMT.2003.argus02a.c0.daytimex.rect.jpg
p548
I1
sV864489600.Sat.May.24_16_00_00.GMT.1997.argus02.c0.daytimex.rect.jpg
p549
I1
sV1334160000.Wed.Apr.11_16_00_00.GMT.2012.argus02a.c0.daytimex.rect.jpg
p550
I1
sV1295110800.Sat.Jan.15_17_00_00.GMT.2011.argus02a.c0.daytimex.rect.jpg
p551
I3
sV1326560400.Sat.Jan.14_17_00_00.GMT.2012.argus02a.c0.daytimex.rect.jpg
p552
I0
sV957542400.Fri.May.05_16_00_00.GMT.2000.argus02a.c0.daytimex.rect.jpg
p553
I2
sV994262400.Wed.Jul.04_16_00_00.GMT.2001.argus02a.c0.daytimex.rect.jpg
p554
I0
sV1250265600.Fri.Aug.14_16_00_00.GMT.2009.argus02a.c0.daytimex.rect.jpg
p555
I1
sV1190476800.Sat.Sep.22_16_00_00.GMT.2007.argus02a.c0.daytimex.rect.jpg
p556
I0
sV799084800.Fri.Apr.28_16_00_00.GMT.1995.argus02.c0.daytimex.rect.jpg
p557
I3
sV829065600.Tue.Apr.09_16_00_00.GMT.1996.argus02.c0.daytimex.rect.jpg
p558
I4
sV1252944000.Mon.Sep.14_16_00_00.GMT.2009.argus02a.c0.daytimex.rect.jpg
p559
I3
sV1095955200.Thu.Sep.23_16_00_00.GMT.2004.argus02a.c0.daytimex.rect.jpg
p560
I3
sV1196269200.Wed.Nov.28_17_00_00.GMT.2007.argus02a.c0.daytimex.rect.jpg
p561
I4
sV884797200.Wed.Jan.14_17_00_00.GMT.1998.argus02a.c0.daytimex.rect.jpg
p562
I4
sV900432000.Tue.Jul.14_16_00_00.GMT.1998.argus02a.c0.daytimex.rect.jpg
p563
I2
sV1015693200.Sat.Mar.09_17_00_00.GMT.2002.argus02a.c0.daytimex.rect.jpg
p564
I3
sV821206800.Tue.Jan.09_17_00_00.GMT.1996.argus02.c0.daytimex.rect.jpg
p565
I4
sV1223308800.Mon.Oct.06_16_00_00.GMT.2008.argus02a.c0.daytimex.rect.jpg
p566
I1
sV1357578000.Mon.Jan.07_17_00_00.GMT.2013.argus02a.c0.daytimex.rect.jpg
p567
I4
sV1322413200.Sun.Nov.27_17_00_00.GMT.2011.argus02a.c0.daytimex.rect.jpg
p568
I0
sV1234976400.Wed.Feb.18_17_00_00.GMT.2009.argus02a.c0.daytimex.rect.jpg
p569
I3
sV932572800.Wed.Jul.21_16_00_00.GMT.1999.argus02a.c0.daytimex.rect.jpg
p570
I0
sV1226336400.Mon.Nov.10_17_00_00.GMT.2008.argus02a.c0.daytimex.rect.jpg
p571
I3
sV875808000.Thu.Oct.02_16_00_00.GMT.1997.argus02.c0.daytimex.rect.jpg
p572
I4
sV1255276800.Sun.Oct.11_16_00_00.GMT.2009.argus02a.c0.daytimex.rect.jpg
p573
I2
s.