(dp0
S'valfiles'
p1
(lp2
V1084982400.Wed.May.19_16_00_00.GMT.2004.argus02a.c0.daytimex.rect.jpg
p3
aV1273161600.Thu.May.06_16_00_00.GMT.2010.argus02a.c0.daytimex.rect.jpg
p4
aV1061222400.Mon.Aug.18_16_00_00.GMT.2003.argus02a.c0.daytimex.rect.jpg
p5
aV1152201600.Thu.Jul.06_16_00_00.GMT.2006.argus02a.c0.daytimex.rect.jpg
p6
aV1310572800.Wed.Jul.13_16_00_00.GMT.2011.argus02a.c0.daytimex.rect.jpg
p7
aV1326560400.Sat.Jan.14_17_00_00.GMT.2012.argus02a.c0.daytimex.rect.jpg
p8
aV1197306000.Mon.Dec.10_17_00_00.GMT.2007.argus02a.c0.daytimex.rect.jpg
p9
aV1180281600.Sun.May.27_16_00_00.GMT.2007.argus02a.c0.daytimex.rect.jpg
p10
aV1345305600.Sat.Aug.18_16_00_00.GMT.2012.argus02a.c0.daytimex.rect.jpg
p11
aV1409846400.Thu.Sep.04_16_00_00.GMT.2014.argus02a.c0.daytimex.rect.jpg
p12
aV741283200.Mon.Jun.28_16_00_00.GMT.1993.argus02.c0.daytimex.rect.jpg
p13
aV779731200.Fri.Sep.16_16_00_00.GMT.1994.argus02.c0.daytimex.rect.jpg
p14
aV1180540800.Wed.May.30_16_00_00.GMT.2007.argus02a.c0.daytimex.rect.jpg
p15
aV1184428800.Sat.Jul.14_16_00_00.GMT.2007.argus02a.c0.daytimex.rect.jpg
p16
aV1215100800.Thu.Jul.03_16_00_00.GMT.2008.argus02a.c0.daytimex.rect.jpg
p17
aV832348800.Fri.May.17_16_00_00.GMT.1996.argus02.c0.daytimex.rect.jpg
p18
aV898531200.Mon.Jun.22_16_00_00.GMT.1998.argus02a.c0.daytimex.rect.jpg
p19
aV827427600.Thu.Mar.21_17_00_00.GMT.1996.argus02.c0.daytimex.rect.jpg
p20
aV864489600.Sat.May.24_16_00_00.GMT.1997.argus02.c0.daytimex.rect.jpg
p21
aV1343664000.Mon.Jul.30_16_00_00.GMT.2012.argus02a.c0.daytimex.rect.jpg
p22
aV991584000.Sun.Jun.03_16_00_00.GMT.2001.argus02a.c0.daytimex.rect.jpg
p23
aV831052800.Thu.May.02_16_00_00.GMT.1996.argus02.c0.daytimex.rect.jpg
p24
aV845136000.Sat.Oct.12_16_00_00.GMT.1996.argus02.c0.daytimex.rect.jpg
p25
aV1002902400.Fri.Oct.12_16_00_00.GMT.2001.argus02a.c0.daytimex.rect.jpg
p26
aV1345564800.Tue.Aug.21_16_00_00.GMT.2012.argus02a.c0.daytimex.rect.jpg
p27
aV1005325200.Fri.Nov.09_17_00_00.GMT.2001.argus02a.c0.daytimex.rect.jpg
p28
aV825526800.Wed.Feb.28_17_00_00.GMT.1996.argus02.c0.daytimex.rect.jpg
p29
aV1356454800.Tue.Dec.25_17_00_00.GMT.2012.argus02a.c0.daytimex.rect.jpg
p30
aV1340726400.Tue.Jun.26_16_00_00.GMT.2012.argus02a.c0.daytimex.rect.jpg
p31
aV1249056000.Fri.Jul.31_16_00_00.GMT.2009.argus02a.c0.daytimex.rect.jpg
p32
aV1380643200.Tue.Oct.01_16_00_00.GMT.2013.argus02a.c0.daytimex.rect.jpg
p33
aV1009818000.Mon.Dec.31_17_00_00.GMT.2001.argus02a.c0.daytimex.rect.jpg
p34
aV1116000000.Fri.May.13_16_00_00.GMT.2005.argus02a.c0.daytimex.rect.jpg
p35
aV1377014400.Tue.Aug.20_16_00_00.GMT.2013.argus02a.c0.daytimex.rect.jpg
p36
aV1404403200.Thu.Jul.03_16_00_00.GMT.2014.argus02a.c0.daytimex.rect.jpg
p37
aV1339257600.Sat.Jun.09_16_00_00.GMT.2012.argus02a.c0.daytimex.rect.jpg
p38
aV1031414400.Sat.Sep.07_16_00_00.GMT.2002.argus02a.c0.daytimex.rect.jpg
p39
aV894038400.Fri.May.01_16_00_00.GMT.1998.argus02a.c0.daytimex.rect.jpg
p40
aV971798400.Tue.Oct.17_16_00_00.GMT.2000.argus02a.c0.daytimex.rect.jpg
p41
aV879526800.Fri.Nov.14_17_00_00.GMT.1997.argus02.c0.daytimex.rect.jpg
p42
aV1097337600.Sat.Oct.09_16_00_00.GMT.2004.argus02a.c0.daytimex.rect.jpg
p43
aV1120752000.Thu.Jul.07_16_00_00.GMT.2005.argus02a.c0.daytimex.rect.jpg
p44
aV801676800.Sun.May.28_16_00_00.GMT.1995.argus02.c0.daytimex.rect.jpg
p45
aV740332800.Thu.Jun.17_16_00_00.GMT.1993.argus02.c0.daytimex.rect.jpg
p46
aV1380643200.Tue.Oct.01_16_00_00.GMT.2013.argus02a.c0.daytimex.rect.jpg
p47
aV1014310800.Thu.Feb.21_17_00_00.GMT.2002.argus02a.c0.daytimex.rect.jpg
p48
aV1023897600.Wed.Jun.12_16_00_00.GMT.2002.argus02a.c0.daytimex.rect.jpg
p49
aV1017248400.Wed.Mar.27_17_00_00.GMT.2002.argus02a.c0.daytimex.rect.jpg
p50
aV1226163600.Sat.Nov.08_17_00_00.GMT.2008.argus02a.c0.daytimex.rect.jpg
p51
aV1386176400.Wed.Dec.04_17_00_00.GMT.2013.argus02a.c0.daytimex.rect.jpg
p52
aV1095955200.Thu.Sep.23_16_00_00.GMT.2004.argus02a.c0.daytimex.rect.jpg
p53
aV1072630800.Sun.Dec.28_17_00_00.GMT.2003.argus02a.c0.daytimex.rect.jpg
p54
aV1226422800.Tue.Nov.11_17_00_00.GMT.2008.argus02a.c0.daytimex.rect.jpg
p55
aV1243008000.Fri.May.22_16_00_00.GMT.2009.argus02a.c0.daytimex.rect.jpg
p56
aV1307116800.Fri.Jun.03_16_00_00.GMT.2011.argus02a.c0.daytimex.rect.jpg
p57
aV1396972800.Tue.Apr.08_16_00_00.GMT.2014.argus02a.c0.daytimex.rect.jpg
p58
aV1127318400.Wed.Sep.21_16_00_00.GMT.2005.argus02a.c0.daytimex.rect.jpg
p59
aV1394384400.Sun.Mar.09_17_00_00.GMT.2014.argus02a.c0.daytimex.rect.jpg
p60
aV1284393600.Mon.Sep.13_16_00_00.GMT.2010.argus02a.c0.daytimex.rect.jpg
p61
aV1068570000.Tue.Nov.11_17_00_00.GMT.2003.argus02a.c0.daytimex.rect.jpg
p62
aV1390323600.Tue.Jan.21_17_00_00.GMT.2014.argus02a.c0.daytimex.rect.jpg
p63
aV1179590400.Sat.May.19_16_00_00.GMT.2007.argus02a.c0.daytimex.rect.jpg
p64
aV1071248400.Fri.Dec.12_17_00_00.GMT.2003.argus02a.c0.daytimex.rect.jpg
p65
aV1234890000.Tue.Feb.17_17_00_00.GMT.2009.argus02a.c0.daytimex.rect.jpg
p66
aV942685200.Mon.Nov.15_17_00_00.GMT.1999.argus02a.c0.daytimex.rect.jpg
p67
aV1117814400.Fri.Jun.03_16_00_00.GMT.2005.argus02a.c0.daytimex.rect.jpg
p68
aV1041008400.Fri.Dec.27_17_00_00.GMT.2002.argus02a.c0.daytimex.rect.jpg
p69
aV820947600.Sat.Jan.06_17_00_00.GMT.1996.argus02.c0.daytimex.rect.jpg
p70
aV1304438400.Tue.May.03_16_00_00.GMT.2011.argus02a.c0.daytimex.rect.jpg
p71
aV1387126800.Sun.Dec.15_17_00_00.GMT.2013.argus02a.c0.daytimex.rect.jpg
p72
aV1074358800.Sat.Jan.17_17_00_00.GMT.2004.argus02a.c0.daytimex.rect.jpg
p73
aV1285689600.Tue.Sep.28_16_00_00.GMT.2010.argus02a.c0.daytimex.rect.jpg
p74
aV1299690000.Wed.Mar.09_17_00_00.GMT.2011.argus02a.c0.daytimex.rect.jpg
p75
aV1232816400.Sat.Jan.24_17_00_00.GMT.2009.argus02a.c0.daytimex.rect.jpg
p76
aV1176393600.Thu.Apr.12_16_00_00.GMT.2007.argus02a.c0.daytimex.rect.jpg
p77
as.