(lp0
V933955200.Fri.Aug.06_16_00_00.GMT.1999.argus02a.c0.daytimex.rect.jpg
p1
aV1218124800.Thu.Aug.07_16_00_00.GMT.2008.argus02a.c0.daytimex.rect.jpg
p2
aV927475200.Sun.May.23_16_00_00.GMT.1999.argus02a.c0.daytimex.rect.jpg
p3
aV1190476800.Sat.Sep.22_16_00_00.GMT.2007.argus02a.c0.daytimex.rect.jpg
p4
aV835286400.Thu.Jun.20_16_00_00.GMT.1996.argus02.c0.daytimex.rect.jpg
p5
aV1112803200.Wed.Apr.06_16_00_00.GMT.2005.argus02a.c0.daytimex.rect.jpg
p6
aV766598400.Sun.Apr.17_16_00_00.GMT.1994.argus02.c0.daytimex.rect.jpg
p7
aV771091200.Wed.Jun.08_16_00_00.GMT.1994.argus02.c0.daytimex.rect.jpg
p8
aV933264000.Thu.Jul.29_16_00_00.GMT.1999.argus02a.c0.daytimex.rect.jpg
p9
aV1086192000.Wed.Jun.02_16_00_00.GMT.2004.argus02a.c0.daytimex.rect.jpg
p10
aV733597200.Wed.Mar.31_17_00_00.GMT.1993.argus02.c0.daytimex.rect.jpg
p11
aV926179200.Sat.May.08_16_00_00.GMT.1999.argus02a.c0.daytimex.rect.jpg
p12
aV1152201600.Thu.Jul.06_16_00_00.GMT.2006.argus02a.c0.daytimex.rect.jpg
p13
aV1184428800.Sat.Jul.14_16_00_00.GMT.2007.argus02a.c0.daytimex.rect.jpg
p14
aV1345305600.Sat.Aug.18_16_00_00.GMT.2012.argus02a.c0.daytimex.rect.jpg
p15
aV1357232400.Thu.Jan.03_17_00_00.GMT.2013.argus02a.c0.daytimex.rect.jpg
p16
aV1356454800.Tue.Dec.25_17_00_00.GMT.2012.argus02a.c0.daytimex.rect.jpg
p17
aV1334764800.Wed.Apr.18_16_00_00.GMT.2012.argus02a.c0.daytimex.rect.jpg
p18
aV1223308800.Mon.Oct.06_16_00_00.GMT.2008.argus02a.c0.daytimex.rect.jpg
p19
aV744566400.Thu.Aug.05_16_00_00.GMT.1993.argus02.c0.daytimex.rect.jpg
p20
aV1165683600.Sat.Dec.09_17_00_00.GMT.2006.argus02a.c0.daytimex.rect.jpg
p21
aV1060876800.Thu.Aug.14_16_00_00.GMT.2003.argus02a.c0.daytimex.rect.jpg
p22
aV764182800.Sun.Mar.20_17_00_00.GMT.1994.argus02.c0.daytimex.rect.jpg
p23
aV825526800.Wed.Feb.28_17_00_00.GMT.1996.argus02.c0.daytimex.rect.jpg
p24
aV1374854400.Fri.Jul.26_16_00_00.GMT.2013.argus02a.c0.daytimex.rect.jpg
p25
aV839692800.Sat.Aug.10_16_00_00.GMT.1996.argus02.c0.daytimex.rect.jpg
p26
aV831052800.Thu.May.02_16_00_00.GMT.1996.argus02.c0.daytimex.rect.jpg
p27
aV763059600.Mon.Mar.07_17_00_00.GMT.1994.argus02.c0.daytimex.rect.jpg
p28
aV1343232000.Wed.Jul.25_16_00_00.GMT.2012.argus02a.c0.daytimex.rect.jpg
p29
aV1325091600.Wed.Dec.28_17_00_00.GMT.2011.argus02a.c0.daytimex.rect.jpg
p30
aV1063468800.Sat.Sep.13_16_00_00.GMT.2003.argus02a.c0.daytimex.rect.jpg
p31
aV1399478400.Wed.May.07_16_00_00.GMT.2014.argus02a.c0.daytimex.rect.jpg
p32
aV930499200.Sun.Jun.27_16_00_00.GMT.1999.argus02a.c0.daytimex.rect.jpg
p33
aV1117555200.Tue.May.31_16_00_00.GMT.2005.argus02a.c0.daytimex.rect.jpg
p34
aV1082390400.Mon.Apr.19_16_00_00.GMT.2004.argus02a.c0.daytimex.rect.jpg
p35
aV1031414400.Sat.Sep.07_16_00_00.GMT.2002.argus02a.c0.daytimex.rect.jpg
p36
aV894038400.Fri.May.01_16_00_00.GMT.1998.argus02a.c0.daytimex.rect.jpg
p37
aV1229792400.Sat.Dec.20_17_00_00.GMT.2008.argus02a.c0.daytimex.rect.jpg
p38
aV1120924800.Sat.Jul.09_16_00_00.GMT.2005.argus02a.c0.daytimex.rect.jpg
p39
aV1007830800.Sat.Dec.08_17_00_00.GMT.2001.argus02a.c0.daytimex.rect.jpg
p40
aV1082822400.Sat.Apr.24_16_00_00.GMT.2004.argus02a.c0.daytimex.rect.jpg
p41
aV941734800.Thu.Nov.04_17_00_00.GMT.1999.argus02a.c0.daytimex.rect.jpg
p42
aV1008608400.Mon.Dec.17_17_00_00.GMT.2001.argus02a.c0.daytimex.rect.jpg
p43
aV1401724800.Mon.Jun.02_16_00_00.GMT.2014.argus02a.c0.daytimex.rect.jpg
p44
aV1120752000.Thu.Jul.07_16_00_00.GMT.2005.argus02a.c0.daytimex.rect.jpg
p45
aV861292800.Thu.Apr.17_16_00_00.GMT.1997.argus02.c0.daytimex.rect.jpg
p46
aV813859200.Mon.Oct.16_16_00_00.GMT.1995.argus02.c0.daytimex.rect.jpg
p47
aV1017853200.Wed.Apr.03_17_00_00.GMT.2002.argus02a.c0.daytimex.rect.jpg
p48
aV1294678800.Mon.Jan.10_17_00_00.GMT.2011.argus02a.c0.daytimex.rect.jpg
p49
aV1072544400.Sat.Dec.27_17_00_00.GMT.2003.argus02a.c0.daytimex.rect.jpg
p50
aV905184000.Mon.Sep.07_16_00_00.GMT.1998.argus02a.c0.daytimex.rect.jpg
p51
aV1384794000.Mon.Nov.18_17_00_00.GMT.2013.argus02a.c0.daytimex.rect.jpg
p52
aV1253030400.Tue.Sep.15_16_00_00.GMT.2009.argus02a.c0.daytimex.rect.jpg
p53
aV1290618000.Wed.Nov.24_17_00_00.GMT.2010.argus02a.c0.daytimex.rect.jpg
p54
aV1252944000.Mon.Sep.14_16_00_00.GMT.2009.argus02a.c0.daytimex.rect.jpg
p55
aV1095955200.Thu.Sep.23_16_00_00.GMT.2004.argus02a.c0.daytimex.rect.jpg
p56
aV730400400.Mon.Feb.22_17_00_00.GMT.1993.argus02.c0.daytimex.rect.jpg
p57
aV1100538000.Mon.Nov.15_17_00_00.GMT.2004.argus02a.c0.daytimex.rect.jpg
p58
aV1243526400.Thu.May.28_16_00_00.GMT.2009.argus02a.c0.daytimex.rect.jpg
p59
aV1394384400.Sun.Mar.09_17_00_00.GMT.2014.argus02a.c0.daytimex.rect.jpg
p60
aV1277136000.Mon.Jun.21_16_00_00.GMT.2010.argus02a.c0.daytimex.rect.jpg
p61
aV1301331600.Mon.Mar.28_17_00_00.GMT.2011.argus02a.c0.daytimex.rect.jpg
p62
aV1174582800.Thu.Mar.22_17_00_00.GMT.2007.argus02a.c0.daytimex.rect.jpg
p63
aV1414166400.Fri.Oct.24_16_00_00.GMT.2014.argus02a.c0.daytimex.rect.jpg
p64
aV942944400.Thu.Nov.18_17_00_00.GMT.1999.argus02a.c0.daytimex.rect.jpg
p65
aV1315584000.Fri.Sep.09_16_00_00.GMT.2011.argus02a.c0.daytimex.rect.jpg
p66
aV1032883200.Tue.Sep.24_16_00_00.GMT.2002.argus02a.c0.daytimex.rect.jpg
p67
aV1171904400.Mon.Feb.19_17_00_00.GMT.2007.argus02a.c0.daytimex.rect.jpg
p68
aV1176393600.Thu.Apr.12_16_00_00.GMT.2007.argus02a.c0.daytimex.rect.jpg
p69
aV1032278400.Tue.Sep.17_16_00_00.GMT.2002.argus02a.c0.daytimex.rect.jpg
p70
aV1179158400.Mon.May.14_16_00_00.GMT.2007.argus02a.c0.daytimex.rect.jpg
p71
aV1297270800.Wed.Feb.09_17_00_00.GMT.2011.argus02a.c0.daytimex.rect.jpg
p72
aV847645200.Sun.Nov.10_17_00_00.GMT.1996.argus02.c0.daytimex.rect.jpg
p73
aV1196269200.Wed.Nov.28_17_00_00.GMT.2007.argus02a.c0.daytimex.rect.jpg
p74
aV1142701200.Sat.Mar.18_17_00_00.GMT.2006.argus02a.c0.daytimex.rect.jpg
p75
a.