(lp0
V1330534800.Wed.Feb.29_17_00_00.GMT.2012.argus02a.c0.daytimex.rect.jpg
p1
aV1089734400.Tue.Jul.13_16_00_00.GMT.2004.argus02a.c0.daytimex.rect.jpg
p2
aV1322413200.Sun.Nov.27_17_00_00.GMT.2011.argus02a.c0.daytimex.rect.jpg
p3
aV994262400.Wed.Jul.04_16_00_00.GMT.2001.argus02a.c0.daytimex.rect.jpg
p4
aV741283200.Mon.Jun.28_16_00_00.GMT.1993.argus02.c0.daytimex.rect.jpg
p5
aV1091721600.Thu.Aug.05_16_00_00.GMT.2004.argus02a.c0.daytimex.rect.jpg
p6
aV963331200.Tue.Jul.11_16_00_00.GMT.2000.argus02a.c0.daytimex.rect.jpg
p7
aV1409846400.Thu.Sep.04_16_00_00.GMT.2014.argus02a.c0.daytimex.rect.jpg
p8
aV934387200.Wed.Aug.11_16_00_00.GMT.1999.argus02a.c0.daytimex.rect.jpg
p9
aV730486800.Tue.Feb.23_17_00_00.GMT.1993.argus02.c0.daytimex.rect.jpg
p10
aV1311955200.Fri.Jul.29_16_00_00.GMT.2011.argus02a.c0.daytimex.rect.jpg
p11
aV1085500800.Tue.May.25_16_00_00.GMT.2004.argus02a.c0.daytimex.rect.jpg
p12
aV1178121600.Wed.May.02_16_00_00.GMT.2007.argus02a.c0.daytimex.rect.jpg
p13
aV1193936400.Thu.Nov.01_17_00_00.GMT.2007.argus02a.c0.daytimex.rect.jpg
p14
aV926179200.Sat.May.08_16_00_00.GMT.1999.argus02a.c0.daytimex.rect.jpg
p15
aV738691200.Sat.May.29_16_00_00.GMT.1993.argus02.c0.daytimex.rect.jpg
p16
aV1329325200.Wed.Feb.15_17_00_00.GMT.2012.argus02a.c0.daytimex.rect.jpg
p17
aV965491200.Sat.Aug.05_16_00_00.GMT.2000.argus02a.c0.daytimex.rect.jpg
p18
aV1184428800.Sat.Jul.14_16_00_00.GMT.2007.argus02a.c0.daytimex.rect.jpg
p19
aV741888000.Mon.Jul.05_16_00_00.GMT.1993.argus02.c0.daytimex.rect.jpg
p20
aV1312473600.Thu.Aug.04_16_00_00.GMT.2011.argus02a.c0.daytimex.rect.jpg
p21
aV1084291200.Tue.May.11_16_00_00.GMT.2004.argus02a.c0.daytimex.rect.jpg
p22
aV1260896400.Tue.Dec.15_17_00_00.GMT.2009.argus02a.c0.daytimex.rect.jpg
p23
aV1312387200.Wed.Aug.03_16_00_00.GMT.2011.argus02a.c0.daytimex.rect.jpg
p24
aV807724800.Sun.Aug.06_16_00_00.GMT.1995.argus02.c0.daytimex.rect.jpg
p25
aV1332003600.Sat.Mar.17_17_00_00.GMT.2012.argus02a.c0.daytimex.rect.jpg
p26
aV1019318400.Sat.Apr.20_16_00_00.GMT.2002.argus02a.c0.daytimex.rect.jpg
p27
aV1061222400.Mon.Aug.18_16_00_00.GMT.2003.argus02a.c0.daytimex.rect.jpg
p28
aV1287417600.Mon.Oct.18_16_00_00.GMT.2010.argus02a.c0.daytimex.rect.jpg
p29
aV1310313600.Sun.Jul.10_16_00_00.GMT.2011.argus02a.c0.daytimex.rect.jpg
p30
aV994003200.Sun.Jul.01_16_00_00.GMT.2001.argus02a.c0.daytimex.rect.jpg
p31
aV835286400.Thu.Jun.20_16_00_00.GMT.1996.argus02.c0.daytimex.rect.jpg
p32
aV880045200.Thu.Nov.20_17_00_00.GMT.1997.argus02a.c0.daytimex.rect.jpg
p33
aV766598400.Sun.Apr.17_16_00_00.GMT.1994.argus02.c0.daytimex.rect.jpg
p34
aV840556800.Tue.Aug.20_16_00_00.GMT.1996.argus02.c0.daytimex.rect.jpg
p35
aV1273161600.Thu.May.06_16_00_00.GMT.2010.argus02a.c0.daytimex.rect.jpg
p36
aV1197392400.Tue.Dec.11_17_00_00.GMT.2007.argus02a.c0.daytimex.rect.jpg
p37
aV898531200.Mon.Jun.22_16_00_00.GMT.1998.argus02a.c0.daytimex.rect.jpg
p38
aV966873600.Mon.Aug.21_16_00_00.GMT.2000.argus02a.c0.daytimex.rect.jpg
p39
aV845136000.Sat.Oct.12_16_00_00.GMT.1996.argus02.c0.daytimex.rect.jpg
p40
aV1333126800.Fri.Mar.30_17_00_00.GMT.2012.argus02a.c0.daytimex.rect.jpg
p41
aV1333468800.Tue.Apr.03_16_00_00.GMT.2012.argus02a.c0.daytimex.rect.jpg
p42
aV1354899600.Fri.Dec.07_17_00_00.GMT.2012.argus02a.c0.daytimex.rect.jpg
p43
aV1061913600.Tue.Aug.26_16_00_00.GMT.2003.argus02a.c0.daytimex.rect.jpg
p44
aV746035200.Sun.Aug.22_16_00_00.GMT.1993.argus02.c0.daytimex.rect.jpg
p45
aV1216396800.Fri.Jul.18_16_00_00.GMT.2008.argus02a.c0.daytimex.rect.jpg
p46
aV1214755200.Sun.Jun.29_16_00_00.GMT.2008.argus02a.c0.daytimex.rect.jpg
p47
aV1283184000.Mon.Aug.30_16_00_00.GMT.2010.argus02a.c0.daytimex.rect.jpg
p48
aV1343232000.Wed.Jul.25_16_00_00.GMT.2012.argus02a.c0.daytimex.rect.jpg
p49
aV1060876800.Thu.Aug.14_16_00_00.GMT.2003.argus02a.c0.daytimex.rect.jpg
p50
aV1345564800.Tue.Aug.21_16_00_00.GMT.2012.argus02a.c0.daytimex.rect.jpg
p51
aV1048611600.Tue.Mar.25_17_00_00.GMT.2003.argus02a.c0.daytimex.rect.jpg
p52
aV1345651200.Wed.Aug.22_16_00_00.GMT.2012.argus02a.c0.daytimex.rect.jpg
p53
aV1334764800.Wed.Apr.18_16_00_00.GMT.2012.argus02a.c0.daytimex.rect.jpg
p54
aV1356282000.Sun.Dec.23_17_00_00.GMT.2012.argus02a.c0.daytimex.rect.jpg
p55
aV1379260800.Sun.Sep.15_16_00_00.GMT.2013.argus02a.c0.daytimex.rect.jpg
p56
aV1336752000.Fri.May.11_16_00_00.GMT.2012.argus02a.c0.daytimex.rect.jpg
p57
aV1354813200.Thu.Dec.06_17_00_00.GMT.2012.argus02a.c0.daytimex.rect.jpg
p58
aV960566400.Fri.Jun.09_16_00_00.GMT.2000.argus02a.c0.daytimex.rect.jpg
p59
aV839692800.Sat.Aug.10_16_00_00.GMT.1996.argus02.c0.daytimex.rect.jpg
p60
aV763059600.Mon.Mar.07_17_00_00.GMT.1994.argus02.c0.daytimex.rect.jpg
p61
aV825526800.Wed.Feb.28_17_00_00.GMT.1996.argus02.c0.daytimex.rect.jpg
p62
aV1248624000.Sun.Jul.26_16_00_00.GMT.2009.argus02a.c0.daytimex.rect.jpg
p63
aV1331053200.Tue.Mar.06_17_00_00.GMT.2012.argus02a.c0.daytimex.rect.jpg
p64
aV1343145600.Tue.Jul.24_16_00_00.GMT.2012.argus02a.c0.daytimex.rect.jpg
p65
aV869846400.Fri.Jul.25_16_00_00.GMT.1997.argus02.c0.daytimex.rect.jpg
p66
aV957542400.Fri.May.05_16_00_00.GMT.2000.argus02a.c0.daytimex.rect.jpg
p67
aV1098892800.Wed.Oct.27_16_00_00.GMT.2004.argus02a.c0.daytimex.rect.jpg
p68
aV801676800.Sun.May.28_16_00_00.GMT.1995.argus02.c0.daytimex.rect.jpg
p69
aV1378483200.Fri.Sep.06_16_00_00.GMT.2013.argus02a.c0.daytimex.rect.jpg
p70
aV1373731200.Sat.Jul.13_16_00_00.GMT.2013.argus02a.c0.daytimex.rect.jpg
p71
aV1023379200.Thu.Jun.06_16_00_00.GMT.2002.argus02a.c0.daytimex.rect.jpg
p72
aV1008608400.Mon.Dec.17_17_00_00.GMT.2001.argus02a.c0.daytimex.rect.jpg
p73
aV1097337600.Sat.Oct.09_16_00_00.GMT.2004.argus02a.c0.daytimex.rect.jpg
p74
aV1121011200.Sun.Jul.10_16_00_00.GMT.2005.argus02a.c0.daytimex.rect.jpg
p75
aV1009558800.Fri.Dec.28_17_00_00.GMT.2001.argus02a.c0.daytimex.rect.jpg
p76
aV1247760000.Thu.Jul.16_16_00_00.GMT.2009.argus02a.c0.daytimex.rect.jpg
p77
aV1373644800.Fri.Jul.12_16_00_00.GMT.2013.argus02a.c0.daytimex.rect.jpg
p78
aV900432000.Tue.Jul.14_16_00_00.GMT.1998.argus02a.c0.daytimex.rect.jpg
p79
aV894038400.Fri.May.01_16_00_00.GMT.1998.argus02a.c0.daytimex.rect.jpg
p80
aV1339257600.Sat.Jun.09_16_00_00.GMT.2012.argus02a.c0.daytimex.rect.jpg
p81
aV1120752000.Thu.Jul.07_16_00_00.GMT.2005.argus02a.c0.daytimex.rect.jpg
p82
aV1007830800.Sat.Dec.08_17_00_00.GMT.2001.argus02a.c0.daytimex.rect.jpg
p83
aV1247155200.Thu.Jul.09_16_00_00.GMT.2009.argus02a.c0.daytimex.rect.jpg
p84
aV1120924800.Sat.Jul.09_16_00_00.GMT.2005.argus02a.c0.daytimex.rect.jpg
p85
aV1097596800.Tue.Oct.12_16_00_00.GMT.2004.argus02a.c0.daytimex.rect.jpg
p86
aV1082390400.Mon.Apr.19_16_00_00.GMT.2004.argus02a.c0.daytimex.rect.jpg
p87
aV1404403200.Thu.Jul.03_16_00_00.GMT.2014.argus02a.c0.daytimex.rect.jpg
p88
aV1380643200.Tue.Oct.01_16_00_00.GMT.2013.argus02a.c0.daytimex.rect.jpg
p89
aV958665600.Thu.May.18_16_00_00.GMT.2000.argus02a.c0.daytimex.rect.jpg
p90
aV1401552000.Sat.May.31_16_00_00.GMT.2014.argus02a.c0.daytimex.rect.jpg
p91
aV910803600.Wed.Nov.11_17_00_00.GMT.1998.argus02a.c0.daytimex.rect.jpg
p92
aV930499200.Sun.Jun.27_16_00_00.GMT.1999.argus02a.c0.daytimex.rect.jpg
p93
aV1355590800.Sat.Dec.15_17_00_00.GMT.2012.argus02a.c0.daytimex.rect.jpg
p94
aV954608400.Sat.Apr.01_17_00_00.GMT.2000.argus02a.c0.daytimex.rect.jpg
p95
aV740246400.Wed.Jun.16_16_00_00.GMT.1993.argus02.c0.daytimex.rect.jpg
p96
aV941734800.Thu.Nov.04_17_00_00.GMT.1999.argus02a.c0.daytimex.rect.jpg
p97
aV1401379200.Thu.May.29_16_00_00.GMT.2014.argus02a.c0.daytimex.rect.jpg
p98
aV1030809600.Sat.Aug.31_16_00_00.GMT.2002.argus02a.c0.daytimex.rect.jpg
p99
aV856976400.Wed.Feb.26_17_00_00.GMT.1997.argus02.c0.daytimex.rect.jpg
p100
aV896630400.Sun.May.31_16_00_00.GMT.1998.argus02a.c0.daytimex.rect.jpg
p101
aV788893200.Sat.Dec.31_17_00_00.GMT.1994.argus02.c0.daytimex.rect.jpg
p102
aV1293642000.Wed.Dec.29_17_00_00.GMT.2010.argus02a.c0.daytimex.rect.jpg
p103
aV861292800.Thu.Apr.17_16_00_00.GMT.1997.argus02.c0.daytimex.rect.jpg
p104
aV1272297600.Mon.Apr.26_16_00_00.GMT.2010.argus02a.c0.daytimex.rect.jpg
p105
aV796410000.Tue.Mar.28_17_00_00.GMT.1995.argus02.c0.daytimex.rect.jpg
p106
aV1265648400.Mon.Feb.08_17_00_00.GMT.2010.argus02a.c0.daytimex.rect.jpg
p107
aV1359306000.Sun.Jan.27_17_00_00.GMT.2013.argus02a.c0.daytimex.rect.jpg
p108
aV1233421200.Sat.Jan.31_17_00_00.GMT.2009.argus02a.c0.daytimex.rect.jpg
p109
aV1386176400.Wed.Dec.04_17_00_00.GMT.2013.argus02a.c0.daytimex.rect.jpg
p110
aV1235235600.Sat.Feb.21_17_00_00.GMT.2009.argus02a.c0.daytimex.rect.jpg
p111
aV1409068800.Tue.Aug.26_16_00_00.GMT.2014.argus02a.c0.daytimex.rect.jpg
p112
aV1226250000.Sun.Nov.09_17_00_00.GMT.2008.argus02a.c0.daytimex.rect.jpg
p113
aV1338566400.Fri.Jun.01_16_00_00.GMT.2012.argus02a.c0.daytimex.rect.jpg
p114
aV1233248400.Thu.Jan.29_17_00_00.GMT.2009.argus02a.c0.daytimex.rect.jpg
p115
aV1253030400.Tue.Sep.15_16_00_00.GMT.2009.argus02a.c0.daytimex.rect.jpg
p116
aV1243008000.Fri.May.22_16_00_00.GMT.2009.argus02a.c0.daytimex.rect.jpg
p117
aV1017853200.Wed.Apr.03_17_00_00.GMT.2002.argus02a.c0.daytimex.rect.jpg
p118
aV1396972800.Tue.Apr.08_16_00_00.GMT.2014.argus02a.c0.daytimex.rect.jpg
p119
aV1305561600.Mon.May.16_16_00_00.GMT.2011.argus02a.c0.daytimex.rect.jpg
p120
aV1256576400.Mon.Oct.26_17_00_00.GMT.2009.argus02a.c0.daytimex.rect.jpg
p121
aV812908800.Thu.Oct.05_16_00_00.GMT.1995.argus02.c0.daytimex.rect.jpg
p122
aV1396198800.Sun.Mar.30_17_00_00.GMT.2014.argus02a.c0.daytimex.rect.jpg
p123
aV1100710800.Wed.Nov.17_17_00_00.GMT.2004.argus02a.c0.daytimex.rect.jpg
p124
aV1023897600.Wed.Jun.12_16_00_00.GMT.2002.argus02a.c0.daytimex.rect.jpg
p125
aV920134800.Sat.Feb.27_17_00_00.GMT.1999.argus02a.c0.daytimex.rect.jpg
p126
aV1337875200.Thu.May.24_16_00_00.GMT.2012.argus02a.c0.daytimex.rect.jpg
p127
aV1411142400.Fri.Sep.19_16_00_00.GMT.2014.argus02a.c0.daytimex.rect.jpg
p128
aV1072630800.Sun.Dec.28_17_00_00.GMT.2003.argus02a.c0.daytimex.rect.jpg
p129
aV1256054400.Tue.Oct.20_16_00_00.GMT.2009.argus02a.c0.daytimex.rect.jpg
p130
aV1015693200.Sat.Mar.09_17_00_00.GMT.2002.argus02a.c0.daytimex.rect.jpg
p131
aV1393347600.Tue.Feb.25_17_00_00.GMT.2014.argus02a.c0.daytimex.rect.jpg
p132
aV905011200.Sat.Sep.05_16_00_00.GMT.1998.argus02a.c0.daytimex.rect.jpg
p133
aV1226163600.Sat.Nov.08_17_00_00.GMT.2008.argus02a.c0.daytimex.rect.jpg
p134
aV1298653200.Fri.Feb.25_17_00_00.GMT.2011.argus02a.c0.daytimex.rect.jpg
p135
aV854298000.Sun.Jan.26_17_00_00.GMT.1997.argus02.c0.daytimex.rect.jpg
p136
aV1315584000.Fri.Sep.09_16_00_00.GMT.2011.argus02a.c0.daytimex.rect.jpg
p137
aV1298307600.Mon.Feb.21_17_00_00.GMT.2011.argus02a.c0.daytimex.rect.jpg
p138
aV1304092800.Fri.Apr.29_16_00_00.GMT.2011.argus02a.c0.daytimex.rect.jpg
p139
aV1303920000.Wed.Apr.27_16_00_00.GMT.2011.argus02a.c0.daytimex.rect.jpg
p140
aV1040144400.Tue.Dec.17_17_00_00.GMT.2002.argus02a.c0.daytimex.rect.jpg
p141
aV1187971200.Fri.Aug.24_16_00_00.GMT.2007.argus02a.c0.daytimex.rect.jpg
p142
aV1193500800.Sat.Oct.27_16_00_00.GMT.2007.argus02a.c0.daytimex.rect.jpg
p143
aV1143133200.Thu.Mar.23_17_00_00.GMT.2006.argus02a.c0.daytimex.rect.jpg
p144
aV874166400.Sat.Sep.13_16_00_00.GMT.1997.argus02.c0.daytimex.rect.jpg
p145
aV1277136000.Mon.Jun.21_16_00_00.GMT.2010.argus02a.c0.daytimex.rect.jpg
p146
aV787856400.Mon.Dec.19_17_00_00.GMT.1994.argus02.c0.daytimex.rect.jpg
p147
aV1298394000.Tue.Feb.22_17_00_00.GMT.2011.argus02a.c0.daytimex.rect.jpg
p148
aV1178726400.Wed.May.09_16_00_00.GMT.2007.argus02a.c0.daytimex.rect.jpg
p149
aV1300986000.Thu.Mar.24_17_00_00.GMT.2011.argus02a.c0.daytimex.rect.jpg
p150
aV786906000.Thu.Dec.08_17_00_00.GMT.1994.argus02.c0.daytimex.rect.jpg
p151
aV1172250000.Fri.Feb.23_17_00_00.GMT.2007.argus02a.c0.daytimex.rect.jpg
p152
aV1074358800.Sat.Jan.17_17_00_00.GMT.2004.argus02a.c0.daytimex.rect.jpg
p153
aV755888400.Tue.Dec.14_17_00_00.GMT.1993.argus02.c0.daytimex.rect.jpg
p154
aV1196269200.Wed.Nov.28_17_00_00.GMT.2007.argus02a.c0.daytimex.rect.jpg
p155
aV1032883200.Tue.Sep.24_16_00_00.GMT.2002.argus02a.c0.daytimex.rect.jpg
p156
aV921171600.Thu.Mar.11_17_00_00.GMT.1999.argus02a.c0.daytimex.rect.jpg
p157
aV1142701200.Sat.Mar.18_17_00_00.GMT.2006.argus02a.c0.daytimex.rect.jpg
p158
aV1138122000.Tue.Jan.24_17_00_00.GMT.2006.argus02a.c0.daytimex.rect.jpg
p159
aV1133197200.Mon.Nov.28_17_00_00.GMT.2005.argus02a.c0.daytimex.rect.jpg
p160
aV915642000.Wed.Jan.06_17_00_00.GMT.1999.argus02a.c0.daytimex.rect.jpg
p161
aV1302105600.Wed.Apr.06_16_00_00.GMT.2011.argus02a.c0.daytimex.rect.jpg
p162
aV778176000.Mon.Aug.29_16_00_00.GMT.1994.argus02.c0.daytimex.rect.jpg
p163
aV799603200.Thu.May.04_16_00_00.GMT.1995.argus02.c0.daytimex.rect.jpg
p164
aV1072285200.Wed.Dec.24_17_00_00.GMT.2003.argus02a.c0.daytimex.rect.jpg
p165
aV1414166400.Fri.Oct.24_16_00_00.GMT.2014.argus02a.c0.daytimex.rect.jpg
p166
aV1255968000.Mon.Oct.19_16_00_00.GMT.2009.argus02a.c0.daytimex.rect.jpg
p167
aV1197565200.Thu.Dec.13_17_00_00.GMT.2007.argus02a.c0.daytimex.rect.jpg
p168
aV1350057600.Fri.Oct.12_16_00_00.GMT.2012.argus02a.c0.daytimex.rect.jpg
p169
aV1071507600.Mon.Dec.15_17_00_00.GMT.2003.argus02a.c0.daytimex.rect.jpg
p170
aV769190400.Tue.May.17_16_00_00.GMT.1994.argus02.c0.daytimex.rect.jpg
p171
aV1308067200.Tue.Jun.14_16_00_00.GMT.2011.argus02a.c0.daytimex.rect.jpg
p172
aV1038416400.Wed.Nov.27_17_00_00.GMT.2002.argus02a.c0.daytimex.rect.jpg
p173
aV817664400.Wed.Nov.29_17_00_00.GMT.1995.argus02.c0.daytimex.rect.jpg
p174
aV1231606800.Sat.Jan.10_17_00_00.GMT.2009.argus02a.c0.daytimex.rect.jpg
p175
aV1385053200.Thu.Nov.21_17_00_00.GMT.2013.argus02a.c0.daytimex.rect.jpg
p176
aV1261155600.Fri.Dec.18_17_00_00.GMT.2009.argus02a.c0.daytimex.rect.jpg
p177
aV1029513600.Fri.Aug.16_16_00_00.GMT.2002.argus02a.c0.daytimex.rect.jpg
p178
aV1409587200.Mon.Sep.01_16_00_00.GMT.2014.argus02a.c0.daytimex.rect.jpg
p179
aV1142874000.Mon.Mar.20_17_00_00.GMT.2006.argus02a.c0.daytimex.rect.jpg
p180
aV816886800.Mon.Nov.20_17_00_00.GMT.1995.argus02.c0.daytimex.rect.jpg
p181
aV1251820800.Tue.Sep.01_16_00_00.GMT.2009.argus02a.c0.daytimex.rect.jpg
p182
aV1131814800.Sat.Nov.12_17_00_00.GMT.2005.argus02a.c0.daytimex.rect.jpg
p183
aV1117814400.Fri.Jun.03_16_00_00.GMT.2005.argus02a.c0.daytimex.rect.jpg
p184
aV1103562000.Mon.Dec.20_17_00_00.GMT.2004.argus02a.c0.daytimex.rect.jpg
p185
aV791139600.Thu.Jan.26_17_00_00.GMT.1995.argus02.c0.daytimex.rect.jpg
p186
aV907344000.Fri.Oct.02_16_00_00.GMT.1998.argus02a.c0.daytimex.rect.jpg
p187
aV1180022400.Thu.May.24_16_00_00.GMT.2007.argus02a.c0.daytimex.rect.jpg
p188
aV815590800.Sun.Nov.05_17_00_00.GMT.1995.argus02.c0.daytimex.rect.jpg
p189
aV1413734400.Sun.Oct.19_16_00_00.GMT.2014.argus02a.c0.daytimex.rect.jpg
p190
aV847645200.Sun.Nov.10_17_00_00.GMT.1996.argus02.c0.daytimex.rect.jpg
p191
aV873475200.Fri.Sep.05_16_00_00.GMT.1997.argus02.c0.daytimex.rect.jpg
p192
aV1301331600.Mon.Mar.28_17_00_00.GMT.2011.argus02a.c0.daytimex.rect.jpg
p193
aV1196528400.Sat.Dec.01_17_00_00.GMT.2007.argus02a.c0.daytimex.rect.jpg
p194
aV1137690000.Thu.Jan.19_17_00_00.GMT.2006.argus02a.c0.daytimex.rect.jpg
p195
aV817318800.Sat.Nov.25_17_00_00.GMT.1995.argus02.c0.daytimex.rect.jpg
p196
aV817923600.Sat.Dec.02_17_00_00.GMT.1995.argus02.c0.daytimex.rect.jpg
p197
aV1193414400.Fri.Oct.26_16_00_00.GMT.2007.argus02a.c0.daytimex.rect.jpg
p198
aV923328000.Mon.Apr.05_16_00_00.GMT.1999.argus02a.c0.daytimex.rect.jpg
p199
aV1076259600.Sun.Feb.08_17_00_00.GMT.2004.argus02a.c0.daytimex.rect.jpg
p200
aV1304438400.Tue.May.03_16_00_00.GMT.2011.argus02a.c0.daytimex.rect.jpg
p201
aV1181923200.Fri.Jun.15_16_00_00.GMT.2007.argus02a.c0.daytimex.rect.jpg
p202
aV1283529600.Fri.Sep.03_16_00_00.GMT.2010.argus02a.c0.daytimex.rect.jpg
p203
aV1132160400.Wed.Nov.16_17_00_00.GMT.2005.argus02a.c0.daytimex.rect.jpg
p204
aV966182400.Sun.Aug.13_16_00_00.GMT.2000.argus02a.c0.daytimex.rect.jpg
p205
aV1297270800.Wed.Feb.09_17_00_00.GMT.2011.argus02a.c0.daytimex.rect.jpg
p206
aV1327424400.Tue.Jan.24_17_00_00.GMT.2012.argus02a.c0.daytimex.rect.jpg
p207
aV1328634000.Tue.Feb.07_17_00_00.GMT.2012.argus02a.c0.daytimex.rect.jpg
p208
aV884797200.Wed.Jan.14_17_00_00.GMT.1998.argus02a.c0.daytimex.rect.jpg
p209
aV1103734800.Wed.Dec.22_17_00_00.GMT.2004.argus02a.c0.daytimex.rect.jpg
p210
aV1330534800.Wed.Feb.29_17_00_00.GMT.2012.argus02a.c0.daytimex.rect.hflip.jpg
p211
aV1089734400.Tue.Jul.13_16_00_00.GMT.2004.argus02a.c0.daytimex.rect.hflip.jpg
p212
aV1322413200.Sun.Nov.27_17_00_00.GMT.2011.argus02a.c0.daytimex.rect.hflip.jpg
p213
aV994262400.Wed.Jul.04_16_00_00.GMT.2001.argus02a.c0.daytimex.rect.hflip.jpg
p214
aV741283200.Mon.Jun.28_16_00_00.GMT.1993.argus02.c0.daytimex.rect.hflip.jpg
p215
aV1091721600.Thu.Aug.05_16_00_00.GMT.2004.argus02a.c0.daytimex.rect.hflip.jpg
p216
aV963331200.Tue.Jul.11_16_00_00.GMT.2000.argus02a.c0.daytimex.rect.hflip.jpg
p217
aV1409846400.Thu.Sep.04_16_00_00.GMT.2014.argus02a.c0.daytimex.rect.hflip.jpg
p218
aV934387200.Wed.Aug.11_16_00_00.GMT.1999.argus02a.c0.daytimex.rect.hflip.jpg
p219
aV730486800.Tue.Feb.23_17_00_00.GMT.1993.argus02.c0.daytimex.rect.hflip.jpg
p220
aV1311955200.Fri.Jul.29_16_00_00.GMT.2011.argus02a.c0.daytimex.rect.hflip.jpg
p221
aV1085500800.Tue.May.25_16_00_00.GMT.2004.argus02a.c0.daytimex.rect.hflip.jpg
p222
aV1178121600.Wed.May.02_16_00_00.GMT.2007.argus02a.c0.daytimex.rect.hflip.jpg
p223
aV1193936400.Thu.Nov.01_17_00_00.GMT.2007.argus02a.c0.daytimex.rect.hflip.jpg
p224
aV926179200.Sat.May.08_16_00_00.GMT.1999.argus02a.c0.daytimex.rect.hflip.jpg
p225
aV738691200.Sat.May.29_16_00_00.GMT.1993.argus02.c0.daytimex.rect.hflip.jpg
p226
aV1329325200.Wed.Feb.15_17_00_00.GMT.2012.argus02a.c0.daytimex.rect.hflip.jpg
p227
aV965491200.Sat.Aug.05_16_00_00.GMT.2000.argus02a.c0.daytimex.rect.hflip.jpg
p228
aV1184428800.Sat.Jul.14_16_00_00.GMT.2007.argus02a.c0.daytimex.rect.hflip.jpg
p229
aV741888000.Mon.Jul.05_16_00_00.GMT.1993.argus02.c0.daytimex.rect.hflip.jpg
p230
aV1312473600.Thu.Aug.04_16_00_00.GMT.2011.argus02a.c0.daytimex.rect.hflip.jpg
p231
aV1084291200.Tue.May.11_16_00_00.GMT.2004.argus02a.c0.daytimex.rect.hflip.jpg
p232
aV1260896400.Tue.Dec.15_17_00_00.GMT.2009.argus02a.c0.daytimex.rect.hflip.jpg
p233
aV1312387200.Wed.Aug.03_16_00_00.GMT.2011.argus02a.c0.daytimex.rect.hflip.jpg
p234
aV807724800.Sun.Aug.06_16_00_00.GMT.1995.argus02.c0.daytimex.rect.hflip.jpg
p235
aV1332003600.Sat.Mar.17_17_00_00.GMT.2012.argus02a.c0.daytimex.rect.hflip.jpg
p236
aV1019318400.Sat.Apr.20_16_00_00.GMT.2002.argus02a.c0.daytimex.rect.hflip.jpg
p237
aV1061222400.Mon.Aug.18_16_00_00.GMT.2003.argus02a.c0.daytimex.rect.hflip.jpg
p238
aV1287417600.Mon.Oct.18_16_00_00.GMT.2010.argus02a.c0.daytimex.rect.hflip.jpg
p239
aV1310313600.Sun.Jul.10_16_00_00.GMT.2011.argus02a.c0.daytimex.rect.hflip.jpg
p240
aV994003200.Sun.Jul.01_16_00_00.GMT.2001.argus02a.c0.daytimex.rect.hflip.jpg
p241
aV835286400.Thu.Jun.20_16_00_00.GMT.1996.argus02.c0.daytimex.rect.hflip.jpg
p242
aV880045200.Thu.Nov.20_17_00_00.GMT.1997.argus02a.c0.daytimex.rect.hflip.jpg
p243
aV766598400.Sun.Apr.17_16_00_00.GMT.1994.argus02.c0.daytimex.rect.hflip.jpg
p244
aV840556800.Tue.Aug.20_16_00_00.GMT.1996.argus02.c0.daytimex.rect.hflip.jpg
p245
aV1273161600.Thu.May.06_16_00_00.GMT.2010.argus02a.c0.daytimex.rect.hflip.jpg
p246
aV1197392400.Tue.Dec.11_17_00_00.GMT.2007.argus02a.c0.daytimex.rect.hflip.jpg
p247
aV898531200.Mon.Jun.22_16_00_00.GMT.1998.argus02a.c0.daytimex.rect.hflip.jpg
p248
aV966873600.Mon.Aug.21_16_00_00.GMT.2000.argus02a.c0.daytimex.rect.hflip.jpg
p249
aV845136000.Sat.Oct.12_16_00_00.GMT.1996.argus02.c0.daytimex.rect.hflip.jpg
p250
aV1333126800.Fri.Mar.30_17_00_00.GMT.2012.argus02a.c0.daytimex.rect.hflip.jpg
p251
aV1333468800.Tue.Apr.03_16_00_00.GMT.2012.argus02a.c0.daytimex.rect.hflip.jpg
p252
aV1354899600.Fri.Dec.07_17_00_00.GMT.2012.argus02a.c0.daytimex.rect.hflip.jpg
p253
aV1061913600.Tue.Aug.26_16_00_00.GMT.2003.argus02a.c0.daytimex.rect.hflip.jpg
p254
aV746035200.Sun.Aug.22_16_00_00.GMT.1993.argus02.c0.daytimex.rect.hflip.jpg
p255
aV1216396800.Fri.Jul.18_16_00_00.GMT.2008.argus02a.c0.daytimex.rect.hflip.jpg
p256
aV1214755200.Sun.Jun.29_16_00_00.GMT.2008.argus02a.c0.daytimex.rect.hflip.jpg
p257
aV1283184000.Mon.Aug.30_16_00_00.GMT.2010.argus02a.c0.daytimex.rect.hflip.jpg
p258
aV1343232000.Wed.Jul.25_16_00_00.GMT.2012.argus02a.c0.daytimex.rect.hflip.jpg
p259
aV1060876800.Thu.Aug.14_16_00_00.GMT.2003.argus02a.c0.daytimex.rect.hflip.jpg
p260
aV1345564800.Tue.Aug.21_16_00_00.GMT.2012.argus02a.c0.daytimex.rect.hflip.jpg
p261
aV1048611600.Tue.Mar.25_17_00_00.GMT.2003.argus02a.c0.daytimex.rect.hflip.jpg
p262
aV1345651200.Wed.Aug.22_16_00_00.GMT.2012.argus02a.c0.daytimex.rect.hflip.jpg
p263
aV1334764800.Wed.Apr.18_16_00_00.GMT.2012.argus02a.c0.daytimex.rect.hflip.jpg
p264
aV1356282000.Sun.Dec.23_17_00_00.GMT.2012.argus02a.c0.daytimex.rect.hflip.jpg
p265
aV1379260800.Sun.Sep.15_16_00_00.GMT.2013.argus02a.c0.daytimex.rect.hflip.jpg
p266
aV1336752000.Fri.May.11_16_00_00.GMT.2012.argus02a.c0.daytimex.rect.hflip.jpg
p267
aV1354813200.Thu.Dec.06_17_00_00.GMT.2012.argus02a.c0.daytimex.rect.hflip.jpg
p268
aV960566400.Fri.Jun.09_16_00_00.GMT.2000.argus02a.c0.daytimex.rect.hflip.jpg
p269
aV839692800.Sat.Aug.10_16_00_00.GMT.1996.argus02.c0.daytimex.rect.hflip.jpg
p270
aV763059600.Mon.Mar.07_17_00_00.GMT.1994.argus02.c0.daytimex.rect.hflip.jpg
p271
aV825526800.Wed.Feb.28_17_00_00.GMT.1996.argus02.c0.daytimex.rect.hflip.jpg
p272
aV1248624000.Sun.Jul.26_16_00_00.GMT.2009.argus02a.c0.daytimex.rect.hflip.jpg
p273
aV1331053200.Tue.Mar.06_17_00_00.GMT.2012.argus02a.c0.daytimex.rect.hflip.jpg
p274
aV1343145600.Tue.Jul.24_16_00_00.GMT.2012.argus02a.c0.daytimex.rect.hflip.jpg
p275
aV869846400.Fri.Jul.25_16_00_00.GMT.1997.argus02.c0.daytimex.rect.hflip.jpg
p276
aV957542400.Fri.May.05_16_00_00.GMT.2000.argus02a.c0.daytimex.rect.hflip.jpg
p277
aV1098892800.Wed.Oct.27_16_00_00.GMT.2004.argus02a.c0.daytimex.rect.hflip.jpg
p278
aV801676800.Sun.May.28_16_00_00.GMT.1995.argus02.c0.daytimex.rect.hflip.jpg
p279
aV1378483200.Fri.Sep.06_16_00_00.GMT.2013.argus02a.c0.daytimex.rect.hflip.jpg
p280
aV1373731200.Sat.Jul.13_16_00_00.GMT.2013.argus02a.c0.daytimex.rect.hflip.jpg
p281
aV1023379200.Thu.Jun.06_16_00_00.GMT.2002.argus02a.c0.daytimex.rect.hflip.jpg
p282
aV1008608400.Mon.Dec.17_17_00_00.GMT.2001.argus02a.c0.daytimex.rect.hflip.jpg
p283
aV1097337600.Sat.Oct.09_16_00_00.GMT.2004.argus02a.c0.daytimex.rect.hflip.jpg
p284
aV1121011200.Sun.Jul.10_16_00_00.GMT.2005.argus02a.c0.daytimex.rect.hflip.jpg
p285
aV1009558800.Fri.Dec.28_17_00_00.GMT.2001.argus02a.c0.daytimex.rect.hflip.jpg
p286
aV1247760000.Thu.Jul.16_16_00_00.GMT.2009.argus02a.c0.daytimex.rect.hflip.jpg
p287
aV1373644800.Fri.Jul.12_16_00_00.GMT.2013.argus02a.c0.daytimex.rect.hflip.jpg
p288
aV900432000.Tue.Jul.14_16_00_00.GMT.1998.argus02a.c0.daytimex.rect.hflip.jpg
p289
aV894038400.Fri.May.01_16_00_00.GMT.1998.argus02a.c0.daytimex.rect.hflip.jpg
p290
aV1339257600.Sat.Jun.09_16_00_00.GMT.2012.argus02a.c0.daytimex.rect.hflip.jpg
p291
aV1120752000.Thu.Jul.07_16_00_00.GMT.2005.argus02a.c0.daytimex.rect.hflip.jpg
p292
aV1007830800.Sat.Dec.08_17_00_00.GMT.2001.argus02a.c0.daytimex.rect.hflip.jpg
p293
aV1247155200.Thu.Jul.09_16_00_00.GMT.2009.argus02a.c0.daytimex.rect.hflip.jpg
p294
aV1120924800.Sat.Jul.09_16_00_00.GMT.2005.argus02a.c0.daytimex.rect.hflip.jpg
p295
aV1097596800.Tue.Oct.12_16_00_00.GMT.2004.argus02a.c0.daytimex.rect.hflip.jpg
p296
aV1082390400.Mon.Apr.19_16_00_00.GMT.2004.argus02a.c0.daytimex.rect.hflip.jpg
p297
aV1404403200.Thu.Jul.03_16_00_00.GMT.2014.argus02a.c0.daytimex.rect.hflip.jpg
p298
aV1380643200.Tue.Oct.01_16_00_00.GMT.2013.argus02a.c0.daytimex.rect.hflip.jpg
p299
aV958665600.Thu.May.18_16_00_00.GMT.2000.argus02a.c0.daytimex.rect.hflip.jpg
p300
aV1401552000.Sat.May.31_16_00_00.GMT.2014.argus02a.c0.daytimex.rect.hflip.jpg
p301
aV910803600.Wed.Nov.11_17_00_00.GMT.1998.argus02a.c0.daytimex.rect.hflip.jpg
p302
aV930499200.Sun.Jun.27_16_00_00.GMT.1999.argus02a.c0.daytimex.rect.hflip.jpg
p303
aV1355590800.Sat.Dec.15_17_00_00.GMT.2012.argus02a.c0.daytimex.rect.hflip.jpg
p304
aV954608400.Sat.Apr.01_17_00_00.GMT.2000.argus02a.c0.daytimex.rect.hflip.jpg
p305
aV740246400.Wed.Jun.16_16_00_00.GMT.1993.argus02.c0.daytimex.rect.hflip.jpg
p306
aV941734800.Thu.Nov.04_17_00_00.GMT.1999.argus02a.c0.daytimex.rect.hflip.jpg
p307
aV1401379200.Thu.May.29_16_00_00.GMT.2014.argus02a.c0.daytimex.rect.hflip.jpg
p308
aV1030809600.Sat.Aug.31_16_00_00.GMT.2002.argus02a.c0.daytimex.rect.hflip.jpg
p309
aV856976400.Wed.Feb.26_17_00_00.GMT.1997.argus02.c0.daytimex.rect.hflip.jpg
p310
aV896630400.Sun.May.31_16_00_00.GMT.1998.argus02a.c0.daytimex.rect.hflip.jpg
p311
aV788893200.Sat.Dec.31_17_00_00.GMT.1994.argus02.c0.daytimex.rect.hflip.jpg
p312
aV1293642000.Wed.Dec.29_17_00_00.GMT.2010.argus02a.c0.daytimex.rect.hflip.jpg
p313
aV861292800.Thu.Apr.17_16_00_00.GMT.1997.argus02.c0.daytimex.rect.hflip.jpg
p314
aV1272297600.Mon.Apr.26_16_00_00.GMT.2010.argus02a.c0.daytimex.rect.hflip.jpg
p315
aV796410000.Tue.Mar.28_17_00_00.GMT.1995.argus02.c0.daytimex.rect.hflip.jpg
p316
aV1265648400.Mon.Feb.08_17_00_00.GMT.2010.argus02a.c0.daytimex.rect.hflip.jpg
p317
aV1359306000.Sun.Jan.27_17_00_00.GMT.2013.argus02a.c0.daytimex.rect.hflip.jpg
p318
aV1233421200.Sat.Jan.31_17_00_00.GMT.2009.argus02a.c0.daytimex.rect.hflip.jpg
p319
aV1386176400.Wed.Dec.04_17_00_00.GMT.2013.argus02a.c0.daytimex.rect.hflip.jpg
p320
aV1235235600.Sat.Feb.21_17_00_00.GMT.2009.argus02a.c0.daytimex.rect.hflip.jpg
p321
aV1409068800.Tue.Aug.26_16_00_00.GMT.2014.argus02a.c0.daytimex.rect.hflip.jpg
p322
aV1226250000.Sun.Nov.09_17_00_00.GMT.2008.argus02a.c0.daytimex.rect.hflip.jpg
p323
aV1338566400.Fri.Jun.01_16_00_00.GMT.2012.argus02a.c0.daytimex.rect.hflip.jpg
p324
aV1233248400.Thu.Jan.29_17_00_00.GMT.2009.argus02a.c0.daytimex.rect.hflip.jpg
p325
aV1253030400.Tue.Sep.15_16_00_00.GMT.2009.argus02a.c0.daytimex.rect.hflip.jpg
p326
aV1243008000.Fri.May.22_16_00_00.GMT.2009.argus02a.c0.daytimex.rect.hflip.jpg
p327
aV1017853200.Wed.Apr.03_17_00_00.GMT.2002.argus02a.c0.daytimex.rect.hflip.jpg
p328
aV1396972800.Tue.Apr.08_16_00_00.GMT.2014.argus02a.c0.daytimex.rect.hflip.jpg
p329
aV1305561600.Mon.May.16_16_00_00.GMT.2011.argus02a.c0.daytimex.rect.hflip.jpg
p330
aV1256576400.Mon.Oct.26_17_00_00.GMT.2009.argus02a.c0.daytimex.rect.hflip.jpg
p331
aV812908800.Thu.Oct.05_16_00_00.GMT.1995.argus02.c0.daytimex.rect.hflip.jpg
p332
aV1396198800.Sun.Mar.30_17_00_00.GMT.2014.argus02a.c0.daytimex.rect.hflip.jpg
p333
aV1100710800.Wed.Nov.17_17_00_00.GMT.2004.argus02a.c0.daytimex.rect.hflip.jpg
p334
aV1023897600.Wed.Jun.12_16_00_00.GMT.2002.argus02a.c0.daytimex.rect.hflip.jpg
p335
aV920134800.Sat.Feb.27_17_00_00.GMT.1999.argus02a.c0.daytimex.rect.hflip.jpg
p336
aV1337875200.Thu.May.24_16_00_00.GMT.2012.argus02a.c0.daytimex.rect.hflip.jpg
p337
aV1411142400.Fri.Sep.19_16_00_00.GMT.2014.argus02a.c0.daytimex.rect.hflip.jpg
p338
aV1072630800.Sun.Dec.28_17_00_00.GMT.2003.argus02a.c0.daytimex.rect.hflip.jpg
p339
aV1256054400.Tue.Oct.20_16_00_00.GMT.2009.argus02a.c0.daytimex.rect.hflip.jpg
p340
aV1015693200.Sat.Mar.09_17_00_00.GMT.2002.argus02a.c0.daytimex.rect.hflip.jpg
p341
aV1393347600.Tue.Feb.25_17_00_00.GMT.2014.argus02a.c0.daytimex.rect.hflip.jpg
p342
aV905011200.Sat.Sep.05_16_00_00.GMT.1998.argus02a.c0.daytimex.rect.hflip.jpg
p343
aV1226163600.Sat.Nov.08_17_00_00.GMT.2008.argus02a.c0.daytimex.rect.hflip.jpg
p344
aV1298653200.Fri.Feb.25_17_00_00.GMT.2011.argus02a.c0.daytimex.rect.hflip.jpg
p345
aV854298000.Sun.Jan.26_17_00_00.GMT.1997.argus02.c0.daytimex.rect.hflip.jpg
p346
aV1315584000.Fri.Sep.09_16_00_00.GMT.2011.argus02a.c0.daytimex.rect.hflip.jpg
p347
aV1298307600.Mon.Feb.21_17_00_00.GMT.2011.argus02a.c0.daytimex.rect.hflip.jpg
p348
aV1304092800.Fri.Apr.29_16_00_00.GMT.2011.argus02a.c0.daytimex.rect.hflip.jpg
p349
aV1303920000.Wed.Apr.27_16_00_00.GMT.2011.argus02a.c0.daytimex.rect.hflip.jpg
p350
aV1040144400.Tue.Dec.17_17_00_00.GMT.2002.argus02a.c0.daytimex.rect.hflip.jpg
p351
aV1187971200.Fri.Aug.24_16_00_00.GMT.2007.argus02a.c0.daytimex.rect.hflip.jpg
p352
aV1193500800.Sat.Oct.27_16_00_00.GMT.2007.argus02a.c0.daytimex.rect.hflip.jpg
p353
aV1143133200.Thu.Mar.23_17_00_00.GMT.2006.argus02a.c0.daytimex.rect.hflip.jpg
p354
aV874166400.Sat.Sep.13_16_00_00.GMT.1997.argus02.c0.daytimex.rect.hflip.jpg
p355
aV1277136000.Mon.Jun.21_16_00_00.GMT.2010.argus02a.c0.daytimex.rect.hflip.jpg
p356
aV787856400.Mon.Dec.19_17_00_00.GMT.1994.argus02.c0.daytimex.rect.hflip.jpg
p357
aV1298394000.Tue.Feb.22_17_00_00.GMT.2011.argus02a.c0.daytimex.rect.hflip.jpg
p358
aV1178726400.Wed.May.09_16_00_00.GMT.2007.argus02a.c0.daytimex.rect.hflip.jpg
p359
aV1300986000.Thu.Mar.24_17_00_00.GMT.2011.argus02a.c0.daytimex.rect.hflip.jpg
p360
aV786906000.Thu.Dec.08_17_00_00.GMT.1994.argus02.c0.daytimex.rect.hflip.jpg
p361
aV1172250000.Fri.Feb.23_17_00_00.GMT.2007.argus02a.c0.daytimex.rect.hflip.jpg
p362
aV1074358800.Sat.Jan.17_17_00_00.GMT.2004.argus02a.c0.daytimex.rect.hflip.jpg
p363
aV755888400.Tue.Dec.14_17_00_00.GMT.1993.argus02.c0.daytimex.rect.hflip.jpg
p364
aV1196269200.Wed.Nov.28_17_00_00.GMT.2007.argus02a.c0.daytimex.rect.hflip.jpg
p365
aV1032883200.Tue.Sep.24_16_00_00.GMT.2002.argus02a.c0.daytimex.rect.hflip.jpg
p366
aV921171600.Thu.Mar.11_17_00_00.GMT.1999.argus02a.c0.daytimex.rect.hflip.jpg
p367
aV1142701200.Sat.Mar.18_17_00_00.GMT.2006.argus02a.c0.daytimex.rect.hflip.jpg
p368
aV1138122000.Tue.Jan.24_17_00_00.GMT.2006.argus02a.c0.daytimex.rect.hflip.jpg
p369
aV1133197200.Mon.Nov.28_17_00_00.GMT.2005.argus02a.c0.daytimex.rect.hflip.jpg
p370
aV915642000.Wed.Jan.06_17_00_00.GMT.1999.argus02a.c0.daytimex.rect.hflip.jpg
p371
aV1302105600.Wed.Apr.06_16_00_00.GMT.2011.argus02a.c0.daytimex.rect.hflip.jpg
p372
aV778176000.Mon.Aug.29_16_00_00.GMT.1994.argus02.c0.daytimex.rect.hflip.jpg
p373
aV799603200.Thu.May.04_16_00_00.GMT.1995.argus02.c0.daytimex.rect.hflip.jpg
p374
aV1072285200.Wed.Dec.24_17_00_00.GMT.2003.argus02a.c0.daytimex.rect.hflip.jpg
p375
aV1414166400.Fri.Oct.24_16_00_00.GMT.2014.argus02a.c0.daytimex.rect.hflip.jpg
p376
aV1255968000.Mon.Oct.19_16_00_00.GMT.2009.argus02a.c0.daytimex.rect.hflip.jpg
p377
aV1197565200.Thu.Dec.13_17_00_00.GMT.2007.argus02a.c0.daytimex.rect.hflip.jpg
p378
aV1350057600.Fri.Oct.12_16_00_00.GMT.2012.argus02a.c0.daytimex.rect.hflip.jpg
p379
aV1071507600.Mon.Dec.15_17_00_00.GMT.2003.argus02a.c0.daytimex.rect.hflip.jpg
p380
aV769190400.Tue.May.17_16_00_00.GMT.1994.argus02.c0.daytimex.rect.hflip.jpg
p381
aV1308067200.Tue.Jun.14_16_00_00.GMT.2011.argus02a.c0.daytimex.rect.hflip.jpg
p382
aV1038416400.Wed.Nov.27_17_00_00.GMT.2002.argus02a.c0.daytimex.rect.hflip.jpg
p383
aV817664400.Wed.Nov.29_17_00_00.GMT.1995.argus02.c0.daytimex.rect.hflip.jpg
p384
aV1231606800.Sat.Jan.10_17_00_00.GMT.2009.argus02a.c0.daytimex.rect.hflip.jpg
p385
aV1385053200.Thu.Nov.21_17_00_00.GMT.2013.argus02a.c0.daytimex.rect.hflip.jpg
p386
aV1261155600.Fri.Dec.18_17_00_00.GMT.2009.argus02a.c0.daytimex.rect.hflip.jpg
p387
aV1029513600.Fri.Aug.16_16_00_00.GMT.2002.argus02a.c0.daytimex.rect.hflip.jpg
p388
aV1409587200.Mon.Sep.01_16_00_00.GMT.2014.argus02a.c0.daytimex.rect.hflip.jpg
p389
aV1142874000.Mon.Mar.20_17_00_00.GMT.2006.argus02a.c0.daytimex.rect.hflip.jpg
p390
aV816886800.Mon.Nov.20_17_00_00.GMT.1995.argus02.c0.daytimex.rect.hflip.jpg
p391
aV1251820800.Tue.Sep.01_16_00_00.GMT.2009.argus02a.c0.daytimex.rect.hflip.jpg
p392
aV1131814800.Sat.Nov.12_17_00_00.GMT.2005.argus02a.c0.daytimex.rect.hflip.jpg
p393
aV1117814400.Fri.Jun.03_16_00_00.GMT.2005.argus02a.c0.daytimex.rect.hflip.jpg
p394
aV1103562000.Mon.Dec.20_17_00_00.GMT.2004.argus02a.c0.daytimex.rect.hflip.jpg
p395
aV791139600.Thu.Jan.26_17_00_00.GMT.1995.argus02.c0.daytimex.rect.hflip.jpg
p396
aV907344000.Fri.Oct.02_16_00_00.GMT.1998.argus02a.c0.daytimex.rect.hflip.jpg
p397
aV1180022400.Thu.May.24_16_00_00.GMT.2007.argus02a.c0.daytimex.rect.hflip.jpg
p398
aV815590800.Sun.Nov.05_17_00_00.GMT.1995.argus02.c0.daytimex.rect.hflip.jpg
p399
aV1413734400.Sun.Oct.19_16_00_00.GMT.2014.argus02a.c0.daytimex.rect.hflip.jpg
p400
aV847645200.Sun.Nov.10_17_00_00.GMT.1996.argus02.c0.daytimex.rect.hflip.jpg
p401
aV873475200.Fri.Sep.05_16_00_00.GMT.1997.argus02.c0.daytimex.rect.hflip.jpg
p402
aV1301331600.Mon.Mar.28_17_00_00.GMT.2011.argus02a.c0.daytimex.rect.hflip.jpg
p403
aV1196528400.Sat.Dec.01_17_00_00.GMT.2007.argus02a.c0.daytimex.rect.hflip.jpg
p404
aV1137690000.Thu.Jan.19_17_00_00.GMT.2006.argus02a.c0.daytimex.rect.hflip.jpg
p405
aV817318800.Sat.Nov.25_17_00_00.GMT.1995.argus02.c0.daytimex.rect.hflip.jpg
p406
aV817923600.Sat.Dec.02_17_00_00.GMT.1995.argus02.c0.daytimex.rect.hflip.jpg
p407
aV1193414400.Fri.Oct.26_16_00_00.GMT.2007.argus02a.c0.daytimex.rect.hflip.jpg
p408
aV923328000.Mon.Apr.05_16_00_00.GMT.1999.argus02a.c0.daytimex.rect.hflip.jpg
p409
aV1076259600.Sun.Feb.08_17_00_00.GMT.2004.argus02a.c0.daytimex.rect.hflip.jpg
p410
aV1304438400.Tue.May.03_16_00_00.GMT.2011.argus02a.c0.daytimex.rect.hflip.jpg
p411
aV1181923200.Fri.Jun.15_16_00_00.GMT.2007.argus02a.c0.daytimex.rect.hflip.jpg
p412
aV1283529600.Fri.Sep.03_16_00_00.GMT.2010.argus02a.c0.daytimex.rect.hflip.jpg
p413
aV1132160400.Wed.Nov.16_17_00_00.GMT.2005.argus02a.c0.daytimex.rect.hflip.jpg
p414
aV966182400.Sun.Aug.13_16_00_00.GMT.2000.argus02a.c0.daytimex.rect.hflip.jpg
p415
aV1297270800.Wed.Feb.09_17_00_00.GMT.2011.argus02a.c0.daytimex.rect.hflip.jpg
p416
aV1327424400.Tue.Jan.24_17_00_00.GMT.2012.argus02a.c0.daytimex.rect.hflip.jpg
p417
aV1328634000.Tue.Feb.07_17_00_00.GMT.2012.argus02a.c0.daytimex.rect.hflip.jpg
p418
aV884797200.Wed.Jan.14_17_00_00.GMT.1998.argus02a.c0.daytimex.rect.hflip.jpg
p419
aV1103734800.Wed.Dec.22_17_00_00.GMT.2004.argus02a.c0.daytimex.rect.hflip.jpg
p420
aV1330534800.Wed.Feb.29_17_00_00.GMT.2012.argus02a.c0.daytimex.rect.vflip.jpg
p421
aV1089734400.Tue.Jul.13_16_00_00.GMT.2004.argus02a.c0.daytimex.rect.vflip.jpg
p422
aV1322413200.Sun.Nov.27_17_00_00.GMT.2011.argus02a.c0.daytimex.rect.vflip.jpg
p423
aV994262400.Wed.Jul.04_16_00_00.GMT.2001.argus02a.c0.daytimex.rect.vflip.jpg
p424
aV741283200.Mon.Jun.28_16_00_00.GMT.1993.argus02.c0.daytimex.rect.vflip.jpg
p425
aV1091721600.Thu.Aug.05_16_00_00.GMT.2004.argus02a.c0.daytimex.rect.vflip.jpg
p426
aV963331200.Tue.Jul.11_16_00_00.GMT.2000.argus02a.c0.daytimex.rect.vflip.jpg
p427
aV1409846400.Thu.Sep.04_16_00_00.GMT.2014.argus02a.c0.daytimex.rect.vflip.jpg
p428
aV934387200.Wed.Aug.11_16_00_00.GMT.1999.argus02a.c0.daytimex.rect.vflip.jpg
p429
aV730486800.Tue.Feb.23_17_00_00.GMT.1993.argus02.c0.daytimex.rect.vflip.jpg
p430
aV1311955200.Fri.Jul.29_16_00_00.GMT.2011.argus02a.c0.daytimex.rect.vflip.jpg
p431
aV1085500800.Tue.May.25_16_00_00.GMT.2004.argus02a.c0.daytimex.rect.vflip.jpg
p432
aV1178121600.Wed.May.02_16_00_00.GMT.2007.argus02a.c0.daytimex.rect.vflip.jpg
p433
aV1193936400.Thu.Nov.01_17_00_00.GMT.2007.argus02a.c0.daytimex.rect.vflip.jpg
p434
aV926179200.Sat.May.08_16_00_00.GMT.1999.argus02a.c0.daytimex.rect.vflip.jpg
p435
aV738691200.Sat.May.29_16_00_00.GMT.1993.argus02.c0.daytimex.rect.vflip.jpg
p436
aV1329325200.Wed.Feb.15_17_00_00.GMT.2012.argus02a.c0.daytimex.rect.vflip.jpg
p437
aV965491200.Sat.Aug.05_16_00_00.GMT.2000.argus02a.c0.daytimex.rect.vflip.jpg
p438
aV1184428800.Sat.Jul.14_16_00_00.GMT.2007.argus02a.c0.daytimex.rect.vflip.jpg
p439
aV741888000.Mon.Jul.05_16_00_00.GMT.1993.argus02.c0.daytimex.rect.vflip.jpg
p440
aV1312473600.Thu.Aug.04_16_00_00.GMT.2011.argus02a.c0.daytimex.rect.vflip.jpg
p441
aV1084291200.Tue.May.11_16_00_00.GMT.2004.argus02a.c0.daytimex.rect.vflip.jpg
p442
aV1260896400.Tue.Dec.15_17_00_00.GMT.2009.argus02a.c0.daytimex.rect.vflip.jpg
p443
aV1312387200.Wed.Aug.03_16_00_00.GMT.2011.argus02a.c0.daytimex.rect.vflip.jpg
p444
aV807724800.Sun.Aug.06_16_00_00.GMT.1995.argus02.c0.daytimex.rect.vflip.jpg
p445
aV1332003600.Sat.Mar.17_17_00_00.GMT.2012.argus02a.c0.daytimex.rect.vflip.jpg
p446
aV1019318400.Sat.Apr.20_16_00_00.GMT.2002.argus02a.c0.daytimex.rect.vflip.jpg
p447
aV1061222400.Mon.Aug.18_16_00_00.GMT.2003.argus02a.c0.daytimex.rect.vflip.jpg
p448
aV1287417600.Mon.Oct.18_16_00_00.GMT.2010.argus02a.c0.daytimex.rect.vflip.jpg
p449
aV1310313600.Sun.Jul.10_16_00_00.GMT.2011.argus02a.c0.daytimex.rect.vflip.jpg
p450
aV994003200.Sun.Jul.01_16_00_00.GMT.2001.argus02a.c0.daytimex.rect.vflip.jpg
p451
aV835286400.Thu.Jun.20_16_00_00.GMT.1996.argus02.c0.daytimex.rect.vflip.jpg
p452
aV880045200.Thu.Nov.20_17_00_00.GMT.1997.argus02a.c0.daytimex.rect.vflip.jpg
p453
aV766598400.Sun.Apr.17_16_00_00.GMT.1994.argus02.c0.daytimex.rect.vflip.jpg
p454
aV840556800.Tue.Aug.20_16_00_00.GMT.1996.argus02.c0.daytimex.rect.vflip.jpg
p455
aV1273161600.Thu.May.06_16_00_00.GMT.2010.argus02a.c0.daytimex.rect.vflip.jpg
p456
aV1197392400.Tue.Dec.11_17_00_00.GMT.2007.argus02a.c0.daytimex.rect.vflip.jpg
p457
aV898531200.Mon.Jun.22_16_00_00.GMT.1998.argus02a.c0.daytimex.rect.vflip.jpg
p458
aV966873600.Mon.Aug.21_16_00_00.GMT.2000.argus02a.c0.daytimex.rect.vflip.jpg
p459
aV845136000.Sat.Oct.12_16_00_00.GMT.1996.argus02.c0.daytimex.rect.vflip.jpg
p460
aV1333126800.Fri.Mar.30_17_00_00.GMT.2012.argus02a.c0.daytimex.rect.vflip.jpg
p461
aV1333468800.Tue.Apr.03_16_00_00.GMT.2012.argus02a.c0.daytimex.rect.vflip.jpg
p462
aV1354899600.Fri.Dec.07_17_00_00.GMT.2012.argus02a.c0.daytimex.rect.vflip.jpg
p463
aV1061913600.Tue.Aug.26_16_00_00.GMT.2003.argus02a.c0.daytimex.rect.vflip.jpg
p464
aV746035200.Sun.Aug.22_16_00_00.GMT.1993.argus02.c0.daytimex.rect.vflip.jpg
p465
aV1216396800.Fri.Jul.18_16_00_00.GMT.2008.argus02a.c0.daytimex.rect.vflip.jpg
p466
aV1214755200.Sun.Jun.29_16_00_00.GMT.2008.argus02a.c0.daytimex.rect.vflip.jpg
p467
aV1283184000.Mon.Aug.30_16_00_00.GMT.2010.argus02a.c0.daytimex.rect.vflip.jpg
p468
aV1343232000.Wed.Jul.25_16_00_00.GMT.2012.argus02a.c0.daytimex.rect.vflip.jpg
p469
aV1060876800.Thu.Aug.14_16_00_00.GMT.2003.argus02a.c0.daytimex.rect.vflip.jpg
p470
aV1345564800.Tue.Aug.21_16_00_00.GMT.2012.argus02a.c0.daytimex.rect.vflip.jpg
p471
aV1048611600.Tue.Mar.25_17_00_00.GMT.2003.argus02a.c0.daytimex.rect.vflip.jpg
p472
aV1345651200.Wed.Aug.22_16_00_00.GMT.2012.argus02a.c0.daytimex.rect.vflip.jpg
p473
aV1334764800.Wed.Apr.18_16_00_00.GMT.2012.argus02a.c0.daytimex.rect.vflip.jpg
p474
aV1356282000.Sun.Dec.23_17_00_00.GMT.2012.argus02a.c0.daytimex.rect.vflip.jpg
p475
aV1379260800.Sun.Sep.15_16_00_00.GMT.2013.argus02a.c0.daytimex.rect.vflip.jpg
p476
aV1336752000.Fri.May.11_16_00_00.GMT.2012.argus02a.c0.daytimex.rect.vflip.jpg
p477
aV1354813200.Thu.Dec.06_17_00_00.GMT.2012.argus02a.c0.daytimex.rect.vflip.jpg
p478
aV960566400.Fri.Jun.09_16_00_00.GMT.2000.argus02a.c0.daytimex.rect.vflip.jpg
p479
aV839692800.Sat.Aug.10_16_00_00.GMT.1996.argus02.c0.daytimex.rect.vflip.jpg
p480
aV763059600.Mon.Mar.07_17_00_00.GMT.1994.argus02.c0.daytimex.rect.vflip.jpg
p481
aV825526800.Wed.Feb.28_17_00_00.GMT.1996.argus02.c0.daytimex.rect.vflip.jpg
p482
aV1248624000.Sun.Jul.26_16_00_00.GMT.2009.argus02a.c0.daytimex.rect.vflip.jpg
p483
aV1331053200.Tue.Mar.06_17_00_00.GMT.2012.argus02a.c0.daytimex.rect.vflip.jpg
p484
aV1343145600.Tue.Jul.24_16_00_00.GMT.2012.argus02a.c0.daytimex.rect.vflip.jpg
p485
aV869846400.Fri.Jul.25_16_00_00.GMT.1997.argus02.c0.daytimex.rect.vflip.jpg
p486
aV957542400.Fri.May.05_16_00_00.GMT.2000.argus02a.c0.daytimex.rect.vflip.jpg
p487
aV1098892800.Wed.Oct.27_16_00_00.GMT.2004.argus02a.c0.daytimex.rect.vflip.jpg
p488
aV801676800.Sun.May.28_16_00_00.GMT.1995.argus02.c0.daytimex.rect.vflip.jpg
p489
aV1378483200.Fri.Sep.06_16_00_00.GMT.2013.argus02a.c0.daytimex.rect.vflip.jpg
p490
aV1373731200.Sat.Jul.13_16_00_00.GMT.2013.argus02a.c0.daytimex.rect.vflip.jpg
p491
aV1023379200.Thu.Jun.06_16_00_00.GMT.2002.argus02a.c0.daytimex.rect.vflip.jpg
p492
aV1008608400.Mon.Dec.17_17_00_00.GMT.2001.argus02a.c0.daytimex.rect.vflip.jpg
p493
aV1097337600.Sat.Oct.09_16_00_00.GMT.2004.argus02a.c0.daytimex.rect.vflip.jpg
p494
aV1121011200.Sun.Jul.10_16_00_00.GMT.2005.argus02a.c0.daytimex.rect.vflip.jpg
p495
aV1009558800.Fri.Dec.28_17_00_00.GMT.2001.argus02a.c0.daytimex.rect.vflip.jpg
p496
aV1247760000.Thu.Jul.16_16_00_00.GMT.2009.argus02a.c0.daytimex.rect.vflip.jpg
p497
aV1373644800.Fri.Jul.12_16_00_00.GMT.2013.argus02a.c0.daytimex.rect.vflip.jpg
p498
aV900432000.Tue.Jul.14_16_00_00.GMT.1998.argus02a.c0.daytimex.rect.vflip.jpg
p499
aV894038400.Fri.May.01_16_00_00.GMT.1998.argus02a.c0.daytimex.rect.vflip.jpg
p500
aV1339257600.Sat.Jun.09_16_00_00.GMT.2012.argus02a.c0.daytimex.rect.vflip.jpg
p501
aV1120752000.Thu.Jul.07_16_00_00.GMT.2005.argus02a.c0.daytimex.rect.vflip.jpg
p502
aV1007830800.Sat.Dec.08_17_00_00.GMT.2001.argus02a.c0.daytimex.rect.vflip.jpg
p503
aV1247155200.Thu.Jul.09_16_00_00.GMT.2009.argus02a.c0.daytimex.rect.vflip.jpg
p504
aV1120924800.Sat.Jul.09_16_00_00.GMT.2005.argus02a.c0.daytimex.rect.vflip.jpg
p505
aV1097596800.Tue.Oct.12_16_00_00.GMT.2004.argus02a.c0.daytimex.rect.vflip.jpg
p506
aV1082390400.Mon.Apr.19_16_00_00.GMT.2004.argus02a.c0.daytimex.rect.vflip.jpg
p507
aV1404403200.Thu.Jul.03_16_00_00.GMT.2014.argus02a.c0.daytimex.rect.vflip.jpg
p508
aV1380643200.Tue.Oct.01_16_00_00.GMT.2013.argus02a.c0.daytimex.rect.vflip.jpg
p509
aV958665600.Thu.May.18_16_00_00.GMT.2000.argus02a.c0.daytimex.rect.vflip.jpg
p510
aV1401552000.Sat.May.31_16_00_00.GMT.2014.argus02a.c0.daytimex.rect.vflip.jpg
p511
aV910803600.Wed.Nov.11_17_00_00.GMT.1998.argus02a.c0.daytimex.rect.vflip.jpg
p512
aV930499200.Sun.Jun.27_16_00_00.GMT.1999.argus02a.c0.daytimex.rect.vflip.jpg
p513
aV1355590800.Sat.Dec.15_17_00_00.GMT.2012.argus02a.c0.daytimex.rect.vflip.jpg
p514
aV954608400.Sat.Apr.01_17_00_00.GMT.2000.argus02a.c0.daytimex.rect.vflip.jpg
p515
aV740246400.Wed.Jun.16_16_00_00.GMT.1993.argus02.c0.daytimex.rect.vflip.jpg
p516
aV941734800.Thu.Nov.04_17_00_00.GMT.1999.argus02a.c0.daytimex.rect.vflip.jpg
p517
aV1401379200.Thu.May.29_16_00_00.GMT.2014.argus02a.c0.daytimex.rect.vflip.jpg
p518
aV1030809600.Sat.Aug.31_16_00_00.GMT.2002.argus02a.c0.daytimex.rect.vflip.jpg
p519
aV856976400.Wed.Feb.26_17_00_00.GMT.1997.argus02.c0.daytimex.rect.vflip.jpg
p520
aV896630400.Sun.May.31_16_00_00.GMT.1998.argus02a.c0.daytimex.rect.vflip.jpg
p521
aV788893200.Sat.Dec.31_17_00_00.GMT.1994.argus02.c0.daytimex.rect.vflip.jpg
p522
aV1293642000.Wed.Dec.29_17_00_00.GMT.2010.argus02a.c0.daytimex.rect.vflip.jpg
p523
aV861292800.Thu.Apr.17_16_00_00.GMT.1997.argus02.c0.daytimex.rect.vflip.jpg
p524
aV1272297600.Mon.Apr.26_16_00_00.GMT.2010.argus02a.c0.daytimex.rect.vflip.jpg
p525
aV796410000.Tue.Mar.28_17_00_00.GMT.1995.argus02.c0.daytimex.rect.vflip.jpg
p526
aV1265648400.Mon.Feb.08_17_00_00.GMT.2010.argus02a.c0.daytimex.rect.vflip.jpg
p527
aV1359306000.Sun.Jan.27_17_00_00.GMT.2013.argus02a.c0.daytimex.rect.vflip.jpg
p528
aV1233421200.Sat.Jan.31_17_00_00.GMT.2009.argus02a.c0.daytimex.rect.vflip.jpg
p529
aV1386176400.Wed.Dec.04_17_00_00.GMT.2013.argus02a.c0.daytimex.rect.vflip.jpg
p530
aV1235235600.Sat.Feb.21_17_00_00.GMT.2009.argus02a.c0.daytimex.rect.vflip.jpg
p531
aV1409068800.Tue.Aug.26_16_00_00.GMT.2014.argus02a.c0.daytimex.rect.vflip.jpg
p532
aV1226250000.Sun.Nov.09_17_00_00.GMT.2008.argus02a.c0.daytimex.rect.vflip.jpg
p533
aV1338566400.Fri.Jun.01_16_00_00.GMT.2012.argus02a.c0.daytimex.rect.vflip.jpg
p534
aV1233248400.Thu.Jan.29_17_00_00.GMT.2009.argus02a.c0.daytimex.rect.vflip.jpg
p535
aV1253030400.Tue.Sep.15_16_00_00.GMT.2009.argus02a.c0.daytimex.rect.vflip.jpg
p536
aV1243008000.Fri.May.22_16_00_00.GMT.2009.argus02a.c0.daytimex.rect.vflip.jpg
p537
aV1017853200.Wed.Apr.03_17_00_00.GMT.2002.argus02a.c0.daytimex.rect.vflip.jpg
p538
aV1396972800.Tue.Apr.08_16_00_00.GMT.2014.argus02a.c0.daytimex.rect.vflip.jpg
p539
aV1305561600.Mon.May.16_16_00_00.GMT.2011.argus02a.c0.daytimex.rect.vflip.jpg
p540
aV1256576400.Mon.Oct.26_17_00_00.GMT.2009.argus02a.c0.daytimex.rect.vflip.jpg
p541
aV812908800.Thu.Oct.05_16_00_00.GMT.1995.argus02.c0.daytimex.rect.vflip.jpg
p542
aV1396198800.Sun.Mar.30_17_00_00.GMT.2014.argus02a.c0.daytimex.rect.vflip.jpg
p543
aV1100710800.Wed.Nov.17_17_00_00.GMT.2004.argus02a.c0.daytimex.rect.vflip.jpg
p544
aV1023897600.Wed.Jun.12_16_00_00.GMT.2002.argus02a.c0.daytimex.rect.vflip.jpg
p545
aV920134800.Sat.Feb.27_17_00_00.GMT.1999.argus02a.c0.daytimex.rect.vflip.jpg
p546
aV1337875200.Thu.May.24_16_00_00.GMT.2012.argus02a.c0.daytimex.rect.vflip.jpg
p547
aV1411142400.Fri.Sep.19_16_00_00.GMT.2014.argus02a.c0.daytimex.rect.vflip.jpg
p548
aV1072630800.Sun.Dec.28_17_00_00.GMT.2003.argus02a.c0.daytimex.rect.vflip.jpg
p549
aV1256054400.Tue.Oct.20_16_00_00.GMT.2009.argus02a.c0.daytimex.rect.vflip.jpg
p550
aV1015693200.Sat.Mar.09_17_00_00.GMT.2002.argus02a.c0.daytimex.rect.vflip.jpg
p551
aV1393347600.Tue.Feb.25_17_00_00.GMT.2014.argus02a.c0.daytimex.rect.vflip.jpg
p552
aV905011200.Sat.Sep.05_16_00_00.GMT.1998.argus02a.c0.daytimex.rect.vflip.jpg
p553
aV1226163600.Sat.Nov.08_17_00_00.GMT.2008.argus02a.c0.daytimex.rect.vflip.jpg
p554
aV1298653200.Fri.Feb.25_17_00_00.GMT.2011.argus02a.c0.daytimex.rect.vflip.jpg
p555
aV854298000.Sun.Jan.26_17_00_00.GMT.1997.argus02.c0.daytimex.rect.vflip.jpg
p556
aV1315584000.Fri.Sep.09_16_00_00.GMT.2011.argus02a.c0.daytimex.rect.vflip.jpg
p557
aV1298307600.Mon.Feb.21_17_00_00.GMT.2011.argus02a.c0.daytimex.rect.vflip.jpg
p558
aV1304092800.Fri.Apr.29_16_00_00.GMT.2011.argus02a.c0.daytimex.rect.vflip.jpg
p559
aV1303920000.Wed.Apr.27_16_00_00.GMT.2011.argus02a.c0.daytimex.rect.vflip.jpg
p560
aV1040144400.Tue.Dec.17_17_00_00.GMT.2002.argus02a.c0.daytimex.rect.vflip.jpg
p561
aV1187971200.Fri.Aug.24_16_00_00.GMT.2007.argus02a.c0.daytimex.rect.vflip.jpg
p562
aV1193500800.Sat.Oct.27_16_00_00.GMT.2007.argus02a.c0.daytimex.rect.vflip.jpg
p563
aV1143133200.Thu.Mar.23_17_00_00.GMT.2006.argus02a.c0.daytimex.rect.vflip.jpg
p564
aV874166400.Sat.Sep.13_16_00_00.GMT.1997.argus02.c0.daytimex.rect.vflip.jpg
p565
aV1277136000.Mon.Jun.21_16_00_00.GMT.2010.argus02a.c0.daytimex.rect.vflip.jpg
p566
aV787856400.Mon.Dec.19_17_00_00.GMT.1994.argus02.c0.daytimex.rect.vflip.jpg
p567
aV1298394000.Tue.Feb.22_17_00_00.GMT.2011.argus02a.c0.daytimex.rect.vflip.jpg
p568
aV1178726400.Wed.May.09_16_00_00.GMT.2007.argus02a.c0.daytimex.rect.vflip.jpg
p569
aV1300986000.Thu.Mar.24_17_00_00.GMT.2011.argus02a.c0.daytimex.rect.vflip.jpg
p570
aV786906000.Thu.Dec.08_17_00_00.GMT.1994.argus02.c0.daytimex.rect.vflip.jpg
p571
aV1172250000.Fri.Feb.23_17_00_00.GMT.2007.argus02a.c0.daytimex.rect.vflip.jpg
p572
aV1074358800.Sat.Jan.17_17_00_00.GMT.2004.argus02a.c0.daytimex.rect.vflip.jpg
p573
aV755888400.Tue.Dec.14_17_00_00.GMT.1993.argus02.c0.daytimex.rect.vflip.jpg
p574
aV1196269200.Wed.Nov.28_17_00_00.GMT.2007.argus02a.c0.daytimex.rect.vflip.jpg
p575
aV1032883200.Tue.Sep.24_16_00_00.GMT.2002.argus02a.c0.daytimex.rect.vflip.jpg
p576
aV921171600.Thu.Mar.11_17_00_00.GMT.1999.argus02a.c0.daytimex.rect.vflip.jpg
p577
aV1142701200.Sat.Mar.18_17_00_00.GMT.2006.argus02a.c0.daytimex.rect.vflip.jpg
p578
aV1138122000.Tue.Jan.24_17_00_00.GMT.2006.argus02a.c0.daytimex.rect.vflip.jpg
p579
aV1133197200.Mon.Nov.28_17_00_00.GMT.2005.argus02a.c0.daytimex.rect.vflip.jpg
p580
aV915642000.Wed.Jan.06_17_00_00.GMT.1999.argus02a.c0.daytimex.rect.vflip.jpg
p581
aV1302105600.Wed.Apr.06_16_00_00.GMT.2011.argus02a.c0.daytimex.rect.vflip.jpg
p582
aV778176000.Mon.Aug.29_16_00_00.GMT.1994.argus02.c0.daytimex.rect.vflip.jpg
p583
aV799603200.Thu.May.04_16_00_00.GMT.1995.argus02.c0.daytimex.rect.vflip.jpg
p584
aV1072285200.Wed.Dec.24_17_00_00.GMT.2003.argus02a.c0.daytimex.rect.vflip.jpg
p585
aV1414166400.Fri.Oct.24_16_00_00.GMT.2014.argus02a.c0.daytimex.rect.vflip.jpg
p586
aV1255968000.Mon.Oct.19_16_00_00.GMT.2009.argus02a.c0.daytimex.rect.vflip.jpg
p587
aV1197565200.Thu.Dec.13_17_00_00.GMT.2007.argus02a.c0.daytimex.rect.vflip.jpg
p588
aV1350057600.Fri.Oct.12_16_00_00.GMT.2012.argus02a.c0.daytimex.rect.vflip.jpg
p589
aV1071507600.Mon.Dec.15_17_00_00.GMT.2003.argus02a.c0.daytimex.rect.vflip.jpg
p590
aV769190400.Tue.May.17_16_00_00.GMT.1994.argus02.c0.daytimex.rect.vflip.jpg
p591
aV1308067200.Tue.Jun.14_16_00_00.GMT.2011.argus02a.c0.daytimex.rect.vflip.jpg
p592
aV1038416400.Wed.Nov.27_17_00_00.GMT.2002.argus02a.c0.daytimex.rect.vflip.jpg
p593
aV817664400.Wed.Nov.29_17_00_00.GMT.1995.argus02.c0.daytimex.rect.vflip.jpg
p594
aV1231606800.Sat.Jan.10_17_00_00.GMT.2009.argus02a.c0.daytimex.rect.vflip.jpg
p595
aV1385053200.Thu.Nov.21_17_00_00.GMT.2013.argus02a.c0.daytimex.rect.vflip.jpg
p596
aV1261155600.Fri.Dec.18_17_00_00.GMT.2009.argus02a.c0.daytimex.rect.vflip.jpg
p597
aV1029513600.Fri.Aug.16_16_00_00.GMT.2002.argus02a.c0.daytimex.rect.vflip.jpg
p598
aV1409587200.Mon.Sep.01_16_00_00.GMT.2014.argus02a.c0.daytimex.rect.vflip.jpg
p599
aV1142874000.Mon.Mar.20_17_00_00.GMT.2006.argus02a.c0.daytimex.rect.vflip.jpg
p600
aV816886800.Mon.Nov.20_17_00_00.GMT.1995.argus02.c0.daytimex.rect.vflip.jpg
p601
aV1251820800.Tue.Sep.01_16_00_00.GMT.2009.argus02a.c0.daytimex.rect.vflip.jpg
p602
aV1131814800.Sat.Nov.12_17_00_00.GMT.2005.argus02a.c0.daytimex.rect.vflip.jpg
p603
aV1117814400.Fri.Jun.03_16_00_00.GMT.2005.argus02a.c0.daytimex.rect.vflip.jpg
p604
aV1103562000.Mon.Dec.20_17_00_00.GMT.2004.argus02a.c0.daytimex.rect.vflip.jpg
p605
aV791139600.Thu.Jan.26_17_00_00.GMT.1995.argus02.c0.daytimex.rect.vflip.jpg
p606
aV907344000.Fri.Oct.02_16_00_00.GMT.1998.argus02a.c0.daytimex.rect.vflip.jpg
p607
aV1180022400.Thu.May.24_16_00_00.GMT.2007.argus02a.c0.daytimex.rect.vflip.jpg
p608
aV815590800.Sun.Nov.05_17_00_00.GMT.1995.argus02.c0.daytimex.rect.vflip.jpg
p609
aV1413734400.Sun.Oct.19_16_00_00.GMT.2014.argus02a.c0.daytimex.rect.vflip.jpg
p610
aV847645200.Sun.Nov.10_17_00_00.GMT.1996.argus02.c0.daytimex.rect.vflip.jpg
p611
aV873475200.Fri.Sep.05_16_00_00.GMT.1997.argus02.c0.daytimex.rect.vflip.jpg
p612
aV1301331600.Mon.Mar.28_17_00_00.GMT.2011.argus02a.c0.daytimex.rect.vflip.jpg
p613
aV1196528400.Sat.Dec.01_17_00_00.GMT.2007.argus02a.c0.daytimex.rect.vflip.jpg
p614
aV1137690000.Thu.Jan.19_17_00_00.GMT.2006.argus02a.c0.daytimex.rect.vflip.jpg
p615
aV817318800.Sat.Nov.25_17_00_00.GMT.1995.argus02.c0.daytimex.rect.vflip.jpg
p616
aV817923600.Sat.Dec.02_17_00_00.GMT.1995.argus02.c0.daytimex.rect.vflip.jpg
p617
aV1193414400.Fri.Oct.26_16_00_00.GMT.2007.argus02a.c0.daytimex.rect.vflip.jpg
p618
aV923328000.Mon.Apr.05_16_00_00.GMT.1999.argus02a.c0.daytimex.rect.vflip.jpg
p619
aV1076259600.Sun.Feb.08_17_00_00.GMT.2004.argus02a.c0.daytimex.rect.vflip.jpg
p620
aV1304438400.Tue.May.03_16_00_00.GMT.2011.argus02a.c0.daytimex.rect.vflip.jpg
p621
aV1181923200.Fri.Jun.15_16_00_00.GMT.2007.argus02a.c0.daytimex.rect.vflip.jpg
p622
aV1283529600.Fri.Sep.03_16_00_00.GMT.2010.argus02a.c0.daytimex.rect.vflip.jpg
p623
aV1132160400.Wed.Nov.16_17_00_00.GMT.2005.argus02a.c0.daytimex.rect.vflip.jpg
p624
aV966182400.Sun.Aug.13_16_00_00.GMT.2000.argus02a.c0.daytimex.rect.vflip.jpg
p625
aV1297270800.Wed.Feb.09_17_00_00.GMT.2011.argus02a.c0.daytimex.rect.vflip.jpg
p626
aV1327424400.Tue.Jan.24_17_00_00.GMT.2012.argus02a.c0.daytimex.rect.vflip.jpg
p627
aV1328634000.Tue.Feb.07_17_00_00.GMT.2012.argus02a.c0.daytimex.rect.vflip.jpg
p628
aV884797200.Wed.Jan.14_17_00_00.GMT.1998.argus02a.c0.daytimex.rect.vflip.jpg
p629
aV1103734800.Wed.Dec.22_17_00_00.GMT.2004.argus02a.c0.daytimex.rect.vflip.jpg
p630
aV1330534800.Wed.Feb.29_17_00_00.GMT.2012.argus02a.c0.daytimex.rect.rot.jpg
p631
aV1089734400.Tue.Jul.13_16_00_00.GMT.2004.argus02a.c0.daytimex.rect.rot.jpg
p632
aV1322413200.Sun.Nov.27_17_00_00.GMT.2011.argus02a.c0.daytimex.rect.rot.jpg
p633
aV994262400.Wed.Jul.04_16_00_00.GMT.2001.argus02a.c0.daytimex.rect.rot.jpg
p634
aV741283200.Mon.Jun.28_16_00_00.GMT.1993.argus02.c0.daytimex.rect.rot.jpg
p635
aV1091721600.Thu.Aug.05_16_00_00.GMT.2004.argus02a.c0.daytimex.rect.rot.jpg
p636
aV963331200.Tue.Jul.11_16_00_00.GMT.2000.argus02a.c0.daytimex.rect.rot.jpg
p637
aV1409846400.Thu.Sep.04_16_00_00.GMT.2014.argus02a.c0.daytimex.rect.rot.jpg
p638
aV934387200.Wed.Aug.11_16_00_00.GMT.1999.argus02a.c0.daytimex.rect.rot.jpg
p639
aV730486800.Tue.Feb.23_17_00_00.GMT.1993.argus02.c0.daytimex.rect.rot.jpg
p640
aV1311955200.Fri.Jul.29_16_00_00.GMT.2011.argus02a.c0.daytimex.rect.rot.jpg
p641
aV1085500800.Tue.May.25_16_00_00.GMT.2004.argus02a.c0.daytimex.rect.rot.jpg
p642
aV1178121600.Wed.May.02_16_00_00.GMT.2007.argus02a.c0.daytimex.rect.rot.jpg
p643
aV1193936400.Thu.Nov.01_17_00_00.GMT.2007.argus02a.c0.daytimex.rect.rot.jpg
p644
aV926179200.Sat.May.08_16_00_00.GMT.1999.argus02a.c0.daytimex.rect.rot.jpg
p645
aV738691200.Sat.May.29_16_00_00.GMT.1993.argus02.c0.daytimex.rect.rot.jpg
p646
aV1329325200.Wed.Feb.15_17_00_00.GMT.2012.argus02a.c0.daytimex.rect.rot.jpg
p647
aV965491200.Sat.Aug.05_16_00_00.GMT.2000.argus02a.c0.daytimex.rect.rot.jpg
p648
aV1184428800.Sat.Jul.14_16_00_00.GMT.2007.argus02a.c0.daytimex.rect.rot.jpg
p649
aV741888000.Mon.Jul.05_16_00_00.GMT.1993.argus02.c0.daytimex.rect.rot.jpg
p650
aV1312473600.Thu.Aug.04_16_00_00.GMT.2011.argus02a.c0.daytimex.rect.rot.jpg
p651
aV1084291200.Tue.May.11_16_00_00.GMT.2004.argus02a.c0.daytimex.rect.rot.jpg
p652
aV1260896400.Tue.Dec.15_17_00_00.GMT.2009.argus02a.c0.daytimex.rect.rot.jpg
p653
aV1312387200.Wed.Aug.03_16_00_00.GMT.2011.argus02a.c0.daytimex.rect.rot.jpg
p654
aV807724800.Sun.Aug.06_16_00_00.GMT.1995.argus02.c0.daytimex.rect.rot.jpg
p655
aV1332003600.Sat.Mar.17_17_00_00.GMT.2012.argus02a.c0.daytimex.rect.rot.jpg
p656
aV1019318400.Sat.Apr.20_16_00_00.GMT.2002.argus02a.c0.daytimex.rect.rot.jpg
p657
aV1061222400.Mon.Aug.18_16_00_00.GMT.2003.argus02a.c0.daytimex.rect.rot.jpg
p658
aV1287417600.Mon.Oct.18_16_00_00.GMT.2010.argus02a.c0.daytimex.rect.rot.jpg
p659
aV1310313600.Sun.Jul.10_16_00_00.GMT.2011.argus02a.c0.daytimex.rect.rot.jpg
p660
aV994003200.Sun.Jul.01_16_00_00.GMT.2001.argus02a.c0.daytimex.rect.rot.jpg
p661
aV835286400.Thu.Jun.20_16_00_00.GMT.1996.argus02.c0.daytimex.rect.rot.jpg
p662
aV880045200.Thu.Nov.20_17_00_00.GMT.1997.argus02a.c0.daytimex.rect.rot.jpg
p663
aV766598400.Sun.Apr.17_16_00_00.GMT.1994.argus02.c0.daytimex.rect.rot.jpg
p664
aV840556800.Tue.Aug.20_16_00_00.GMT.1996.argus02.c0.daytimex.rect.rot.jpg
p665
aV1273161600.Thu.May.06_16_00_00.GMT.2010.argus02a.c0.daytimex.rect.rot.jpg
p666
aV1197392400.Tue.Dec.11_17_00_00.GMT.2007.argus02a.c0.daytimex.rect.rot.jpg
p667
aV898531200.Mon.Jun.22_16_00_00.GMT.1998.argus02a.c0.daytimex.rect.rot.jpg
p668
aV966873600.Mon.Aug.21_16_00_00.GMT.2000.argus02a.c0.daytimex.rect.rot.jpg
p669
aV845136000.Sat.Oct.12_16_00_00.GMT.1996.argus02.c0.daytimex.rect.rot.jpg
p670
aV1333126800.Fri.Mar.30_17_00_00.GMT.2012.argus02a.c0.daytimex.rect.rot.jpg
p671
aV1333468800.Tue.Apr.03_16_00_00.GMT.2012.argus02a.c0.daytimex.rect.rot.jpg
p672
aV1354899600.Fri.Dec.07_17_00_00.GMT.2012.argus02a.c0.daytimex.rect.rot.jpg
p673
aV1061913600.Tue.Aug.26_16_00_00.GMT.2003.argus02a.c0.daytimex.rect.rot.jpg
p674
aV746035200.Sun.Aug.22_16_00_00.GMT.1993.argus02.c0.daytimex.rect.rot.jpg
p675
aV1216396800.Fri.Jul.18_16_00_00.GMT.2008.argus02a.c0.daytimex.rect.rot.jpg
p676
aV1214755200.Sun.Jun.29_16_00_00.GMT.2008.argus02a.c0.daytimex.rect.rot.jpg
p677
aV1283184000.Mon.Aug.30_16_00_00.GMT.2010.argus02a.c0.daytimex.rect.rot.jpg
p678
aV1343232000.Wed.Jul.25_16_00_00.GMT.2012.argus02a.c0.daytimex.rect.rot.jpg
p679
aV1060876800.Thu.Aug.14_16_00_00.GMT.2003.argus02a.c0.daytimex.rect.rot.jpg
p680
aV1345564800.Tue.Aug.21_16_00_00.GMT.2012.argus02a.c0.daytimex.rect.rot.jpg
p681
aV1048611600.Tue.Mar.25_17_00_00.GMT.2003.argus02a.c0.daytimex.rect.rot.jpg
p682
aV1345651200.Wed.Aug.22_16_00_00.GMT.2012.argus02a.c0.daytimex.rect.rot.jpg
p683
aV1334764800.Wed.Apr.18_16_00_00.GMT.2012.argus02a.c0.daytimex.rect.rot.jpg
p684
aV1356282000.Sun.Dec.23_17_00_00.GMT.2012.argus02a.c0.daytimex.rect.rot.jpg
p685
aV1379260800.Sun.Sep.15_16_00_00.GMT.2013.argus02a.c0.daytimex.rect.rot.jpg
p686
aV1336752000.Fri.May.11_16_00_00.GMT.2012.argus02a.c0.daytimex.rect.rot.jpg
p687
aV1354813200.Thu.Dec.06_17_00_00.GMT.2012.argus02a.c0.daytimex.rect.rot.jpg
p688
aV960566400.Fri.Jun.09_16_00_00.GMT.2000.argus02a.c0.daytimex.rect.rot.jpg
p689
aV839692800.Sat.Aug.10_16_00_00.GMT.1996.argus02.c0.daytimex.rect.rot.jpg
p690
aV763059600.Mon.Mar.07_17_00_00.GMT.1994.argus02.c0.daytimex.rect.rot.jpg
p691
aV825526800.Wed.Feb.28_17_00_00.GMT.1996.argus02.c0.daytimex.rect.rot.jpg
p692
aV1248624000.Sun.Jul.26_16_00_00.GMT.2009.argus02a.c0.daytimex.rect.rot.jpg
p693
aV1331053200.Tue.Mar.06_17_00_00.GMT.2012.argus02a.c0.daytimex.rect.rot.jpg
p694
aV1343145600.Tue.Jul.24_16_00_00.GMT.2012.argus02a.c0.daytimex.rect.rot.jpg
p695
aV869846400.Fri.Jul.25_16_00_00.GMT.1997.argus02.c0.daytimex.rect.rot.jpg
p696
aV957542400.Fri.May.05_16_00_00.GMT.2000.argus02a.c0.daytimex.rect.rot.jpg
p697
aV1098892800.Wed.Oct.27_16_00_00.GMT.2004.argus02a.c0.daytimex.rect.rot.jpg
p698
aV801676800.Sun.May.28_16_00_00.GMT.1995.argus02.c0.daytimex.rect.rot.jpg
p699
aV1378483200.Fri.Sep.06_16_00_00.GMT.2013.argus02a.c0.daytimex.rect.rot.jpg
p700
aV1373731200.Sat.Jul.13_16_00_00.GMT.2013.argus02a.c0.daytimex.rect.rot.jpg
p701
aV1023379200.Thu.Jun.06_16_00_00.GMT.2002.argus02a.c0.daytimex.rect.rot.jpg
p702
aV1008608400.Mon.Dec.17_17_00_00.GMT.2001.argus02a.c0.daytimex.rect.rot.jpg
p703
aV1097337600.Sat.Oct.09_16_00_00.GMT.2004.argus02a.c0.daytimex.rect.rot.jpg
p704
aV1121011200.Sun.Jul.10_16_00_00.GMT.2005.argus02a.c0.daytimex.rect.rot.jpg
p705
aV1009558800.Fri.Dec.28_17_00_00.GMT.2001.argus02a.c0.daytimex.rect.rot.jpg
p706
aV1247760000.Thu.Jul.16_16_00_00.GMT.2009.argus02a.c0.daytimex.rect.rot.jpg
p707
aV1373644800.Fri.Jul.12_16_00_00.GMT.2013.argus02a.c0.daytimex.rect.rot.jpg
p708
aV900432000.Tue.Jul.14_16_00_00.GMT.1998.argus02a.c0.daytimex.rect.rot.jpg
p709
aV894038400.Fri.May.01_16_00_00.GMT.1998.argus02a.c0.daytimex.rect.rot.jpg
p710
aV1339257600.Sat.Jun.09_16_00_00.GMT.2012.argus02a.c0.daytimex.rect.rot.jpg
p711
aV1120752000.Thu.Jul.07_16_00_00.GMT.2005.argus02a.c0.daytimex.rect.rot.jpg
p712
aV1007830800.Sat.Dec.08_17_00_00.GMT.2001.argus02a.c0.daytimex.rect.rot.jpg
p713
aV1247155200.Thu.Jul.09_16_00_00.GMT.2009.argus02a.c0.daytimex.rect.rot.jpg
p714
aV1120924800.Sat.Jul.09_16_00_00.GMT.2005.argus02a.c0.daytimex.rect.rot.jpg
p715
aV1097596800.Tue.Oct.12_16_00_00.GMT.2004.argus02a.c0.daytimex.rect.rot.jpg
p716
aV1082390400.Mon.Apr.19_16_00_00.GMT.2004.argus02a.c0.daytimex.rect.rot.jpg
p717
aV1404403200.Thu.Jul.03_16_00_00.GMT.2014.argus02a.c0.daytimex.rect.rot.jpg
p718
aV1380643200.Tue.Oct.01_16_00_00.GMT.2013.argus02a.c0.daytimex.rect.rot.jpg
p719
aV958665600.Thu.May.18_16_00_00.GMT.2000.argus02a.c0.daytimex.rect.rot.jpg
p720
aV1401552000.Sat.May.31_16_00_00.GMT.2014.argus02a.c0.daytimex.rect.rot.jpg
p721
aV910803600.Wed.Nov.11_17_00_00.GMT.1998.argus02a.c0.daytimex.rect.rot.jpg
p722
aV930499200.Sun.Jun.27_16_00_00.GMT.1999.argus02a.c0.daytimex.rect.rot.jpg
p723
aV1355590800.Sat.Dec.15_17_00_00.GMT.2012.argus02a.c0.daytimex.rect.rot.jpg
p724
aV954608400.Sat.Apr.01_17_00_00.GMT.2000.argus02a.c0.daytimex.rect.rot.jpg
p725
aV740246400.Wed.Jun.16_16_00_00.GMT.1993.argus02.c0.daytimex.rect.rot.jpg
p726
aV941734800.Thu.Nov.04_17_00_00.GMT.1999.argus02a.c0.daytimex.rect.rot.jpg
p727
aV1401379200.Thu.May.29_16_00_00.GMT.2014.argus02a.c0.daytimex.rect.rot.jpg
p728
aV1030809600.Sat.Aug.31_16_00_00.GMT.2002.argus02a.c0.daytimex.rect.rot.jpg
p729
aV856976400.Wed.Feb.26_17_00_00.GMT.1997.argus02.c0.daytimex.rect.rot.jpg
p730
aV896630400.Sun.May.31_16_00_00.GMT.1998.argus02a.c0.daytimex.rect.rot.jpg
p731
aV788893200.Sat.Dec.31_17_00_00.GMT.1994.argus02.c0.daytimex.rect.rot.jpg
p732
aV1293642000.Wed.Dec.29_17_00_00.GMT.2010.argus02a.c0.daytimex.rect.rot.jpg
p733
aV861292800.Thu.Apr.17_16_00_00.GMT.1997.argus02.c0.daytimex.rect.rot.jpg
p734
aV1272297600.Mon.Apr.26_16_00_00.GMT.2010.argus02a.c0.daytimex.rect.rot.jpg
p735
aV796410000.Tue.Mar.28_17_00_00.GMT.1995.argus02.c0.daytimex.rect.rot.jpg
p736
aV1265648400.Mon.Feb.08_17_00_00.GMT.2010.argus02a.c0.daytimex.rect.rot.jpg
p737
aV1359306000.Sun.Jan.27_17_00_00.GMT.2013.argus02a.c0.daytimex.rect.rot.jpg
p738
aV1233421200.Sat.Jan.31_17_00_00.GMT.2009.argus02a.c0.daytimex.rect.rot.jpg
p739
aV1386176400.Wed.Dec.04_17_00_00.GMT.2013.argus02a.c0.daytimex.rect.rot.jpg
p740
aV1235235600.Sat.Feb.21_17_00_00.GMT.2009.argus02a.c0.daytimex.rect.rot.jpg
p741
aV1409068800.Tue.Aug.26_16_00_00.GMT.2014.argus02a.c0.daytimex.rect.rot.jpg
p742
aV1226250000.Sun.Nov.09_17_00_00.GMT.2008.argus02a.c0.daytimex.rect.rot.jpg
p743
aV1338566400.Fri.Jun.01_16_00_00.GMT.2012.argus02a.c0.daytimex.rect.rot.jpg
p744
aV1233248400.Thu.Jan.29_17_00_00.GMT.2009.argus02a.c0.daytimex.rect.rot.jpg
p745
aV1253030400.Tue.Sep.15_16_00_00.GMT.2009.argus02a.c0.daytimex.rect.rot.jpg
p746
aV1243008000.Fri.May.22_16_00_00.GMT.2009.argus02a.c0.daytimex.rect.rot.jpg
p747
aV1017853200.Wed.Apr.03_17_00_00.GMT.2002.argus02a.c0.daytimex.rect.rot.jpg
p748
aV1396972800.Tue.Apr.08_16_00_00.GMT.2014.argus02a.c0.daytimex.rect.rot.jpg
p749
aV1305561600.Mon.May.16_16_00_00.GMT.2011.argus02a.c0.daytimex.rect.rot.jpg
p750
aV1256576400.Mon.Oct.26_17_00_00.GMT.2009.argus02a.c0.daytimex.rect.rot.jpg
p751
aV812908800.Thu.Oct.05_16_00_00.GMT.1995.argus02.c0.daytimex.rect.rot.jpg
p752
aV1396198800.Sun.Mar.30_17_00_00.GMT.2014.argus02a.c0.daytimex.rect.rot.jpg
p753
aV1100710800.Wed.Nov.17_17_00_00.GMT.2004.argus02a.c0.daytimex.rect.rot.jpg
p754
aV1023897600.Wed.Jun.12_16_00_00.GMT.2002.argus02a.c0.daytimex.rect.rot.jpg
p755
aV920134800.Sat.Feb.27_17_00_00.GMT.1999.argus02a.c0.daytimex.rect.rot.jpg
p756
aV1337875200.Thu.May.24_16_00_00.GMT.2012.argus02a.c0.daytimex.rect.rot.jpg
p757
aV1411142400.Fri.Sep.19_16_00_00.GMT.2014.argus02a.c0.daytimex.rect.rot.jpg
p758
aV1072630800.Sun.Dec.28_17_00_00.GMT.2003.argus02a.c0.daytimex.rect.rot.jpg
p759
aV1256054400.Tue.Oct.20_16_00_00.GMT.2009.argus02a.c0.daytimex.rect.rot.jpg
p760
aV1015693200.Sat.Mar.09_17_00_00.GMT.2002.argus02a.c0.daytimex.rect.rot.jpg
p761
aV1393347600.Tue.Feb.25_17_00_00.GMT.2014.argus02a.c0.daytimex.rect.rot.jpg
p762
aV905011200.Sat.Sep.05_16_00_00.GMT.1998.argus02a.c0.daytimex.rect.rot.jpg
p763
aV1226163600.Sat.Nov.08_17_00_00.GMT.2008.argus02a.c0.daytimex.rect.rot.jpg
p764
aV1298653200.Fri.Feb.25_17_00_00.GMT.2011.argus02a.c0.daytimex.rect.rot.jpg
p765
aV854298000.Sun.Jan.26_17_00_00.GMT.1997.argus02.c0.daytimex.rect.rot.jpg
p766
aV1315584000.Fri.Sep.09_16_00_00.GMT.2011.argus02a.c0.daytimex.rect.rot.jpg
p767
aV1298307600.Mon.Feb.21_17_00_00.GMT.2011.argus02a.c0.daytimex.rect.rot.jpg
p768
aV1304092800.Fri.Apr.29_16_00_00.GMT.2011.argus02a.c0.daytimex.rect.rot.jpg
p769
aV1303920000.Wed.Apr.27_16_00_00.GMT.2011.argus02a.c0.daytimex.rect.rot.jpg
p770
aV1040144400.Tue.Dec.17_17_00_00.GMT.2002.argus02a.c0.daytimex.rect.rot.jpg
p771
aV1187971200.Fri.Aug.24_16_00_00.GMT.2007.argus02a.c0.daytimex.rect.rot.jpg
p772
aV1193500800.Sat.Oct.27_16_00_00.GMT.2007.argus02a.c0.daytimex.rect.rot.jpg
p773
aV1143133200.Thu.Mar.23_17_00_00.GMT.2006.argus02a.c0.daytimex.rect.rot.jpg
p774
aV874166400.Sat.Sep.13_16_00_00.GMT.1997.argus02.c0.daytimex.rect.rot.jpg
p775
aV1277136000.Mon.Jun.21_16_00_00.GMT.2010.argus02a.c0.daytimex.rect.rot.jpg
p776
aV787856400.Mon.Dec.19_17_00_00.GMT.1994.argus02.c0.daytimex.rect.rot.jpg
p777
aV1298394000.Tue.Feb.22_17_00_00.GMT.2011.argus02a.c0.daytimex.rect.rot.jpg
p778
aV1178726400.Wed.May.09_16_00_00.GMT.2007.argus02a.c0.daytimex.rect.rot.jpg
p779
aV1300986000.Thu.Mar.24_17_00_00.GMT.2011.argus02a.c0.daytimex.rect.rot.jpg
p780
aV786906000.Thu.Dec.08_17_00_00.GMT.1994.argus02.c0.daytimex.rect.rot.jpg
p781
aV1172250000.Fri.Feb.23_17_00_00.GMT.2007.argus02a.c0.daytimex.rect.rot.jpg
p782
aV1074358800.Sat.Jan.17_17_00_00.GMT.2004.argus02a.c0.daytimex.rect.rot.jpg
p783
aV755888400.Tue.Dec.14_17_00_00.GMT.1993.argus02.c0.daytimex.rect.rot.jpg
p784
aV1196269200.Wed.Nov.28_17_00_00.GMT.2007.argus02a.c0.daytimex.rect.rot.jpg
p785
aV1032883200.Tue.Sep.24_16_00_00.GMT.2002.argus02a.c0.daytimex.rect.rot.jpg
p786
aV921171600.Thu.Mar.11_17_00_00.GMT.1999.argus02a.c0.daytimex.rect.rot.jpg
p787
aV1142701200.Sat.Mar.18_17_00_00.GMT.2006.argus02a.c0.daytimex.rect.rot.jpg
p788
aV1138122000.Tue.Jan.24_17_00_00.GMT.2006.argus02a.c0.daytimex.rect.rot.jpg
p789
aV1133197200.Mon.Nov.28_17_00_00.GMT.2005.argus02a.c0.daytimex.rect.rot.jpg
p790
aV915642000.Wed.Jan.06_17_00_00.GMT.1999.argus02a.c0.daytimex.rect.rot.jpg
p791
aV1302105600.Wed.Apr.06_16_00_00.GMT.2011.argus02a.c0.daytimex.rect.rot.jpg
p792
aV778176000.Mon.Aug.29_16_00_00.GMT.1994.argus02.c0.daytimex.rect.rot.jpg
p793
aV799603200.Thu.May.04_16_00_00.GMT.1995.argus02.c0.daytimex.rect.rot.jpg
p794
aV1072285200.Wed.Dec.24_17_00_00.GMT.2003.argus02a.c0.daytimex.rect.rot.jpg
p795
aV1414166400.Fri.Oct.24_16_00_00.GMT.2014.argus02a.c0.daytimex.rect.rot.jpg
p796
aV1255968000.Mon.Oct.19_16_00_00.GMT.2009.argus02a.c0.daytimex.rect.rot.jpg
p797
aV1197565200.Thu.Dec.13_17_00_00.GMT.2007.argus02a.c0.daytimex.rect.rot.jpg
p798
aV1350057600.Fri.Oct.12_16_00_00.GMT.2012.argus02a.c0.daytimex.rect.rot.jpg
p799
aV1071507600.Mon.Dec.15_17_00_00.GMT.2003.argus02a.c0.daytimex.rect.rot.jpg
p800
aV769190400.Tue.May.17_16_00_00.GMT.1994.argus02.c0.daytimex.rect.rot.jpg
p801
aV1308067200.Tue.Jun.14_16_00_00.GMT.2011.argus02a.c0.daytimex.rect.rot.jpg
p802
aV1038416400.Wed.Nov.27_17_00_00.GMT.2002.argus02a.c0.daytimex.rect.rot.jpg
p803
aV817664400.Wed.Nov.29_17_00_00.GMT.1995.argus02.c0.daytimex.rect.rot.jpg
p804
aV1231606800.Sat.Jan.10_17_00_00.GMT.2009.argus02a.c0.daytimex.rect.rot.jpg
p805
aV1385053200.Thu.Nov.21_17_00_00.GMT.2013.argus02a.c0.daytimex.rect.rot.jpg
p806
aV1261155600.Fri.Dec.18_17_00_00.GMT.2009.argus02a.c0.daytimex.rect.rot.jpg
p807
aV1029513600.Fri.Aug.16_16_00_00.GMT.2002.argus02a.c0.daytimex.rect.rot.jpg
p808
aV1409587200.Mon.Sep.01_16_00_00.GMT.2014.argus02a.c0.daytimex.rect.rot.jpg
p809
aV1142874000.Mon.Mar.20_17_00_00.GMT.2006.argus02a.c0.daytimex.rect.rot.jpg
p810
aV816886800.Mon.Nov.20_17_00_00.GMT.1995.argus02.c0.daytimex.rect.rot.jpg
p811
aV1251820800.Tue.Sep.01_16_00_00.GMT.2009.argus02a.c0.daytimex.rect.rot.jpg
p812
aV1131814800.Sat.Nov.12_17_00_00.GMT.2005.argus02a.c0.daytimex.rect.rot.jpg
p813
aV1117814400.Fri.Jun.03_16_00_00.GMT.2005.argus02a.c0.daytimex.rect.rot.jpg
p814
aV1103562000.Mon.Dec.20_17_00_00.GMT.2004.argus02a.c0.daytimex.rect.rot.jpg
p815
aV791139600.Thu.Jan.26_17_00_00.GMT.1995.argus02.c0.daytimex.rect.rot.jpg
p816
aV907344000.Fri.Oct.02_16_00_00.GMT.1998.argus02a.c0.daytimex.rect.rot.jpg
p817
aV1180022400.Thu.May.24_16_00_00.GMT.2007.argus02a.c0.daytimex.rect.rot.jpg
p818
aV815590800.Sun.Nov.05_17_00_00.GMT.1995.argus02.c0.daytimex.rect.rot.jpg
p819
aV1413734400.Sun.Oct.19_16_00_00.GMT.2014.argus02a.c0.daytimex.rect.rot.jpg
p820
aV847645200.Sun.Nov.10_17_00_00.GMT.1996.argus02.c0.daytimex.rect.rot.jpg
p821
aV873475200.Fri.Sep.05_16_00_00.GMT.1997.argus02.c0.daytimex.rect.rot.jpg
p822
aV1301331600.Mon.Mar.28_17_00_00.GMT.2011.argus02a.c0.daytimex.rect.rot.jpg
p823
aV1196528400.Sat.Dec.01_17_00_00.GMT.2007.argus02a.c0.daytimex.rect.rot.jpg
p824
aV1137690000.Thu.Jan.19_17_00_00.GMT.2006.argus02a.c0.daytimex.rect.rot.jpg
p825
aV817318800.Sat.Nov.25_17_00_00.GMT.1995.argus02.c0.daytimex.rect.rot.jpg
p826
aV817923600.Sat.Dec.02_17_00_00.GMT.1995.argus02.c0.daytimex.rect.rot.jpg
p827
aV1193414400.Fri.Oct.26_16_00_00.GMT.2007.argus02a.c0.daytimex.rect.rot.jpg
p828
aV923328000.Mon.Apr.05_16_00_00.GMT.1999.argus02a.c0.daytimex.rect.rot.jpg
p829
aV1076259600.Sun.Feb.08_17_00_00.GMT.2004.argus02a.c0.daytimex.rect.rot.jpg
p830
aV1304438400.Tue.May.03_16_00_00.GMT.2011.argus02a.c0.daytimex.rect.rot.jpg
p831
aV1181923200.Fri.Jun.15_16_00_00.GMT.2007.argus02a.c0.daytimex.rect.rot.jpg
p832
aV1283529600.Fri.Sep.03_16_00_00.GMT.2010.argus02a.c0.daytimex.rect.rot.jpg
p833
aV1132160400.Wed.Nov.16_17_00_00.GMT.2005.argus02a.c0.daytimex.rect.rot.jpg
p834
aV966182400.Sun.Aug.13_16_00_00.GMT.2000.argus02a.c0.daytimex.rect.rot.jpg
p835
aV1297270800.Wed.Feb.09_17_00_00.GMT.2011.argus02a.c0.daytimex.rect.rot.jpg
p836
aV1327424400.Tue.Jan.24_17_00_00.GMT.2012.argus02a.c0.daytimex.rect.rot.jpg
p837
aV1328634000.Tue.Feb.07_17_00_00.GMT.2012.argus02a.c0.daytimex.rect.rot.jpg
p838
aV884797200.Wed.Jan.14_17_00_00.GMT.1998.argus02a.c0.daytimex.rect.rot.jpg
p839
aV1103734800.Wed.Dec.22_17_00_00.GMT.2004.argus02a.c0.daytimex.rect.rot.jpg
p840
aV1330534800.Wed.Feb.29_17_00_00.GMT.2012.argus02a.c0.daytimex.rect.erase.jpg
p841
aV1089734400.Tue.Jul.13_16_00_00.GMT.2004.argus02a.c0.daytimex.rect.erase.jpg
p842
aV1322413200.Sun.Nov.27_17_00_00.GMT.2011.argus02a.c0.daytimex.rect.erase.jpg
p843
aV994262400.Wed.Jul.04_16_00_00.GMT.2001.argus02a.c0.daytimex.rect.erase.jpg
p844
aV741283200.Mon.Jun.28_16_00_00.GMT.1993.argus02.c0.daytimex.rect.erase.jpg
p845
aV1091721600.Thu.Aug.05_16_00_00.GMT.2004.argus02a.c0.daytimex.rect.erase.jpg
p846
aV963331200.Tue.Jul.11_16_00_00.GMT.2000.argus02a.c0.daytimex.rect.erase.jpg
p847
aV1409846400.Thu.Sep.04_16_00_00.GMT.2014.argus02a.c0.daytimex.rect.erase.jpg
p848
aV934387200.Wed.Aug.11_16_00_00.GMT.1999.argus02a.c0.daytimex.rect.erase.jpg
p849
aV730486800.Tue.Feb.23_17_00_00.GMT.1993.argus02.c0.daytimex.rect.erase.jpg
p850
aV1311955200.Fri.Jul.29_16_00_00.GMT.2011.argus02a.c0.daytimex.rect.erase.jpg
p851
aV1085500800.Tue.May.25_16_00_00.GMT.2004.argus02a.c0.daytimex.rect.erase.jpg
p852
aV1178121600.Wed.May.02_16_00_00.GMT.2007.argus02a.c0.daytimex.rect.erase.jpg
p853
aV1193936400.Thu.Nov.01_17_00_00.GMT.2007.argus02a.c0.daytimex.rect.erase.jpg
p854
aV926179200.Sat.May.08_16_00_00.GMT.1999.argus02a.c0.daytimex.rect.erase.jpg
p855
aV738691200.Sat.May.29_16_00_00.GMT.1993.argus02.c0.daytimex.rect.erase.jpg
p856
aV1329325200.Wed.Feb.15_17_00_00.GMT.2012.argus02a.c0.daytimex.rect.erase.jpg
p857
aV965491200.Sat.Aug.05_16_00_00.GMT.2000.argus02a.c0.daytimex.rect.erase.jpg
p858
aV1184428800.Sat.Jul.14_16_00_00.GMT.2007.argus02a.c0.daytimex.rect.erase.jpg
p859
aV741888000.Mon.Jul.05_16_00_00.GMT.1993.argus02.c0.daytimex.rect.erase.jpg
p860
aV1312473600.Thu.Aug.04_16_00_00.GMT.2011.argus02a.c0.daytimex.rect.erase.jpg
p861
aV1084291200.Tue.May.11_16_00_00.GMT.2004.argus02a.c0.daytimex.rect.erase.jpg
p862
aV1260896400.Tue.Dec.15_17_00_00.GMT.2009.argus02a.c0.daytimex.rect.erase.jpg
p863
aV1312387200.Wed.Aug.03_16_00_00.GMT.2011.argus02a.c0.daytimex.rect.erase.jpg
p864
aV807724800.Sun.Aug.06_16_00_00.GMT.1995.argus02.c0.daytimex.rect.erase.jpg
p865
aV1332003600.Sat.Mar.17_17_00_00.GMT.2012.argus02a.c0.daytimex.rect.erase.jpg
p866
aV1019318400.Sat.Apr.20_16_00_00.GMT.2002.argus02a.c0.daytimex.rect.erase.jpg
p867
aV1061222400.Mon.Aug.18_16_00_00.GMT.2003.argus02a.c0.daytimex.rect.erase.jpg
p868
aV1287417600.Mon.Oct.18_16_00_00.GMT.2010.argus02a.c0.daytimex.rect.erase.jpg
p869
aV1310313600.Sun.Jul.10_16_00_00.GMT.2011.argus02a.c0.daytimex.rect.erase.jpg
p870
aV994003200.Sun.Jul.01_16_00_00.GMT.2001.argus02a.c0.daytimex.rect.erase.jpg
p871
aV835286400.Thu.Jun.20_16_00_00.GMT.1996.argus02.c0.daytimex.rect.erase.jpg
p872
aV880045200.Thu.Nov.20_17_00_00.GMT.1997.argus02a.c0.daytimex.rect.erase.jpg
p873
aV766598400.Sun.Apr.17_16_00_00.GMT.1994.argus02.c0.daytimex.rect.erase.jpg
p874
aV840556800.Tue.Aug.20_16_00_00.GMT.1996.argus02.c0.daytimex.rect.erase.jpg
p875
aV1273161600.Thu.May.06_16_00_00.GMT.2010.argus02a.c0.daytimex.rect.erase.jpg
p876
aV1197392400.Tue.Dec.11_17_00_00.GMT.2007.argus02a.c0.daytimex.rect.erase.jpg
p877
aV898531200.Mon.Jun.22_16_00_00.GMT.1998.argus02a.c0.daytimex.rect.erase.jpg
p878
aV966873600.Mon.Aug.21_16_00_00.GMT.2000.argus02a.c0.daytimex.rect.erase.jpg
p879
aV845136000.Sat.Oct.12_16_00_00.GMT.1996.argus02.c0.daytimex.rect.erase.jpg
p880
aV1333126800.Fri.Mar.30_17_00_00.GMT.2012.argus02a.c0.daytimex.rect.erase.jpg
p881
aV1333468800.Tue.Apr.03_16_00_00.GMT.2012.argus02a.c0.daytimex.rect.erase.jpg
p882
aV1354899600.Fri.Dec.07_17_00_00.GMT.2012.argus02a.c0.daytimex.rect.erase.jpg
p883
aV1061913600.Tue.Aug.26_16_00_00.GMT.2003.argus02a.c0.daytimex.rect.erase.jpg
p884
aV746035200.Sun.Aug.22_16_00_00.GMT.1993.argus02.c0.daytimex.rect.erase.jpg
p885
aV1216396800.Fri.Jul.18_16_00_00.GMT.2008.argus02a.c0.daytimex.rect.erase.jpg
p886
aV1214755200.Sun.Jun.29_16_00_00.GMT.2008.argus02a.c0.daytimex.rect.erase.jpg
p887
aV1283184000.Mon.Aug.30_16_00_00.GMT.2010.argus02a.c0.daytimex.rect.erase.jpg
p888
aV1343232000.Wed.Jul.25_16_00_00.GMT.2012.argus02a.c0.daytimex.rect.erase.jpg
p889
aV1060876800.Thu.Aug.14_16_00_00.GMT.2003.argus02a.c0.daytimex.rect.erase.jpg
p890
aV1345564800.Tue.Aug.21_16_00_00.GMT.2012.argus02a.c0.daytimex.rect.erase.jpg
p891
aV1048611600.Tue.Mar.25_17_00_00.GMT.2003.argus02a.c0.daytimex.rect.erase.jpg
p892
aV1345651200.Wed.Aug.22_16_00_00.GMT.2012.argus02a.c0.daytimex.rect.erase.jpg
p893
aV1334764800.Wed.Apr.18_16_00_00.GMT.2012.argus02a.c0.daytimex.rect.erase.jpg
p894
aV1356282000.Sun.Dec.23_17_00_00.GMT.2012.argus02a.c0.daytimex.rect.erase.jpg
p895
aV1379260800.Sun.Sep.15_16_00_00.GMT.2013.argus02a.c0.daytimex.rect.erase.jpg
p896
aV1336752000.Fri.May.11_16_00_00.GMT.2012.argus02a.c0.daytimex.rect.erase.jpg
p897
aV1354813200.Thu.Dec.06_17_00_00.GMT.2012.argus02a.c0.daytimex.rect.erase.jpg
p898
aV960566400.Fri.Jun.09_16_00_00.GMT.2000.argus02a.c0.daytimex.rect.erase.jpg
p899
aV839692800.Sat.Aug.10_16_00_00.GMT.1996.argus02.c0.daytimex.rect.erase.jpg
p900
aV763059600.Mon.Mar.07_17_00_00.GMT.1994.argus02.c0.daytimex.rect.erase.jpg
p901
aV825526800.Wed.Feb.28_17_00_00.GMT.1996.argus02.c0.daytimex.rect.erase.jpg
p902
aV1248624000.Sun.Jul.26_16_00_00.GMT.2009.argus02a.c0.daytimex.rect.erase.jpg
p903
aV1331053200.Tue.Mar.06_17_00_00.GMT.2012.argus02a.c0.daytimex.rect.erase.jpg
p904
aV1343145600.Tue.Jul.24_16_00_00.GMT.2012.argus02a.c0.daytimex.rect.erase.jpg
p905
aV869846400.Fri.Jul.25_16_00_00.GMT.1997.argus02.c0.daytimex.rect.erase.jpg
p906
aV957542400.Fri.May.05_16_00_00.GMT.2000.argus02a.c0.daytimex.rect.erase.jpg
p907
aV1098892800.Wed.Oct.27_16_00_00.GMT.2004.argus02a.c0.daytimex.rect.erase.jpg
p908
aV801676800.Sun.May.28_16_00_00.GMT.1995.argus02.c0.daytimex.rect.erase.jpg
p909
aV1378483200.Fri.Sep.06_16_00_00.GMT.2013.argus02a.c0.daytimex.rect.erase.jpg
p910
aV1373731200.Sat.Jul.13_16_00_00.GMT.2013.argus02a.c0.daytimex.rect.erase.jpg
p911
aV1023379200.Thu.Jun.06_16_00_00.GMT.2002.argus02a.c0.daytimex.rect.erase.jpg
p912
aV1008608400.Mon.Dec.17_17_00_00.GMT.2001.argus02a.c0.daytimex.rect.erase.jpg
p913
aV1097337600.Sat.Oct.09_16_00_00.GMT.2004.argus02a.c0.daytimex.rect.erase.jpg
p914
aV1121011200.Sun.Jul.10_16_00_00.GMT.2005.argus02a.c0.daytimex.rect.erase.jpg
p915
aV1009558800.Fri.Dec.28_17_00_00.GMT.2001.argus02a.c0.daytimex.rect.erase.jpg
p916
aV1247760000.Thu.Jul.16_16_00_00.GMT.2009.argus02a.c0.daytimex.rect.erase.jpg
p917
aV1373644800.Fri.Jul.12_16_00_00.GMT.2013.argus02a.c0.daytimex.rect.erase.jpg
p918
aV900432000.Tue.Jul.14_16_00_00.GMT.1998.argus02a.c0.daytimex.rect.erase.jpg
p919
aV894038400.Fri.May.01_16_00_00.GMT.1998.argus02a.c0.daytimex.rect.erase.jpg
p920
aV1339257600.Sat.Jun.09_16_00_00.GMT.2012.argus02a.c0.daytimex.rect.erase.jpg
p921
aV1120752000.Thu.Jul.07_16_00_00.GMT.2005.argus02a.c0.daytimex.rect.erase.jpg
p922
aV1007830800.Sat.Dec.08_17_00_00.GMT.2001.argus02a.c0.daytimex.rect.erase.jpg
p923
aV1247155200.Thu.Jul.09_16_00_00.GMT.2009.argus02a.c0.daytimex.rect.erase.jpg
p924
aV1120924800.Sat.Jul.09_16_00_00.GMT.2005.argus02a.c0.daytimex.rect.erase.jpg
p925
aV1097596800.Tue.Oct.12_16_00_00.GMT.2004.argus02a.c0.daytimex.rect.erase.jpg
p926
aV1082390400.Mon.Apr.19_16_00_00.GMT.2004.argus02a.c0.daytimex.rect.erase.jpg
p927
aV1404403200.Thu.Jul.03_16_00_00.GMT.2014.argus02a.c0.daytimex.rect.erase.jpg
p928
aV1380643200.Tue.Oct.01_16_00_00.GMT.2013.argus02a.c0.daytimex.rect.erase.jpg
p929
aV958665600.Thu.May.18_16_00_00.GMT.2000.argus02a.c0.daytimex.rect.erase.jpg
p930
aV1401552000.Sat.May.31_16_00_00.GMT.2014.argus02a.c0.daytimex.rect.erase.jpg
p931
aV910803600.Wed.Nov.11_17_00_00.GMT.1998.argus02a.c0.daytimex.rect.erase.jpg
p932
aV930499200.Sun.Jun.27_16_00_00.GMT.1999.argus02a.c0.daytimex.rect.erase.jpg
p933
aV1355590800.Sat.Dec.15_17_00_00.GMT.2012.argus02a.c0.daytimex.rect.erase.jpg
p934
aV954608400.Sat.Apr.01_17_00_00.GMT.2000.argus02a.c0.daytimex.rect.erase.jpg
p935
aV740246400.Wed.Jun.16_16_00_00.GMT.1993.argus02.c0.daytimex.rect.erase.jpg
p936
aV941734800.Thu.Nov.04_17_00_00.GMT.1999.argus02a.c0.daytimex.rect.erase.jpg
p937
aV1401379200.Thu.May.29_16_00_00.GMT.2014.argus02a.c0.daytimex.rect.erase.jpg
p938
aV1030809600.Sat.Aug.31_16_00_00.GMT.2002.argus02a.c0.daytimex.rect.erase.jpg
p939
aV856976400.Wed.Feb.26_17_00_00.GMT.1997.argus02.c0.daytimex.rect.erase.jpg
p940
aV896630400.Sun.May.31_16_00_00.GMT.1998.argus02a.c0.daytimex.rect.erase.jpg
p941
aV788893200.Sat.Dec.31_17_00_00.GMT.1994.argus02.c0.daytimex.rect.erase.jpg
p942
aV1293642000.Wed.Dec.29_17_00_00.GMT.2010.argus02a.c0.daytimex.rect.erase.jpg
p943
aV861292800.Thu.Apr.17_16_00_00.GMT.1997.argus02.c0.daytimex.rect.erase.jpg
p944
aV1272297600.Mon.Apr.26_16_00_00.GMT.2010.argus02a.c0.daytimex.rect.erase.jpg
p945
aV796410000.Tue.Mar.28_17_00_00.GMT.1995.argus02.c0.daytimex.rect.erase.jpg
p946
aV1265648400.Mon.Feb.08_17_00_00.GMT.2010.argus02a.c0.daytimex.rect.erase.jpg
p947
aV1359306000.Sun.Jan.27_17_00_00.GMT.2013.argus02a.c0.daytimex.rect.erase.jpg
p948
aV1233421200.Sat.Jan.31_17_00_00.GMT.2009.argus02a.c0.daytimex.rect.erase.jpg
p949
aV1386176400.Wed.Dec.04_17_00_00.GMT.2013.argus02a.c0.daytimex.rect.erase.jpg
p950
aV1235235600.Sat.Feb.21_17_00_00.GMT.2009.argus02a.c0.daytimex.rect.erase.jpg
p951
aV1409068800.Tue.Aug.26_16_00_00.GMT.2014.argus02a.c0.daytimex.rect.erase.jpg
p952
aV1226250000.Sun.Nov.09_17_00_00.GMT.2008.argus02a.c0.daytimex.rect.erase.jpg
p953
aV1338566400.Fri.Jun.01_16_00_00.GMT.2012.argus02a.c0.daytimex.rect.erase.jpg
p954
aV1233248400.Thu.Jan.29_17_00_00.GMT.2009.argus02a.c0.daytimex.rect.erase.jpg
p955
aV1253030400.Tue.Sep.15_16_00_00.GMT.2009.argus02a.c0.daytimex.rect.erase.jpg
p956
aV1243008000.Fri.May.22_16_00_00.GMT.2009.argus02a.c0.daytimex.rect.erase.jpg
p957
aV1017853200.Wed.Apr.03_17_00_00.GMT.2002.argus02a.c0.daytimex.rect.erase.jpg
p958
aV1396972800.Tue.Apr.08_16_00_00.GMT.2014.argus02a.c0.daytimex.rect.erase.jpg
p959
aV1305561600.Mon.May.16_16_00_00.GMT.2011.argus02a.c0.daytimex.rect.erase.jpg
p960
aV1256576400.Mon.Oct.26_17_00_00.GMT.2009.argus02a.c0.daytimex.rect.erase.jpg
p961
aV812908800.Thu.Oct.05_16_00_00.GMT.1995.argus02.c0.daytimex.rect.erase.jpg
p962
aV1396198800.Sun.Mar.30_17_00_00.GMT.2014.argus02a.c0.daytimex.rect.erase.jpg
p963
aV1100710800.Wed.Nov.17_17_00_00.GMT.2004.argus02a.c0.daytimex.rect.erase.jpg
p964
aV1023897600.Wed.Jun.12_16_00_00.GMT.2002.argus02a.c0.daytimex.rect.erase.jpg
p965
aV920134800.Sat.Feb.27_17_00_00.GMT.1999.argus02a.c0.daytimex.rect.erase.jpg
p966
aV1337875200.Thu.May.24_16_00_00.GMT.2012.argus02a.c0.daytimex.rect.erase.jpg
p967
aV1411142400.Fri.Sep.19_16_00_00.GMT.2014.argus02a.c0.daytimex.rect.erase.jpg
p968
aV1072630800.Sun.Dec.28_17_00_00.GMT.2003.argus02a.c0.daytimex.rect.erase.jpg
p969
aV1256054400.Tue.Oct.20_16_00_00.GMT.2009.argus02a.c0.daytimex.rect.erase.jpg
p970
aV1015693200.Sat.Mar.09_17_00_00.GMT.2002.argus02a.c0.daytimex.rect.erase.jpg
p971
aV1393347600.Tue.Feb.25_17_00_00.GMT.2014.argus02a.c0.daytimex.rect.erase.jpg
p972
aV905011200.Sat.Sep.05_16_00_00.GMT.1998.argus02a.c0.daytimex.rect.erase.jpg
p973
aV1226163600.Sat.Nov.08_17_00_00.GMT.2008.argus02a.c0.daytimex.rect.erase.jpg
p974
aV1298653200.Fri.Feb.25_17_00_00.GMT.2011.argus02a.c0.daytimex.rect.erase.jpg
p975
aV854298000.Sun.Jan.26_17_00_00.GMT.1997.argus02.c0.daytimex.rect.erase.jpg
p976
aV1315584000.Fri.Sep.09_16_00_00.GMT.2011.argus02a.c0.daytimex.rect.erase.jpg
p977
aV1298307600.Mon.Feb.21_17_00_00.GMT.2011.argus02a.c0.daytimex.rect.erase.jpg
p978
aV1304092800.Fri.Apr.29_16_00_00.GMT.2011.argus02a.c0.daytimex.rect.erase.jpg
p979
aV1303920000.Wed.Apr.27_16_00_00.GMT.2011.argus02a.c0.daytimex.rect.erase.jpg
p980
aV1040144400.Tue.Dec.17_17_00_00.GMT.2002.argus02a.c0.daytimex.rect.erase.jpg
p981
aV1187971200.Fri.Aug.24_16_00_00.GMT.2007.argus02a.c0.daytimex.rect.erase.jpg
p982
aV1193500800.Sat.Oct.27_16_00_00.GMT.2007.argus02a.c0.daytimex.rect.erase.jpg
p983
aV1143133200.Thu.Mar.23_17_00_00.GMT.2006.argus02a.c0.daytimex.rect.erase.jpg
p984
aV874166400.Sat.Sep.13_16_00_00.GMT.1997.argus02.c0.daytimex.rect.erase.jpg
p985
aV1277136000.Mon.Jun.21_16_00_00.GMT.2010.argus02a.c0.daytimex.rect.erase.jpg
p986
aV787856400.Mon.Dec.19_17_00_00.GMT.1994.argus02.c0.daytimex.rect.erase.jpg
p987
aV1298394000.Tue.Feb.22_17_00_00.GMT.2011.argus02a.c0.daytimex.rect.erase.jpg
p988
aV1178726400.Wed.May.09_16_00_00.GMT.2007.argus02a.c0.daytimex.rect.erase.jpg
p989
aV1300986000.Thu.Mar.24_17_00_00.GMT.2011.argus02a.c0.daytimex.rect.erase.jpg
p990
aV786906000.Thu.Dec.08_17_00_00.GMT.1994.argus02.c0.daytimex.rect.erase.jpg
p991
aV1172250000.Fri.Feb.23_17_00_00.GMT.2007.argus02a.c0.daytimex.rect.erase.jpg
p992
aV1074358800.Sat.Jan.17_17_00_00.GMT.2004.argus02a.c0.daytimex.rect.erase.jpg
p993
aV755888400.Tue.Dec.14_17_00_00.GMT.1993.argus02.c0.daytimex.rect.erase.jpg
p994
aV1196269200.Wed.Nov.28_17_00_00.GMT.2007.argus02a.c0.daytimex.rect.erase.jpg
p995
aV1032883200.Tue.Sep.24_16_00_00.GMT.2002.argus02a.c0.daytimex.rect.erase.jpg
p996
aV921171600.Thu.Mar.11_17_00_00.GMT.1999.argus02a.c0.daytimex.rect.erase.jpg
p997
aV1142701200.Sat.Mar.18_17_00_00.GMT.2006.argus02a.c0.daytimex.rect.erase.jpg
p998
aV1138122000.Tue.Jan.24_17_00_00.GMT.2006.argus02a.c0.daytimex.rect.erase.jpg
p999
aV1133197200.Mon.Nov.28_17_00_00.GMT.2005.argus02a.c0.daytimex.rect.erase.jpg
p1000
aV915642000.Wed.Jan.06_17_00_00.GMT.1999.argus02a.c0.daytimex.rect.erase.jpg
p1001
aV1302105600.Wed.Apr.06_16_00_00.GMT.2011.argus02a.c0.daytimex.rect.erase.jpg
p1002
aV778176000.Mon.Aug.29_16_00_00.GMT.1994.argus02.c0.daytimex.rect.erase.jpg
p1003
aV799603200.Thu.May.04_16_00_00.GMT.1995.argus02.c0.daytimex.rect.erase.jpg
p1004
aV1072285200.Wed.Dec.24_17_00_00.GMT.2003.argus02a.c0.daytimex.rect.erase.jpg
p1005
aV1414166400.Fri.Oct.24_16_00_00.GMT.2014.argus02a.c0.daytimex.rect.erase.jpg
p1006
aV1255968000.Mon.Oct.19_16_00_00.GMT.2009.argus02a.c0.daytimex.rect.erase.jpg
p1007
aV1197565200.Thu.Dec.13_17_00_00.GMT.2007.argus02a.c0.daytimex.rect.erase.jpg
p1008
aV1350057600.Fri.Oct.12_16_00_00.GMT.2012.argus02a.c0.daytimex.rect.erase.jpg
p1009
aV1071507600.Mon.Dec.15_17_00_00.GMT.2003.argus02a.c0.daytimex.rect.erase.jpg
p1010
aV769190400.Tue.May.17_16_00_00.GMT.1994.argus02.c0.daytimex.rect.erase.jpg
p1011
aV1308067200.Tue.Jun.14_16_00_00.GMT.2011.argus02a.c0.daytimex.rect.erase.jpg
p1012
aV1038416400.Wed.Nov.27_17_00_00.GMT.2002.argus02a.c0.daytimex.rect.erase.jpg
p1013
aV817664400.Wed.Nov.29_17_00_00.GMT.1995.argus02.c0.daytimex.rect.erase.jpg
p1014
aV1231606800.Sat.Jan.10_17_00_00.GMT.2009.argus02a.c0.daytimex.rect.erase.jpg
p1015
aV1385053200.Thu.Nov.21_17_00_00.GMT.2013.argus02a.c0.daytimex.rect.erase.jpg
p1016
aV1261155600.Fri.Dec.18_17_00_00.GMT.2009.argus02a.c0.daytimex.rect.erase.jpg
p1017
aV1029513600.Fri.Aug.16_16_00_00.GMT.2002.argus02a.c0.daytimex.rect.erase.jpg
p1018
aV1409587200.Mon.Sep.01_16_00_00.GMT.2014.argus02a.c0.daytimex.rect.erase.jpg
p1019
aV1142874000.Mon.Mar.20_17_00_00.GMT.2006.argus02a.c0.daytimex.rect.erase.jpg
p1020
aV816886800.Mon.Nov.20_17_00_00.GMT.1995.argus02.c0.daytimex.rect.erase.jpg
p1021
aV1251820800.Tue.Sep.01_16_00_00.GMT.2009.argus02a.c0.daytimex.rect.erase.jpg
p1022
aV1131814800.Sat.Nov.12_17_00_00.GMT.2005.argus02a.c0.daytimex.rect.erase.jpg
p1023
aV1117814400.Fri.Jun.03_16_00_00.GMT.2005.argus02a.c0.daytimex.rect.erase.jpg
p1024
aV1103562000.Mon.Dec.20_17_00_00.GMT.2004.argus02a.c0.daytimex.rect.erase.jpg
p1025
aV791139600.Thu.Jan.26_17_00_00.GMT.1995.argus02.c0.daytimex.rect.erase.jpg
p1026
aV907344000.Fri.Oct.02_16_00_00.GMT.1998.argus02a.c0.daytimex.rect.erase.jpg
p1027
aV1180022400.Thu.May.24_16_00_00.GMT.2007.argus02a.c0.daytimex.rect.erase.jpg
p1028
aV815590800.Sun.Nov.05_17_00_00.GMT.1995.argus02.c0.daytimex.rect.erase.jpg
p1029
aV1413734400.Sun.Oct.19_16_00_00.GMT.2014.argus02a.c0.daytimex.rect.erase.jpg
p1030
aV847645200.Sun.Nov.10_17_00_00.GMT.1996.argus02.c0.daytimex.rect.erase.jpg
p1031
aV873475200.Fri.Sep.05_16_00_00.GMT.1997.argus02.c0.daytimex.rect.erase.jpg
p1032
aV1301331600.Mon.Mar.28_17_00_00.GMT.2011.argus02a.c0.daytimex.rect.erase.jpg
p1033
aV1196528400.Sat.Dec.01_17_00_00.GMT.2007.argus02a.c0.daytimex.rect.erase.jpg
p1034
aV1137690000.Thu.Jan.19_17_00_00.GMT.2006.argus02a.c0.daytimex.rect.erase.jpg
p1035
aV817318800.Sat.Nov.25_17_00_00.GMT.1995.argus02.c0.daytimex.rect.erase.jpg
p1036
aV817923600.Sat.Dec.02_17_00_00.GMT.1995.argus02.c0.daytimex.rect.erase.jpg
p1037
aV1193414400.Fri.Oct.26_16_00_00.GMT.2007.argus02a.c0.daytimex.rect.erase.jpg
p1038
aV923328000.Mon.Apr.05_16_00_00.GMT.1999.argus02a.c0.daytimex.rect.erase.jpg
p1039
aV1076259600.Sun.Feb.08_17_00_00.GMT.2004.argus02a.c0.daytimex.rect.erase.jpg
p1040
aV1304438400.Tue.May.03_16_00_00.GMT.2011.argus02a.c0.daytimex.rect.erase.jpg
p1041
aV1181923200.Fri.Jun.15_16_00_00.GMT.2007.argus02a.c0.daytimex.rect.erase.jpg
p1042
aV1283529600.Fri.Sep.03_16_00_00.GMT.2010.argus02a.c0.daytimex.rect.erase.jpg
p1043
aV1132160400.Wed.Nov.16_17_00_00.GMT.2005.argus02a.c0.daytimex.rect.erase.jpg
p1044
aV966182400.Sun.Aug.13_16_00_00.GMT.2000.argus02a.c0.daytimex.rect.erase.jpg
p1045
aV1297270800.Wed.Feb.09_17_00_00.GMT.2011.argus02a.c0.daytimex.rect.erase.jpg
p1046
aV1327424400.Tue.Jan.24_17_00_00.GMT.2012.argus02a.c0.daytimex.rect.erase.jpg
p1047
aV1328634000.Tue.Feb.07_17_00_00.GMT.2012.argus02a.c0.daytimex.rect.erase.jpg
p1048
aV884797200.Wed.Jan.14_17_00_00.GMT.1998.argus02a.c0.daytimex.rect.erase.jpg
p1049
aV1103734800.Wed.Dec.22_17_00_00.GMT.2004.argus02a.c0.daytimex.rect.erase.jpg
p1050
aV1330534800.Wed.Feb.29_17_00_00.GMT.2012.argus02a.c0.daytimex.rect.gamma.jpg
p1051
aV1089734400.Tue.Jul.13_16_00_00.GMT.2004.argus02a.c0.daytimex.rect.gamma.jpg
p1052
aV1322413200.Sun.Nov.27_17_00_00.GMT.2011.argus02a.c0.daytimex.rect.gamma.jpg
p1053
aV994262400.Wed.Jul.04_16_00_00.GMT.2001.argus02a.c0.daytimex.rect.gamma.jpg
p1054
aV741283200.Mon.Jun.28_16_00_00.GMT.1993.argus02.c0.daytimex.rect.gamma.jpg
p1055
aV1091721600.Thu.Aug.05_16_00_00.GMT.2004.argus02a.c0.daytimex.rect.gamma.jpg
p1056
aV963331200.Tue.Jul.11_16_00_00.GMT.2000.argus02a.c0.daytimex.rect.gamma.jpg
p1057
aV1409846400.Thu.Sep.04_16_00_00.GMT.2014.argus02a.c0.daytimex.rect.gamma.jpg
p1058
aV934387200.Wed.Aug.11_16_00_00.GMT.1999.argus02a.c0.daytimex.rect.gamma.jpg
p1059
aV730486800.Tue.Feb.23_17_00_00.GMT.1993.argus02.c0.daytimex.rect.gamma.jpg
p1060
aV1311955200.Fri.Jul.29_16_00_00.GMT.2011.argus02a.c0.daytimex.rect.gamma.jpg
p1061
aV1085500800.Tue.May.25_16_00_00.GMT.2004.argus02a.c0.daytimex.rect.gamma.jpg
p1062
aV1178121600.Wed.May.02_16_00_00.GMT.2007.argus02a.c0.daytimex.rect.gamma.jpg
p1063
aV1193936400.Thu.Nov.01_17_00_00.GMT.2007.argus02a.c0.daytimex.rect.gamma.jpg
p1064
aV926179200.Sat.May.08_16_00_00.GMT.1999.argus02a.c0.daytimex.rect.gamma.jpg
p1065
aV738691200.Sat.May.29_16_00_00.GMT.1993.argus02.c0.daytimex.rect.gamma.jpg
p1066
aV1329325200.Wed.Feb.15_17_00_00.GMT.2012.argus02a.c0.daytimex.rect.gamma.jpg
p1067
aV965491200.Sat.Aug.05_16_00_00.GMT.2000.argus02a.c0.daytimex.rect.gamma.jpg
p1068
aV1184428800.Sat.Jul.14_16_00_00.GMT.2007.argus02a.c0.daytimex.rect.gamma.jpg
p1069
aV741888000.Mon.Jul.05_16_00_00.GMT.1993.argus02.c0.daytimex.rect.gamma.jpg
p1070
aV1312473600.Thu.Aug.04_16_00_00.GMT.2011.argus02a.c0.daytimex.rect.gamma.jpg
p1071
aV1084291200.Tue.May.11_16_00_00.GMT.2004.argus02a.c0.daytimex.rect.gamma.jpg
p1072
aV1260896400.Tue.Dec.15_17_00_00.GMT.2009.argus02a.c0.daytimex.rect.gamma.jpg
p1073
aV1312387200.Wed.Aug.03_16_00_00.GMT.2011.argus02a.c0.daytimex.rect.gamma.jpg
p1074
aV807724800.Sun.Aug.06_16_00_00.GMT.1995.argus02.c0.daytimex.rect.gamma.jpg
p1075
aV1332003600.Sat.Mar.17_17_00_00.GMT.2012.argus02a.c0.daytimex.rect.gamma.jpg
p1076
aV1019318400.Sat.Apr.20_16_00_00.GMT.2002.argus02a.c0.daytimex.rect.gamma.jpg
p1077
aV1061222400.Mon.Aug.18_16_00_00.GMT.2003.argus02a.c0.daytimex.rect.gamma.jpg
p1078
aV1287417600.Mon.Oct.18_16_00_00.GMT.2010.argus02a.c0.daytimex.rect.gamma.jpg
p1079
aV1310313600.Sun.Jul.10_16_00_00.GMT.2011.argus02a.c0.daytimex.rect.gamma.jpg
p1080
aV994003200.Sun.Jul.01_16_00_00.GMT.2001.argus02a.c0.daytimex.rect.gamma.jpg
p1081
aV835286400.Thu.Jun.20_16_00_00.GMT.1996.argus02.c0.daytimex.rect.gamma.jpg
p1082
aV880045200.Thu.Nov.20_17_00_00.GMT.1997.argus02a.c0.daytimex.rect.gamma.jpg
p1083
aV766598400.Sun.Apr.17_16_00_00.GMT.1994.argus02.c0.daytimex.rect.gamma.jpg
p1084
aV840556800.Tue.Aug.20_16_00_00.GMT.1996.argus02.c0.daytimex.rect.gamma.jpg
p1085
aV1273161600.Thu.May.06_16_00_00.GMT.2010.argus02a.c0.daytimex.rect.gamma.jpg
p1086
aV1197392400.Tue.Dec.11_17_00_00.GMT.2007.argus02a.c0.daytimex.rect.gamma.jpg
p1087
aV898531200.Mon.Jun.22_16_00_00.GMT.1998.argus02a.c0.daytimex.rect.gamma.jpg
p1088
aV966873600.Mon.Aug.21_16_00_00.GMT.2000.argus02a.c0.daytimex.rect.gamma.jpg
p1089
aV845136000.Sat.Oct.12_16_00_00.GMT.1996.argus02.c0.daytimex.rect.gamma.jpg
p1090
aV1333126800.Fri.Mar.30_17_00_00.GMT.2012.argus02a.c0.daytimex.rect.gamma.jpg
p1091
aV1333468800.Tue.Apr.03_16_00_00.GMT.2012.argus02a.c0.daytimex.rect.gamma.jpg
p1092
aV1354899600.Fri.Dec.07_17_00_00.GMT.2012.argus02a.c0.daytimex.rect.gamma.jpg
p1093
aV1061913600.Tue.Aug.26_16_00_00.GMT.2003.argus02a.c0.daytimex.rect.gamma.jpg
p1094
aV746035200.Sun.Aug.22_16_00_00.GMT.1993.argus02.c0.daytimex.rect.gamma.jpg
p1095
aV1216396800.Fri.Jul.18_16_00_00.GMT.2008.argus02a.c0.daytimex.rect.gamma.jpg
p1096
aV1214755200.Sun.Jun.29_16_00_00.GMT.2008.argus02a.c0.daytimex.rect.gamma.jpg
p1097
aV1283184000.Mon.Aug.30_16_00_00.GMT.2010.argus02a.c0.daytimex.rect.gamma.jpg
p1098
aV1343232000.Wed.Jul.25_16_00_00.GMT.2012.argus02a.c0.daytimex.rect.gamma.jpg
p1099
aV1060876800.Thu.Aug.14_16_00_00.GMT.2003.argus02a.c0.daytimex.rect.gamma.jpg
p1100
aV1345564800.Tue.Aug.21_16_00_00.GMT.2012.argus02a.c0.daytimex.rect.gamma.jpg
p1101
aV1048611600.Tue.Mar.25_17_00_00.GMT.2003.argus02a.c0.daytimex.rect.gamma.jpg
p1102
aV1345651200.Wed.Aug.22_16_00_00.GMT.2012.argus02a.c0.daytimex.rect.gamma.jpg
p1103
aV1334764800.Wed.Apr.18_16_00_00.GMT.2012.argus02a.c0.daytimex.rect.gamma.jpg
p1104
aV1356282000.Sun.Dec.23_17_00_00.GMT.2012.argus02a.c0.daytimex.rect.gamma.jpg
p1105
aV1379260800.Sun.Sep.15_16_00_00.GMT.2013.argus02a.c0.daytimex.rect.gamma.jpg
p1106
aV1336752000.Fri.May.11_16_00_00.GMT.2012.argus02a.c0.daytimex.rect.gamma.jpg
p1107
aV1354813200.Thu.Dec.06_17_00_00.GMT.2012.argus02a.c0.daytimex.rect.gamma.jpg
p1108
aV960566400.Fri.Jun.09_16_00_00.GMT.2000.argus02a.c0.daytimex.rect.gamma.jpg
p1109
aV839692800.Sat.Aug.10_16_00_00.GMT.1996.argus02.c0.daytimex.rect.gamma.jpg
p1110
aV763059600.Mon.Mar.07_17_00_00.GMT.1994.argus02.c0.daytimex.rect.gamma.jpg
p1111
aV825526800.Wed.Feb.28_17_00_00.GMT.1996.argus02.c0.daytimex.rect.gamma.jpg
p1112
aV1248624000.Sun.Jul.26_16_00_00.GMT.2009.argus02a.c0.daytimex.rect.gamma.jpg
p1113
aV1331053200.Tue.Mar.06_17_00_00.GMT.2012.argus02a.c0.daytimex.rect.gamma.jpg
p1114
aV1343145600.Tue.Jul.24_16_00_00.GMT.2012.argus02a.c0.daytimex.rect.gamma.jpg
p1115
aV869846400.Fri.Jul.25_16_00_00.GMT.1997.argus02.c0.daytimex.rect.gamma.jpg
p1116
aV957542400.Fri.May.05_16_00_00.GMT.2000.argus02a.c0.daytimex.rect.gamma.jpg
p1117
aV1098892800.Wed.Oct.27_16_00_00.GMT.2004.argus02a.c0.daytimex.rect.gamma.jpg
p1118
aV801676800.Sun.May.28_16_00_00.GMT.1995.argus02.c0.daytimex.rect.gamma.jpg
p1119
aV1378483200.Fri.Sep.06_16_00_00.GMT.2013.argus02a.c0.daytimex.rect.gamma.jpg
p1120
aV1373731200.Sat.Jul.13_16_00_00.GMT.2013.argus02a.c0.daytimex.rect.gamma.jpg
p1121
aV1023379200.Thu.Jun.06_16_00_00.GMT.2002.argus02a.c0.daytimex.rect.gamma.jpg
p1122
aV1008608400.Mon.Dec.17_17_00_00.GMT.2001.argus02a.c0.daytimex.rect.gamma.jpg
p1123
aV1097337600.Sat.Oct.09_16_00_00.GMT.2004.argus02a.c0.daytimex.rect.gamma.jpg
p1124
aV1121011200.Sun.Jul.10_16_00_00.GMT.2005.argus02a.c0.daytimex.rect.gamma.jpg
p1125
aV1009558800.Fri.Dec.28_17_00_00.GMT.2001.argus02a.c0.daytimex.rect.gamma.jpg
p1126
aV1247760000.Thu.Jul.16_16_00_00.GMT.2009.argus02a.c0.daytimex.rect.gamma.jpg
p1127
aV1373644800.Fri.Jul.12_16_00_00.GMT.2013.argus02a.c0.daytimex.rect.gamma.jpg
p1128
aV900432000.Tue.Jul.14_16_00_00.GMT.1998.argus02a.c0.daytimex.rect.gamma.jpg
p1129
aV894038400.Fri.May.01_16_00_00.GMT.1998.argus02a.c0.daytimex.rect.gamma.jpg
p1130
aV1339257600.Sat.Jun.09_16_00_00.GMT.2012.argus02a.c0.daytimex.rect.gamma.jpg
p1131
aV1120752000.Thu.Jul.07_16_00_00.GMT.2005.argus02a.c0.daytimex.rect.gamma.jpg
p1132
aV1007830800.Sat.Dec.08_17_00_00.GMT.2001.argus02a.c0.daytimex.rect.gamma.jpg
p1133
aV1247155200.Thu.Jul.09_16_00_00.GMT.2009.argus02a.c0.daytimex.rect.gamma.jpg
p1134
aV1120924800.Sat.Jul.09_16_00_00.GMT.2005.argus02a.c0.daytimex.rect.gamma.jpg
p1135
aV1097596800.Tue.Oct.12_16_00_00.GMT.2004.argus02a.c0.daytimex.rect.gamma.jpg
p1136
aV1082390400.Mon.Apr.19_16_00_00.GMT.2004.argus02a.c0.daytimex.rect.gamma.jpg
p1137
aV1404403200.Thu.Jul.03_16_00_00.GMT.2014.argus02a.c0.daytimex.rect.gamma.jpg
p1138
aV1380643200.Tue.Oct.01_16_00_00.GMT.2013.argus02a.c0.daytimex.rect.gamma.jpg
p1139
aV958665600.Thu.May.18_16_00_00.GMT.2000.argus02a.c0.daytimex.rect.gamma.jpg
p1140
aV1401552000.Sat.May.31_16_00_00.GMT.2014.argus02a.c0.daytimex.rect.gamma.jpg
p1141
aV910803600.Wed.Nov.11_17_00_00.GMT.1998.argus02a.c0.daytimex.rect.gamma.jpg
p1142
aV930499200.Sun.Jun.27_16_00_00.GMT.1999.argus02a.c0.daytimex.rect.gamma.jpg
p1143
aV1355590800.Sat.Dec.15_17_00_00.GMT.2012.argus02a.c0.daytimex.rect.gamma.jpg
p1144
aV954608400.Sat.Apr.01_17_00_00.GMT.2000.argus02a.c0.daytimex.rect.gamma.jpg
p1145
aV740246400.Wed.Jun.16_16_00_00.GMT.1993.argus02.c0.daytimex.rect.gamma.jpg
p1146
aV941734800.Thu.Nov.04_17_00_00.GMT.1999.argus02a.c0.daytimex.rect.gamma.jpg
p1147
aV1401379200.Thu.May.29_16_00_00.GMT.2014.argus02a.c0.daytimex.rect.gamma.jpg
p1148
aV1030809600.Sat.Aug.31_16_00_00.GMT.2002.argus02a.c0.daytimex.rect.gamma.jpg
p1149
aV856976400.Wed.Feb.26_17_00_00.GMT.1997.argus02.c0.daytimex.rect.gamma.jpg
p1150
aV896630400.Sun.May.31_16_00_00.GMT.1998.argus02a.c0.daytimex.rect.gamma.jpg
p1151
aV788893200.Sat.Dec.31_17_00_00.GMT.1994.argus02.c0.daytimex.rect.gamma.jpg
p1152
aV1293642000.Wed.Dec.29_17_00_00.GMT.2010.argus02a.c0.daytimex.rect.gamma.jpg
p1153
aV861292800.Thu.Apr.17_16_00_00.GMT.1997.argus02.c0.daytimex.rect.gamma.jpg
p1154
aV1272297600.Mon.Apr.26_16_00_00.GMT.2010.argus02a.c0.daytimex.rect.gamma.jpg
p1155
aV796410000.Tue.Mar.28_17_00_00.GMT.1995.argus02.c0.daytimex.rect.gamma.jpg
p1156
aV1265648400.Mon.Feb.08_17_00_00.GMT.2010.argus02a.c0.daytimex.rect.gamma.jpg
p1157
aV1359306000.Sun.Jan.27_17_00_00.GMT.2013.argus02a.c0.daytimex.rect.gamma.jpg
p1158
aV1233421200.Sat.Jan.31_17_00_00.GMT.2009.argus02a.c0.daytimex.rect.gamma.jpg
p1159
aV1386176400.Wed.Dec.04_17_00_00.GMT.2013.argus02a.c0.daytimex.rect.gamma.jpg
p1160
aV1235235600.Sat.Feb.21_17_00_00.GMT.2009.argus02a.c0.daytimex.rect.gamma.jpg
p1161
aV1409068800.Tue.Aug.26_16_00_00.GMT.2014.argus02a.c0.daytimex.rect.gamma.jpg
p1162
aV1226250000.Sun.Nov.09_17_00_00.GMT.2008.argus02a.c0.daytimex.rect.gamma.jpg
p1163
aV1338566400.Fri.Jun.01_16_00_00.GMT.2012.argus02a.c0.daytimex.rect.gamma.jpg
p1164
aV1233248400.Thu.Jan.29_17_00_00.GMT.2009.argus02a.c0.daytimex.rect.gamma.jpg
p1165
aV1253030400.Tue.Sep.15_16_00_00.GMT.2009.argus02a.c0.daytimex.rect.gamma.jpg
p1166
aV1243008000.Fri.May.22_16_00_00.GMT.2009.argus02a.c0.daytimex.rect.gamma.jpg
p1167
aV1017853200.Wed.Apr.03_17_00_00.GMT.2002.argus02a.c0.daytimex.rect.gamma.jpg
p1168
aV1396972800.Tue.Apr.08_16_00_00.GMT.2014.argus02a.c0.daytimex.rect.gamma.jpg
p1169
aV1305561600.Mon.May.16_16_00_00.GMT.2011.argus02a.c0.daytimex.rect.gamma.jpg
p1170
aV1256576400.Mon.Oct.26_17_00_00.GMT.2009.argus02a.c0.daytimex.rect.gamma.jpg
p1171
aV812908800.Thu.Oct.05_16_00_00.GMT.1995.argus02.c0.daytimex.rect.gamma.jpg
p1172
aV1396198800.Sun.Mar.30_17_00_00.GMT.2014.argus02a.c0.daytimex.rect.gamma.jpg
p1173
aV1100710800.Wed.Nov.17_17_00_00.GMT.2004.argus02a.c0.daytimex.rect.gamma.jpg
p1174
aV1023897600.Wed.Jun.12_16_00_00.GMT.2002.argus02a.c0.daytimex.rect.gamma.jpg
p1175
aV920134800.Sat.Feb.27_17_00_00.GMT.1999.argus02a.c0.daytimex.rect.gamma.jpg
p1176
aV1337875200.Thu.May.24_16_00_00.GMT.2012.argus02a.c0.daytimex.rect.gamma.jpg
p1177
aV1411142400.Fri.Sep.19_16_00_00.GMT.2014.argus02a.c0.daytimex.rect.gamma.jpg
p1178
aV1072630800.Sun.Dec.28_17_00_00.GMT.2003.argus02a.c0.daytimex.rect.gamma.jpg
p1179
aV1256054400.Tue.Oct.20_16_00_00.GMT.2009.argus02a.c0.daytimex.rect.gamma.jpg
p1180
aV1015693200.Sat.Mar.09_17_00_00.GMT.2002.argus02a.c0.daytimex.rect.gamma.jpg
p1181
aV1393347600.Tue.Feb.25_17_00_00.GMT.2014.argus02a.c0.daytimex.rect.gamma.jpg
p1182
aV905011200.Sat.Sep.05_16_00_00.GMT.1998.argus02a.c0.daytimex.rect.gamma.jpg
p1183
aV1226163600.Sat.Nov.08_17_00_00.GMT.2008.argus02a.c0.daytimex.rect.gamma.jpg
p1184
aV1298653200.Fri.Feb.25_17_00_00.GMT.2011.argus02a.c0.daytimex.rect.gamma.jpg
p1185
aV854298000.Sun.Jan.26_17_00_00.GMT.1997.argus02.c0.daytimex.rect.gamma.jpg
p1186
aV1315584000.Fri.Sep.09_16_00_00.GMT.2011.argus02a.c0.daytimex.rect.gamma.jpg
p1187
aV1298307600.Mon.Feb.21_17_00_00.GMT.2011.argus02a.c0.daytimex.rect.gamma.jpg
p1188
aV1304092800.Fri.Apr.29_16_00_00.GMT.2011.argus02a.c0.daytimex.rect.gamma.jpg
p1189
aV1303920000.Wed.Apr.27_16_00_00.GMT.2011.argus02a.c0.daytimex.rect.gamma.jpg
p1190
aV1040144400.Tue.Dec.17_17_00_00.GMT.2002.argus02a.c0.daytimex.rect.gamma.jpg
p1191
aV1187971200.Fri.Aug.24_16_00_00.GMT.2007.argus02a.c0.daytimex.rect.gamma.jpg
p1192
aV1193500800.Sat.Oct.27_16_00_00.GMT.2007.argus02a.c0.daytimex.rect.gamma.jpg
p1193
aV1143133200.Thu.Mar.23_17_00_00.GMT.2006.argus02a.c0.daytimex.rect.gamma.jpg
p1194
aV874166400.Sat.Sep.13_16_00_00.GMT.1997.argus02.c0.daytimex.rect.gamma.jpg
p1195
aV1277136000.Mon.Jun.21_16_00_00.GMT.2010.argus02a.c0.daytimex.rect.gamma.jpg
p1196
aV787856400.Mon.Dec.19_17_00_00.GMT.1994.argus02.c0.daytimex.rect.gamma.jpg
p1197
aV1298394000.Tue.Feb.22_17_00_00.GMT.2011.argus02a.c0.daytimex.rect.gamma.jpg
p1198
aV1178726400.Wed.May.09_16_00_00.GMT.2007.argus02a.c0.daytimex.rect.gamma.jpg
p1199
aV1300986000.Thu.Mar.24_17_00_00.GMT.2011.argus02a.c0.daytimex.rect.gamma.jpg
p1200
aV786906000.Thu.Dec.08_17_00_00.GMT.1994.argus02.c0.daytimex.rect.gamma.jpg
p1201
aV1172250000.Fri.Feb.23_17_00_00.GMT.2007.argus02a.c0.daytimex.rect.gamma.jpg
p1202
aV1074358800.Sat.Jan.17_17_00_00.GMT.2004.argus02a.c0.daytimex.rect.gamma.jpg
p1203
aV755888400.Tue.Dec.14_17_00_00.GMT.1993.argus02.c0.daytimex.rect.gamma.jpg
p1204
aV1196269200.Wed.Nov.28_17_00_00.GMT.2007.argus02a.c0.daytimex.rect.gamma.jpg
p1205
aV1032883200.Tue.Sep.24_16_00_00.GMT.2002.argus02a.c0.daytimex.rect.gamma.jpg
p1206
aV921171600.Thu.Mar.11_17_00_00.GMT.1999.argus02a.c0.daytimex.rect.gamma.jpg
p1207
aV1142701200.Sat.Mar.18_17_00_00.GMT.2006.argus02a.c0.daytimex.rect.gamma.jpg
p1208
aV1138122000.Tue.Jan.24_17_00_00.GMT.2006.argus02a.c0.daytimex.rect.gamma.jpg
p1209
aV1133197200.Mon.Nov.28_17_00_00.GMT.2005.argus02a.c0.daytimex.rect.gamma.jpg
p1210
aV915642000.Wed.Jan.06_17_00_00.GMT.1999.argus02a.c0.daytimex.rect.gamma.jpg
p1211
aV1302105600.Wed.Apr.06_16_00_00.GMT.2011.argus02a.c0.daytimex.rect.gamma.jpg
p1212
aV778176000.Mon.Aug.29_16_00_00.GMT.1994.argus02.c0.daytimex.rect.gamma.jpg
p1213
aV799603200.Thu.May.04_16_00_00.GMT.1995.argus02.c0.daytimex.rect.gamma.jpg
p1214
aV1072285200.Wed.Dec.24_17_00_00.GMT.2003.argus02a.c0.daytimex.rect.gamma.jpg
p1215
aV1414166400.Fri.Oct.24_16_00_00.GMT.2014.argus02a.c0.daytimex.rect.gamma.jpg
p1216
aV1255968000.Mon.Oct.19_16_00_00.GMT.2009.argus02a.c0.daytimex.rect.gamma.jpg
p1217
aV1197565200.Thu.Dec.13_17_00_00.GMT.2007.argus02a.c0.daytimex.rect.gamma.jpg
p1218
aV1350057600.Fri.Oct.12_16_00_00.GMT.2012.argus02a.c0.daytimex.rect.gamma.jpg
p1219
aV1071507600.Mon.Dec.15_17_00_00.GMT.2003.argus02a.c0.daytimex.rect.gamma.jpg
p1220
aV769190400.Tue.May.17_16_00_00.GMT.1994.argus02.c0.daytimex.rect.gamma.jpg
p1221
aV1308067200.Tue.Jun.14_16_00_00.GMT.2011.argus02a.c0.daytimex.rect.gamma.jpg
p1222
aV1038416400.Wed.Nov.27_17_00_00.GMT.2002.argus02a.c0.daytimex.rect.gamma.jpg
p1223
aV817664400.Wed.Nov.29_17_00_00.GMT.1995.argus02.c0.daytimex.rect.gamma.jpg
p1224
aV1231606800.Sat.Jan.10_17_00_00.GMT.2009.argus02a.c0.daytimex.rect.gamma.jpg
p1225
aV1385053200.Thu.Nov.21_17_00_00.GMT.2013.argus02a.c0.daytimex.rect.gamma.jpg
p1226
aV1261155600.Fri.Dec.18_17_00_00.GMT.2009.argus02a.c0.daytimex.rect.gamma.jpg
p1227
aV1029513600.Fri.Aug.16_16_00_00.GMT.2002.argus02a.c0.daytimex.rect.gamma.jpg
p1228
aV1409587200.Mon.Sep.01_16_00_00.GMT.2014.argus02a.c0.daytimex.rect.gamma.jpg
p1229
aV1142874000.Mon.Mar.20_17_00_00.GMT.2006.argus02a.c0.daytimex.rect.gamma.jpg
p1230
aV816886800.Mon.Nov.20_17_00_00.GMT.1995.argus02.c0.daytimex.rect.gamma.jpg
p1231
aV1251820800.Tue.Sep.01_16_00_00.GMT.2009.argus02a.c0.daytimex.rect.gamma.jpg
p1232
aV1131814800.Sat.Nov.12_17_00_00.GMT.2005.argus02a.c0.daytimex.rect.gamma.jpg
p1233
aV1117814400.Fri.Jun.03_16_00_00.GMT.2005.argus02a.c0.daytimex.rect.gamma.jpg
p1234
aV1103562000.Mon.Dec.20_17_00_00.GMT.2004.argus02a.c0.daytimex.rect.gamma.jpg
p1235
aV791139600.Thu.Jan.26_17_00_00.GMT.1995.argus02.c0.daytimex.rect.gamma.jpg
p1236
aV907344000.Fri.Oct.02_16_00_00.GMT.1998.argus02a.c0.daytimex.rect.gamma.jpg
p1237
aV1180022400.Thu.May.24_16_00_00.GMT.2007.argus02a.c0.daytimex.rect.gamma.jpg
p1238
aV815590800.Sun.Nov.05_17_00_00.GMT.1995.argus02.c0.daytimex.rect.gamma.jpg
p1239
aV1413734400.Sun.Oct.19_16_00_00.GMT.2014.argus02a.c0.daytimex.rect.gamma.jpg
p1240
aV847645200.Sun.Nov.10_17_00_00.GMT.1996.argus02.c0.daytimex.rect.gamma.jpg
p1241
aV873475200.Fri.Sep.05_16_00_00.GMT.1997.argus02.c0.daytimex.rect.gamma.jpg
p1242
aV1301331600.Mon.Mar.28_17_00_00.GMT.2011.argus02a.c0.daytimex.rect.gamma.jpg
p1243
aV1196528400.Sat.Dec.01_17_00_00.GMT.2007.argus02a.c0.daytimex.rect.gamma.jpg
p1244
aV1137690000.Thu.Jan.19_17_00_00.GMT.2006.argus02a.c0.daytimex.rect.gamma.jpg
p1245
aV817318800.Sat.Nov.25_17_00_00.GMT.1995.argus02.c0.daytimex.rect.gamma.jpg
p1246
aV817923600.Sat.Dec.02_17_00_00.GMT.1995.argus02.c0.daytimex.rect.gamma.jpg
p1247
aV1193414400.Fri.Oct.26_16_00_00.GMT.2007.argus02a.c0.daytimex.rect.gamma.jpg
p1248
aV923328000.Mon.Apr.05_16_00_00.GMT.1999.argus02a.c0.daytimex.rect.gamma.jpg
p1249
aV1076259600.Sun.Feb.08_17_00_00.GMT.2004.argus02a.c0.daytimex.rect.gamma.jpg
p1250
aV1304438400.Tue.May.03_16_00_00.GMT.2011.argus02a.c0.daytimex.rect.gamma.jpg
p1251
aV1181923200.Fri.Jun.15_16_00_00.GMT.2007.argus02a.c0.daytimex.rect.gamma.jpg
p1252
aV1283529600.Fri.Sep.03_16_00_00.GMT.2010.argus02a.c0.daytimex.rect.gamma.jpg
p1253
aV1132160400.Wed.Nov.16_17_00_00.GMT.2005.argus02a.c0.daytimex.rect.gamma.jpg
p1254
aV966182400.Sun.Aug.13_16_00_00.GMT.2000.argus02a.c0.daytimex.rect.gamma.jpg
p1255
aV1297270800.Wed.Feb.09_17_00_00.GMT.2011.argus02a.c0.daytimex.rect.gamma.jpg
p1256
aV1327424400.Tue.Jan.24_17_00_00.GMT.2012.argus02a.c0.daytimex.rect.gamma.jpg
p1257
aV1328634000.Tue.Feb.07_17_00_00.GMT.2012.argus02a.c0.daytimex.rect.gamma.jpg
p1258
aV884797200.Wed.Jan.14_17_00_00.GMT.1998.argus02a.c0.daytimex.rect.gamma.jpg
p1259
aV1103734800.Wed.Dec.22_17_00_00.GMT.2004.argus02a.c0.daytimex.rect.gamma.jpg
p1260
a.