(lp0
V775584000.Sat.Jul.30_16_00_00.GMT.1994.argus02.c0.daytimex.rect.jpg
p1
aV1310572800.Wed.Jul.13_16_00_00.GMT.2011.argus02a.c0.daytimex.rect.jpg
p2
aV963331200.Tue.Jul.11_16_00_00.GMT.2000.argus02a.c0.daytimex.rect.jpg
p3
aV1263661200.Sat.Jan.16_17_00_00.GMT.2010.argus02a.c0.daytimex.rect.jpg
p4
aV1260896400.Tue.Dec.15_17_00_00.GMT.2009.argus02a.c0.daytimex.rect.jpg
p5
aV741283200.Mon.Jun.28_16_00_00.GMT.1993.argus02.c0.daytimex.rect.jpg
p6
aV1330966800.Mon.Mar.05_17_00_00.GMT.2012.argus02a.c0.daytimex.rect.jpg
p7
aV1192464000.Mon.Oct.15_16_00_00.GMT.2007.argus02a.c0.daytimex.rect.jpg
p8
aV1076518800.Wed.Feb.11_17_00_00.GMT.2004.argus02a.c0.daytimex.rect.jpg
p9
aV1215100800.Thu.Jul.03_16_00_00.GMT.2008.argus02a.c0.daytimex.rect.jpg
p10
aV1321462800.Wed.Nov.16_17_00_00.GMT.2011.argus02a.c0.daytimex.rect.jpg
p11
aV1326560400.Sat.Jan.14_17_00_00.GMT.2012.argus02a.c0.daytimex.rect.jpg
p12
aV757011600.Mon.Dec.27_17_00_00.GMT.1993.argus02.c0.daytimex.rect.jpg
p13
aV1329325200.Wed.Feb.15_17_00_00.GMT.2012.argus02a.c0.daytimex.rect.jpg
p14
aV1322413200.Sun.Nov.27_17_00_00.GMT.2011.argus02a.c0.daytimex.rect.jpg
p15
aV775152000.Mon.Jul.25_16_00_00.GMT.1994.argus02.c0.daytimex.rect.jpg
p16
aV1184169600.Wed.Jul.11_16_00_00.GMT.2007.argus02a.c0.daytimex.rect.jpg
p17
aV1184342400.Fri.Jul.13_16_00_00.GMT.2007.argus02a.c0.daytimex.rect.jpg
p18
aV1084291200.Tue.May.11_16_00_00.GMT.2004.argus02a.c0.daytimex.rect.jpg
p19
aV992793600.Sun.Jun.17_16_00_00.GMT.2001.argus02a.c0.daytimex.rect.jpg
p20
aV992448000.Wed.Jun.13_16_00_00.GMT.2001.argus02a.c0.daytimex.rect.jpg
p21
aV1165856400.Mon.Dec.11_17_00_00.GMT.2006.argus02a.c0.daytimex.rect.jpg
p22
aV1189440000.Mon.Sep.10_16_00_00.GMT.2007.argus02a.c0.daytimex.rect.jpg
p23
aV1310313600.Sun.Jul.10_16_00_00.GMT.2011.argus02a.c0.daytimex.rect.jpg
p24
aV1061222400.Mon.Aug.18_16_00_00.GMT.2003.argus02a.c0.daytimex.rect.jpg
p25
aV1180281600.Sun.May.27_16_00_00.GMT.2007.argus02a.c0.daytimex.rect.jpg
p26
aV994003200.Sun.Jul.01_16_00_00.GMT.2001.argus02a.c0.daytimex.rect.jpg
p27
aV880045200.Thu.Nov.20_17_00_00.GMT.1997.argus02a.c0.daytimex.rect.jpg
p28
aV1153238400.Tue.Jul.18_16_00_00.GMT.2006.argus02a.c0.daytimex.rect.jpg
p29
aV1215705600.Thu.Jul.10_16_00_00.GMT.2008.argus02a.c0.daytimex.rect.jpg
p30
aV1330621200.Thu.Mar.01_17_00_00.GMT.2012.argus02a.c0.daytimex.rect.jpg
p31
aV1091721600.Thu.Aug.05_16_00_00.GMT.2004.argus02a.c0.daytimex.rect.jpg
p32
aV1312387200.Wed.Aug.03_16_00_00.GMT.2011.argus02a.c0.daytimex.rect.jpg
p33
aV802972800.Mon.Jun.12_16_00_00.GMT.1995.argus02.c0.daytimex.rect.jpg
p34
aV1084723200.Sun.May.16_16_00_00.GMT.2004.argus02a.c0.daytimex.rect.jpg
p35
aV1089561600.Sun.Jul.11_16_00_00.GMT.2004.argus02a.c0.daytimex.rect.jpg
p36
aV934387200.Wed.Aug.11_16_00_00.GMT.1999.argus02a.c0.daytimex.rect.jpg
p37
aV1197306000.Mon.Dec.10_17_00_00.GMT.2007.argus02a.c0.daytimex.rect.jpg
p38
aV1287417600.Mon.Oct.18_16_00_00.GMT.2010.argus02a.c0.daytimex.rect.jpg
p39
aV1197392400.Tue.Dec.11_17_00_00.GMT.2007.argus02a.c0.daytimex.rect.jpg
p40
aV1161360000.Fri.Oct.20_16_00_00.GMT.2006.argus02a.c0.daytimex.rect.jpg
p41
aV927648000.Tue.May.25_16_00_00.GMT.1999.argus02a.c0.daytimex.rect.jpg
p42
aV1190822400.Wed.Sep.26_16_00_00.GMT.2007.argus02a.c0.daytimex.rect.jpg
p43
aV730486800.Tue.Feb.23_17_00_00.GMT.1993.argus02.c0.daytimex.rect.jpg
p44
aV1312473600.Thu.Aug.04_16_00_00.GMT.2011.argus02a.c0.daytimex.rect.jpg
p45
aV1272729600.Sat.May.01_16_00_00.GMT.2010.argus02a.c0.daytimex.rect.jpg
p46
aV1084982400.Wed.May.19_16_00_00.GMT.2004.argus02a.c0.daytimex.rect.jpg
p47
aV1330534800.Wed.Feb.29_17_00_00.GMT.2012.argus02a.c0.daytimex.rect.jpg
p48
aV1091030400.Wed.Jul.28_16_00_00.GMT.2004.argus02a.c0.daytimex.rect.jpg
p49
aV1194368400.Tue.Nov.06_17_00_00.GMT.2007.argus02a.c0.daytimex.rect.jpg
p50
aV807724800.Sun.Aug.06_16_00_00.GMT.1995.argus02.c0.daytimex.rect.jpg
p51
aV1193936400.Thu.Nov.01_17_00_00.GMT.2007.argus02a.c0.daytimex.rect.jpg
p52
aV1019318400.Sat.Apr.20_16_00_00.GMT.2002.argus02a.c0.daytimex.rect.jpg
p53
aV739555200.Tue.Jun.08_16_00_00.GMT.1993.argus02.c0.daytimex.rect.jpg
p54
aV1264611600.Wed.Jan.27_17_00_00.GMT.2010.argus02a.c0.daytimex.rect.jpg
p55
aV779472000.Tue.Sep.13_16_00_00.GMT.1994.argus02.c0.daytimex.rect.jpg
p56
aV779212800.Sat.Sep.10_16_00_00.GMT.1994.argus02.c0.daytimex.rect.jpg
p57
aV1273161600.Thu.May.06_16_00_00.GMT.2010.argus02a.c0.daytimex.rect.jpg
p58
aV1139590800.Fri.Feb.10_17_00_00.GMT.2006.argus02a.c0.daytimex.rect.jpg
p59
aV1190563200.Sun.Sep.23_16_00_00.GMT.2007.argus02a.c0.daytimex.rect.jpg
p60
aV965923200.Thu.Aug.10_16_00_00.GMT.2000.argus02a.c0.daytimex.rect.jpg
p61
aV1311523200.Sun.Jul.24_16_00_00.GMT.2011.argus02a.c0.daytimex.rect.jpg
p62
aV1085500800.Tue.May.25_16_00_00.GMT.2004.argus02a.c0.daytimex.rect.jpg
p63
aV932572800.Wed.Jul.21_16_00_00.GMT.1999.argus02a.c0.daytimex.rect.jpg
p64
aV932313600.Sun.Jul.18_16_00_00.GMT.1999.argus02a.c0.daytimex.rect.jpg
p65
aV1150819200.Tue.Jun.20_16_00_00.GMT.2006.argus02a.c0.daytimex.rect.jpg
p66
aV838224000.Wed.Jul.24_16_00_00.GMT.1996.argus02.c0.daytimex.rect.jpg
p67
aV1311955200.Fri.Jul.29_16_00_00.GMT.2011.argus02a.c0.daytimex.rect.jpg
p68
aV835372800.Fri.Jun.21_16_00_00.GMT.1996.argus02.c0.daytimex.rect.jpg
p69
aV1042131600.Thu.Jan.09_17_00_00.GMT.2003.argus02a.c0.daytimex.rect.jpg
p70
aV738691200.Sat.May.29_16_00_00.GMT.1993.argus02.c0.daytimex.rect.jpg
p71
aV1185984000.Wed.Aug.01_16_00_00.GMT.2007.argus02a.c0.daytimex.rect.jpg
p72
aV1409846400.Thu.Sep.04_16_00_00.GMT.2014.argus02a.c0.daytimex.rect.jpg
p73
aV1145116800.Sat.Apr.15_16_00_00.GMT.2006.argus02a.c0.daytimex.rect.jpg
p74
aV1178121600.Wed.May.02_16_00_00.GMT.2007.argus02a.c0.daytimex.rect.jpg
p75
aV1216224000.Wed.Jul.16_16_00_00.GMT.2008.argus02a.c0.daytimex.rect.jpg
p76
aV1058803200.Mon.Jul.21_16_00_00.GMT.2003.argus02a.c0.daytimex.rect.jpg
p77
aV868204800.Sun.Jul.06_16_00_00.GMT.1997.argus02.c0.daytimex.rect.jpg
p78
aV1356454800.Tue.Dec.25_17_00_00.GMT.2012.argus02a.c0.daytimex.rect.jpg
p79
aV871920000.Mon.Aug.18_16_00_00.GMT.1997.argus02.c0.daytimex.rect.jpg
p80
aV824749200.Mon.Feb.19_17_00_00.GMT.1996.argus02.c0.daytimex.rect.jpg
p81
aV838396800.Fri.Jul.26_16_00_00.GMT.1996.argus02.c0.daytimex.rect.jpg
p82
aV965059200.Mon.Jul.31_16_00_00.GMT.2000.argus02a.c0.daytimex.rect.jpg
p83
aV1065542400.Tue.Oct.07_16_00_00.GMT.2003.argus02a.c0.daytimex.rect.jpg
p84
aV843062400.Wed.Sep.18_16_00_00.GMT.1996.argus02.c0.daytimex.rect.jpg
p85
aV832608000.Mon.May.20_16_00_00.GMT.1996.argus02.c0.daytimex.rect.jpg
p86
aV1122566400.Thu.Jul.28_16_00_00.GMT.2005.argus02a.c0.daytimex.rect.jpg
p87
aV1340726400.Tue.Jun.26_16_00_00.GMT.2012.argus02a.c0.daytimex.rect.jpg
p88
aV1216396800.Fri.Jul.18_16_00_00.GMT.2008.argus02a.c0.daytimex.rect.jpg
p89
aV864489600.Sat.May.24_16_00_00.GMT.1997.argus02.c0.daytimex.rect.jpg
p90
aV1336752000.Fri.May.11_16_00_00.GMT.2012.argus02a.c0.daytimex.rect.jpg
p91
aV960566400.Fri.Jun.09_16_00_00.GMT.2000.argus02a.c0.daytimex.rect.jpg
p92
aV1356282000.Sun.Dec.23_17_00_00.GMT.2012.argus02a.c0.daytimex.rect.jpg
p93
aV1125590400.Thu.Sep.01_16_00_00.GMT.2005.argus02a.c0.daytimex.rect.jpg
p94
aV1352221200.Tue.Nov.06_17_00_00.GMT.2012.argus02a.c0.daytimex.rect.jpg
p95
aV963417600.Wed.Jul.12_16_00_00.GMT.2000.argus02a.c0.daytimex.rect.jpg
p96
aV872611200.Tue.Aug.26_16_00_00.GMT.1997.argus02.c0.daytimex.rect.jpg
p97
aV1345564800.Tue.Aug.21_16_00_00.GMT.2012.argus02a.c0.daytimex.rect.jpg
p98
aV984934800.Sun.Mar.18_17_00_00.GMT.2001.argus02a.c0.daytimex.rect.jpg
p99
aV1210176000.Wed.May.07_16_00_00.GMT.2008.argus02a.c0.daytimex.rect.jpg
p100
aV1323882000.Wed.Dec.14_17_00_00.GMT.2011.argus02a.c0.daytimex.rect.jpg
p101
aV898531200.Mon.Jun.22_16_00_00.GMT.1998.argus02a.c0.daytimex.rect.jpg
p102
aV832435200.Sat.May.18_16_00_00.GMT.1996.argus02.c0.daytimex.rect.jpg
p103
aV749750400.Mon.Oct.04_16_00_00.GMT.1993.argus02.c0.daytimex.rect.jpg
p104
aV1006275600.Tue.Nov.20_17_00_00.GMT.2001.argus02a.c0.daytimex.rect.jpg
p105
aV991584000.Sun.Jun.03_16_00_00.GMT.2001.argus02a.c0.daytimex.rect.jpg
p106
aV985539600.Sun.Mar.25_17_00_00.GMT.2001.argus02a.c0.daytimex.rect.jpg
p107
aV837446400.Mon.Jul.15_16_00_00.GMT.1996.argus02.c0.daytimex.rect.jpg
p108
aV995385600.Tue.Jul.17_16_00_00.GMT.2001.argus02a.c0.daytimex.rect.jpg
p109
aV1343664000.Mon.Jul.30_16_00_00.GMT.2012.argus02a.c0.daytimex.rect.jpg
p110
aV1362502800.Tue.Mar.05_17_00_00.GMT.2013.argus02a.c0.daytimex.rect.jpg
p111
aV1249315200.Mon.Aug.03_16_00_00.GMT.2009.argus02a.c0.daytimex.rect.jpg
p112
aV843926400.Sat.Sep.28_16_00_00.GMT.1996.argus02.c0.daytimex.rect.jpg
p113
aV1379260800.Sun.Sep.15_16_00_00.GMT.2013.argus02a.c0.daytimex.rect.jpg
p114
aV980096400.Sun.Jan.21_17_00_00.GMT.2001.argus02a.c0.daytimex.rect.jpg
p115
aV827427600.Thu.Mar.21_17_00_00.GMT.1996.argus02.c0.daytimex.rect.jpg
p116
aV745257600.Fri.Aug.13_16_00_00.GMT.1993.argus02.c0.daytimex.rect.jpg
p117
aV964972800.Sun.Jul.30_16_00_00.GMT.2000.argus02a.c0.daytimex.rect.jpg
p118
aV1407945600.Wed.Aug.13_16_00_00.GMT.2014.argus02a.c0.daytimex.rect.jpg
p119
aV1248624000.Sun.Jul.26_16_00_00.GMT.2009.argus02a.c0.daytimex.rect.jpg
p120
aV832348800.Fri.May.17_16_00_00.GMT.1996.argus02.c0.daytimex.rect.jpg
p121
aV1250784000.Thu.Aug.20_16_00_00.GMT.2009.argus02a.c0.daytimex.rect.jpg
p122
aV839952000.Tue.Aug.13_16_00_00.GMT.1996.argus02.c0.daytimex.rect.jpg
p123
aV1343750400.Tue.Jul.31_16_00_00.GMT.2012.argus02a.c0.daytimex.rect.jpg
p124
aV1003507200.Fri.Oct.19_16_00_00.GMT.2001.argus02a.c0.daytimex.rect.jpg
p125
aV1214755200.Sun.Jun.29_16_00_00.GMT.2008.argus02a.c0.daytimex.rect.jpg
p126
aV1002902400.Fri.Oct.12_16_00_00.GMT.2001.argus02a.c0.daytimex.rect.jpg
p127
aV1094227200.Fri.Sep.03_16_00_00.GMT.2004.argus02a.c0.daytimex.rect.jpg
p128
aV842198400.Sun.Sep.08_16_00_00.GMT.1996.argus02.c0.daytimex.rect.jpg
p129
aV746035200.Sun.Aug.22_16_00_00.GMT.1993.argus02.c0.daytimex.rect.jpg
p130
aV840297600.Sat.Aug.17_16_00_00.GMT.1996.argus02.c0.daytimex.rect.jpg
p131
aV1055606400.Sat.Jun.14_16_00_00.GMT.2003.argus02a.c0.daytimex.rect.jpg
p132
aV1005325200.Fri.Nov.09_17_00_00.GMT.2001.argus02a.c0.daytimex.rect.jpg
p133
aV1356714000.Fri.Dec.28_17_00_00.GMT.2012.argus02a.c0.daytimex.rect.jpg
p134
aV870796800.Tue.Aug.05_16_00_00.GMT.1997.argus02.c0.daytimex.rect.jpg
p135
aV1333468800.Tue.Apr.03_16_00_00.GMT.2012.argus02a.c0.daytimex.rect.jpg
p136
aV965577600.Sun.Aug.06_16_00_00.GMT.2000.argus02a.c0.daytimex.rect.jpg
p137
aV1283184000.Mon.Aug.30_16_00_00.GMT.2010.argus02a.c0.daytimex.rect.jpg
p138
aV1343145600.Tue.Jul.24_16_00_00.GMT.2012.argus02a.c0.daytimex.rect.jpg
p139
aV842976000.Tue.Sep.17_16_00_00.GMT.1996.argus02.c0.daytimex.rect.jpg
p140
aV871747200.Sat.Aug.16_16_00_00.GMT.1997.argus02.c0.daytimex.rect.jpg
p141
aV1333126800.Fri.Mar.30_17_00_00.GMT.2012.argus02a.c0.daytimex.rect.jpg
p142
aV1354899600.Fri.Dec.07_17_00_00.GMT.2012.argus02a.c0.daytimex.rect.jpg
p143
aV784746000.Sun.Nov.13_17_00_00.GMT.1994.argus02.c0.daytimex.rect.jpg
p144
aV1354813200.Thu.Dec.06_17_00_00.GMT.2012.argus02a.c0.daytimex.rect.jpg
p145
aV1164819600.Wed.Nov.29_17_00_00.GMT.2006.argus02a.c0.daytimex.rect.jpg
p146
aV1156867200.Tue.Aug.29_16_00_00.GMT.2006.argus02a.c0.daytimex.rect.jpg
p147
aV966873600.Mon.Aug.21_16_00_00.GMT.2000.argus02a.c0.daytimex.rect.jpg
p148
aV1049216400.Tue.Apr.01_17_00_00.GMT.2003.argus02a.c0.daytimex.rect.jpg
p149
aV1334160000.Wed.Apr.11_16_00_00.GMT.2012.argus02a.c0.daytimex.rect.jpg
p150
aV1381593600.Sat.Oct.12_16_00_00.GMT.2013.argus02a.c0.daytimex.rect.jpg
p151
aV1401552000.Sat.May.31_16_00_00.GMT.2014.argus02a.c0.daytimex.rect.jpg
p152
aV1098892800.Wed.Oct.27_16_00_00.GMT.2004.argus02a.c0.daytimex.rect.jpg
p153
aV1373644800.Fri.Jul.12_16_00_00.GMT.2013.argus02a.c0.daytimex.rect.jpg
p154
aV1337616000.Mon.May.21_16_00_00.GMT.2012.argus02a.c0.daytimex.rect.jpg
p155
aV1030809600.Sat.Aug.31_16_00_00.GMT.2002.argus02a.c0.daytimex.rect.jpg
p156
aV1096646400.Fri.Oct.01_16_00_00.GMT.2004.argus02a.c0.daytimex.rect.jpg
p157
aV888166800.Sun.Feb.22_17_00_00.GMT.1998.argus02a.c0.daytimex.rect.jpg
p158
aV1069693200.Mon.Nov.24_17_00_00.GMT.2003.argus02a.c0.daytimex.rect.jpg
p159
aV1031414400.Sat.Sep.07_16_00_00.GMT.2002.argus02a.c0.daytimex.rect.jpg
p160
aV1378483200.Fri.Sep.06_16_00_00.GMT.2013.argus02a.c0.daytimex.rect.jpg
p161
aV1030809600.Sat.Aug.31_16_00_00.GMT.2002.argus02a.c0.daytimex.rect.jpg
p162
aV873216000.Tue.Sep.02_16_00_00.GMT.1997.argus02.c0.daytimex.rect.jpg
p163
aV1247068800.Wed.Jul.08_16_00_00.GMT.2009.argus02a.c0.daytimex.rect.jpg
p164
aV801676800.Sun.May.28_16_00_00.GMT.1995.argus02.c0.daytimex.rect.jpg
p165
aV1097596800.Tue.Oct.12_16_00_00.GMT.2004.argus02a.c0.daytimex.rect.jpg
p166
aV1358787600.Mon.Jan.21_17_00_00.GMT.2013.argus02a.c0.daytimex.rect.jpg
p167
aV1211040000.Sat.May.17_16_00_00.GMT.2008.argus02a.c0.daytimex.rect.jpg
p168
aV1097337600.Sat.Oct.09_16_00_00.GMT.2004.argus02a.c0.daytimex.rect.jpg
p169
aV1081699200.Sun.Apr.11_16_00_00.GMT.2004.argus02a.c0.daytimex.rect.jpg
p170
aV1380643200.Tue.Oct.01_16_00_00.GMT.2013.argus02a.c0.daytimex.rect.jpg
p171
aV1121011200.Sun.Jul.10_16_00_00.GMT.2005.argus02a.c0.daytimex.rect.jpg
p172
aV971798400.Tue.Oct.17_16_00_00.GMT.2000.argus02a.c0.daytimex.rect.jpg
p173
aV1404403200.Thu.Jul.03_16_00_00.GMT.2014.argus02a.c0.daytimex.rect.jpg
p174
aV896630400.Sun.May.31_16_00_00.GMT.1998.argus02a.c0.daytimex.rect.jpg
p175
aV1009818000.Mon.Dec.31_17_00_00.GMT.2001.argus02a.c0.daytimex.rect.jpg
p176
aV1023379200.Thu.Jun.06_16_00_00.GMT.2002.argus02a.c0.daytimex.rect.jpg
p177
aV1358960400.Wed.Jan.23_17_00_00.GMT.2013.argus02a.c0.daytimex.rect.jpg
p178
aV1119801600.Sun.Jun.26_16_00_00.GMT.2005.argus02a.c0.daytimex.rect.jpg
p179
aV1115308800.Thu.May.05_16_00_00.GMT.2005.argus02a.c0.daytimex.rect.jpg
p180
aV867340800.Thu.Jun.26_16_00_00.GMT.1997.argus02.c0.daytimex.rect.jpg
p181
aV856976400.Wed.Feb.26_17_00_00.GMT.1997.argus02.c0.daytimex.rect.jpg
p182
aV738000000.Fri.May.21_16_00_00.GMT.1993.argus02.c0.daytimex.rect.jpg
p183
aV902246400.Tue.Aug.04_16_00_00.GMT.1998.argus02a.c0.daytimex.rect.jpg
p184
aV1122048000.Fri.Jul.22_16_00_00.GMT.2005.argus02a.c0.daytimex.rect.jpg
p185
aV1019836800.Fri.Apr.26_16_00_00.GMT.2002.argus02a.c0.daytimex.rect.jpg
p186
aV1335024000.Sat.Apr.21_16_00_00.GMT.2012.argus02a.c0.daytimex.rect.jpg
p187
aV1401379200.Thu.May.29_16_00_00.GMT.2014.argus02a.c0.daytimex.rect.jpg
p188
aV1339257600.Sat.Jun.09_16_00_00.GMT.2012.argus02a.c0.daytimex.rect.jpg
p189
aV1373731200.Sat.Jul.13_16_00_00.GMT.2013.argus02a.c0.daytimex.rect.jpg
p190
aV896889600.Wed.Jun.03_16_00_00.GMT.1998.argus02a.c0.daytimex.rect.jpg
p191
aV740246400.Wed.Jun.16_16_00_00.GMT.1993.argus02.c0.daytimex.rect.jpg
p192
aV1377014400.Tue.Aug.20_16_00_00.GMT.2013.argus02a.c0.daytimex.rect.jpg
p193
aV1358787600.Mon.Jan.21_17_00_00.GMT.2013.argus02a.c0.daytimex.rect.jpg
p194
aV1023465600.Fri.Jun.07_16_00_00.GMT.2002.argus02a.c0.daytimex.rect.jpg
p195
aV740332800.Thu.Jun.17_16_00_00.GMT.1993.argus02.c0.daytimex.rect.jpg
p196
aV805219200.Sat.Jul.08_16_00_00.GMT.1995.argus02.c0.daytimex.rect.jpg
p197
aV900432000.Tue.Jul.14_16_00_00.GMT.1998.argus02a.c0.daytimex.rect.jpg
p198
aV896457600.Fri.May.29_16_00_00.GMT.1998.argus02a.c0.daytimex.rect.jpg
p199
aV1379088000.Fri.Sep.13_16_00_00.GMT.2013.argus02a.c0.daytimex.rect.jpg
p200
aV958147200.Fri.May.12_16_00_00.GMT.2000.argus02a.c0.daytimex.rect.jpg
p201
aV736531200.Tue.May.04_16_00_00.GMT.1993.argus02.c0.daytimex.rect.jpg
p202
aV958665600.Thu.May.18_16_00_00.GMT.2000.argus02a.c0.daytimex.rect.jpg
p203
aV1014742800.Tue.Feb.26_17_00_00.GMT.2002.argus02a.c0.daytimex.rect.jpg
p204
aV954608400.Sat.Apr.01_17_00_00.GMT.2000.argus02a.c0.daytimex.rect.jpg
p205
aV1095523200.Sat.Sep.18_16_00_00.GMT.2004.argus02a.c0.daytimex.rect.jpg
p206
aV1113840000.Mon.Apr.18_16_00_00.GMT.2005.argus02a.c0.daytimex.rect.jpg
p207
aV1401897600.Wed.Jun.04_16_00_00.GMT.2014.argus02a.c0.daytimex.rect.jpg
p208
aV910803600.Wed.Nov.11_17_00_00.GMT.1998.argus02a.c0.daytimex.rect.jpg
p209
aV1383411600.Sat.Nov.02_17_00_00.GMT.2013.argus02a.c0.daytimex.rect.jpg
p210
aV860515200.Tue.Apr.08_16_00_00.GMT.1997.argus02.c0.daytimex.rect.jpg
p211
aV1031328000.Fri.Sep.06_16_00_00.GMT.2002.argus02a.c0.daytimex.rect.jpg
p212
aV1114012800.Wed.Apr.20_16_00_00.GMT.2005.argus02a.c0.daytimex.rect.jpg
p213
aV1382198400.Sat.Oct.19_16_00_00.GMT.2013.argus02a.c0.daytimex.rect.jpg
p214
aV1253721600.Wed.Sep.23_16_00_00.GMT.2009.argus02a.c0.daytimex.rect.jpg
p215
aV1247760000.Thu.Jul.16_16_00_00.GMT.2009.argus02a.c0.daytimex.rect.jpg
p216
aV1255276800.Sun.Oct.11_16_00_00.GMT.2009.argus02a.c0.daytimex.rect.jpg
p217
aV1080752400.Wed.Mar.31_17_00_00.GMT.2004.argus02a.c0.daytimex.rect.jpg
p218
aV1336060800.Thu.May.03_16_00_00.GMT.2012.argus02a.c0.daytimex.rect.jpg
p219
aV1008349200.Fri.Dec.14_17_00_00.GMT.2001.argus02a.c0.daytimex.rect.jpg
p220
aV1383843600.Thu.Nov.07_17_00_00.GMT.2013.argus02a.c0.daytimex.rect.jpg
p221
aV739296000.Sat.Jun.05_16_00_00.GMT.1993.argus02.c0.daytimex.rect.jpg
p222
aV1401120000.Mon.May.26_16_00_00.GMT.2014.argus02a.c0.daytimex.rect.jpg
p223
aV1400515200.Mon.May.19_16_00_00.GMT.2014.argus02a.c0.daytimex.rect.jpg
p224
aV1355590800.Sat.Dec.15_17_00_00.GMT.2012.argus02a.c0.daytimex.rect.jpg
p225
aV1226250000.Sun.Nov.09_17_00_00.GMT.2008.argus02a.c0.daytimex.rect.jpg
p226
aV796410000.Tue.Mar.28_17_00_00.GMT.1995.argus02.c0.daytimex.rect.jpg
p227
aV1226422800.Tue.Nov.11_17_00_00.GMT.2008.argus02a.c0.daytimex.rect.jpg
p228
aV1338480000.Thu.May.31_16_00_00.GMT.2012.argus02a.c0.daytimex.rect.jpg
p229
aV1337875200.Thu.May.24_16_00_00.GMT.2012.argus02a.c0.daytimex.rect.jpg
p230
aV1388509200.Tue.Dec.31_17_00_00.GMT.2013.argus02a.c0.daytimex.rect.jpg
p231
aV1101229200.Tue.Nov.23_17_00_00.GMT.2004.argus02a.c0.daytimex.rect.jpg
p232
aV1233248400.Thu.Jan.29_17_00_00.GMT.2009.argus02a.c0.daytimex.rect.jpg
p233
aV813340800.Tue.Oct.10_16_00_00.GMT.1995.argus02.c0.daytimex.rect.jpg
p234
aV1265648400.Mon.Feb.08_17_00_00.GMT.2010.argus02a.c0.daytimex.rect.jpg
p235
aV1284393600.Mon.Sep.13_16_00_00.GMT.2010.argus02a.c0.daytimex.rect.jpg
p236
aV1233421200.Sat.Jan.31_17_00_00.GMT.2009.argus02a.c0.daytimex.rect.jpg
p237
aV1127318400.Wed.Sep.21_16_00_00.GMT.2005.argus02a.c0.daytimex.rect.jpg
p238
aV1396972800.Tue.Apr.08_16_00_00.GMT.2014.argus02a.c0.daytimex.rect.jpg
p239
aV1272297600.Mon.Apr.26_16_00_00.GMT.2010.argus02a.c0.daytimex.rect.jpg
p240
aV1305561600.Mon.May.16_16_00_00.GMT.2011.argus02a.c0.daytimex.rect.jpg
p241
aV1294160400.Tue.Jan.04_17_00_00.GMT.2011.argus02a.c0.daytimex.rect.jpg
p242
aV1226163600.Sat.Nov.08_17_00_00.GMT.2008.argus02a.c0.daytimex.rect.jpg
p243
aV1023897600.Wed.Jun.12_16_00_00.GMT.2002.argus02a.c0.daytimex.rect.jpg
p244
aV1395594000.Sun.Mar.23_17_00_00.GMT.2014.argus02a.c0.daytimex.rect.jpg
p245
aV1338566400.Fri.Jun.01_16_00_00.GMT.2012.argus02a.c0.daytimex.rect.jpg
p246
aV1293642000.Wed.Dec.29_17_00_00.GMT.2010.argus02a.c0.daytimex.rect.jpg
p247
aV1397577600.Tue.Apr.15_16_00_00.GMT.2014.argus02a.c0.daytimex.rect.jpg
p248
aV1139677200.Sat.Feb.11_17_00_00.GMT.2006.argus02a.c0.daytimex.rect.jpg
p249
aV1391274000.Sat.Feb.01_17_00_00.GMT.2014.argus02a.c0.daytimex.rect.jpg
p250
aV1235235600.Sat.Feb.21_17_00_00.GMT.2009.argus02a.c0.daytimex.rect.jpg
p251
aV1256576400.Mon.Oct.26_17_00_00.GMT.2009.argus02a.c0.daytimex.rect.jpg
p252
aV1175360400.Sat.Mar.31_17_00_00.GMT.2007.argus02a.c0.daytimex.rect.jpg
p253
aV799084800.Fri.Apr.28_16_00_00.GMT.1995.argus02.c0.daytimex.rect.jpg
p254
aV1307116800.Fri.Jun.03_16_00_00.GMT.2011.argus02a.c0.daytimex.rect.jpg
p255
aV1015693200.Sat.Mar.09_17_00_00.GMT.2002.argus02a.c0.daytimex.rect.jpg
p256
aV1291741200.Tue.Dec.07_17_00_00.GMT.2010.argus02a.c0.daytimex.rect.jpg
p257
aV1411142400.Fri.Sep.19_16_00_00.GMT.2014.argus02a.c0.daytimex.rect.jpg
p258
aV1014310800.Thu.Feb.21_17_00_00.GMT.2002.argus02a.c0.daytimex.rect.jpg
p259
aV1396198800.Sun.Mar.30_17_00_00.GMT.2014.argus02a.c0.daytimex.rect.jpg
p260
aV1385139600.Fri.Nov.22_17_00_00.GMT.2013.argus02a.c0.daytimex.rect.jpg
p261
aV1068570000.Tue.Nov.11_17_00_00.GMT.2003.argus02a.c0.daytimex.rect.jpg
p262
aV1233421200.Sat.Jan.31_17_00_00.GMT.2009.argus02a.c0.daytimex.rect.jpg
p263
aV1135702800.Tue.Dec.27_17_00_00.GMT.2005.argus02a.c0.daytimex.rect.jpg
p264
aV1256054400.Tue.Oct.20_16_00_00.GMT.2009.argus02a.c0.daytimex.rect.jpg
p265
aV1072026000.Sun.Dec.21_17_00_00.GMT.2003.argus02a.c0.daytimex.rect.jpg
p266
aV1103043600.Tue.Dec.14_17_00_00.GMT.2004.argus02a.c0.daytimex.rect.jpg
p267
aV1252771200.Sat.Sep.12_16_00_00.GMT.2009.argus02a.c0.daytimex.rect.jpg
p268
aV1285603200.Mon.Sep.27_16_00_00.GMT.2010.argus02a.c0.daytimex.rect.jpg
p269
aV809798400.Wed.Aug.30_16_00_00.GMT.1995.argus02.c0.daytimex.rect.jpg
p270
aV1243526400.Thu.May.28_16_00_00.GMT.2009.argus02a.c0.daytimex.rect.jpg
p271
aV1234285200.Tue.Feb.10_17_00_00.GMT.2009.argus02a.c0.daytimex.rect.jpg
p272
aV1226336400.Mon.Nov.10_17_00_00.GMT.2008.argus02a.c0.daytimex.rect.jpg
p273
aV1393347600.Tue.Feb.25_17_00_00.GMT.2014.argus02a.c0.daytimex.rect.jpg
p274
aV920134800.Sat.Feb.27_17_00_00.GMT.1999.argus02a.c0.daytimex.rect.jpg
p275
aV788893200.Sat.Dec.31_17_00_00.GMT.1994.argus02.c0.daytimex.rect.jpg
p276
aV924451200.Sun.Apr.18_16_00_00.GMT.1999.argus02a.c0.daytimex.rect.jpg
p277
aV905097600.Sun.Sep.06_16_00_00.GMT.1998.argus02a.c0.daytimex.rect.jpg
p278
aV1409068800.Tue.Aug.26_16_00_00.GMT.2014.argus02a.c0.daytimex.rect.jpg
p279
aV1385917200.Sun.Dec.01_17_00_00.GMT.2013.argus02a.c0.daytimex.rect.jpg
p280
aV1235235600.Sat.Feb.21_17_00_00.GMT.2009.argus02a.c0.daytimex.rect.jpg
p281
aV1255449600.Tue.Oct.13_16_00_00.GMT.2009.argus02a.c0.daytimex.rect.jpg
p282
aV809539200.Sun.Aug.27_16_00_00.GMT.1995.argus02.c0.daytimex.rect.jpg
p283
aV1337616000.Mon.May.21_16_00_00.GMT.2012.argus02a.c0.daytimex.rect.jpg
p284
aV1177344000.Mon.Apr.23_16_00_00.GMT.2007.argus02a.c0.daytimex.rect.jpg
p285
aV809366400.Fri.Aug.25_16_00_00.GMT.1995.argus02.c0.daytimex.rect.jpg
p286
aV1359306000.Sun.Jan.27_17_00_00.GMT.2013.argus02a.c0.daytimex.rect.jpg
p287
aV1072630800.Sun.Dec.28_17_00_00.GMT.2003.argus02a.c0.daytimex.rect.jpg
p288
aV1233248400.Thu.Jan.29_17_00_00.GMT.2009.argus02a.c0.daytimex.rect.jpg
p289
aV1416157200.Sun.Nov.16_17_00_00.GMT.2014.argus02a.c0.daytimex.rect.jpg
p290
aV1386176400.Wed.Dec.04_17_00_00.GMT.2013.argus02a.c0.daytimex.rect.jpg
p291
aV1032624000.Sat.Sep.21_16_00_00.GMT.2002.argus02a.c0.daytimex.rect.jpg
p292
aV1036170000.Fri.Nov.01_17_00_00.GMT.2002.argus02a.c0.daytimex.rect.jpg
p293
aV1385226000.Sat.Nov.23_17_00_00.GMT.2013.argus02a.c0.daytimex.rect.jpg
p294
aV1100710800.Wed.Nov.17_17_00_00.GMT.2004.argus02a.c0.daytimex.rect.jpg
p295
aV1293814800.Fri.Dec.31_17_00_00.GMT.2010.argus02a.c0.daytimex.rect.jpg
p296
aV1024070400.Fri.Jun.14_16_00_00.GMT.2002.argus02a.c0.daytimex.rect.jpg
p297
aV796064400.Fri.Mar.24_17_00_00.GMT.1995.argus02.c0.daytimex.rect.jpg
p298
aV1118073600.Mon.Jun.06_16_00_00.GMT.2005.argus02a.c0.daytimex.rect.jpg
p299
aV1178294400.Fri.May.04_16_00_00.GMT.2007.argus02a.c0.daytimex.rect.jpg
p300
aV780249600.Thu.Sep.22_16_00_00.GMT.1994.argus02.c0.daytimex.rect.jpg
p301
aV755888400.Tue.Dec.14_17_00_00.GMT.1993.argus02.c0.daytimex.rect.jpg
p302
aV1308067200.Tue.Jun.14_16_00_00.GMT.2011.argus02a.c0.daytimex.rect.jpg
p303
aV1181836800.Thu.Jun.14_16_00_00.GMT.2007.argus02a.c0.daytimex.rect.jpg
p304
aV1387645200.Sat.Dec.21_17_00_00.GMT.2013.argus02a.c0.daytimex.rect.jpg
p305
aV1038416400.Wed.Nov.27_17_00_00.GMT.2002.argus02a.c0.daytimex.rect.jpg
p306
aV1029513600.Fri.Aug.16_16_00_00.GMT.2002.argus02a.c0.daytimex.rect.jpg
p307
aV873475200.Fri.Sep.05_16_00_00.GMT.1997.argus02.c0.daytimex.rect.jpg
p308
aV1350057600.Fri.Oct.12_16_00_00.GMT.2012.argus02a.c0.daytimex.rect.jpg
p309
aV1298394000.Tue.Feb.22_17_00_00.GMT.2011.argus02a.c0.daytimex.rect.jpg
p310
aV755974800.Wed.Dec.15_17_00_00.GMT.1993.argus02.c0.daytimex.rect.jpg
p311
aV1169312400.Sat.Jan.20_17_00_00.GMT.2007.argus02a.c0.daytimex.rect.jpg
p312
aV769190400.Tue.May.17_16_00_00.GMT.1994.argus02.c0.daytimex.rect.jpg
p313
aV1285689600.Tue.Sep.28_16_00_00.GMT.2010.argus02a.c0.daytimex.rect.jpg
p314
aV1293210000.Fri.Dec.24_17_00_00.GMT.2010.argus02a.c0.daytimex.rect.jpg
p315
aV793213200.Sun.Feb.19_17_00_00.GMT.1995.argus02.c0.daytimex.rect.jpg
p316
aV819738000.Sat.Dec.23_17_00_00.GMT.1995.argus02.c0.daytimex.rect.jpg
p317
aV1304611200.Thu.May.05_16_00_00.GMT.2011.argus02a.c0.daytimex.rect.jpg
p318
aV1071248400.Fri.Dec.12_17_00_00.GMT.2003.argus02a.c0.daytimex.rect.jpg
p319
aV1232816400.Sat.Jan.24_17_00_00.GMT.2009.argus02a.c0.daytimex.rect.jpg
p320
aV1409587200.Mon.Sep.01_16_00_00.GMT.2014.argus02a.c0.daytimex.rect.jpg
p321
aV923328000.Mon.Apr.05_16_00_00.GMT.1999.argus02a.c0.daytimex.rect.jpg
p322
aV1137690000.Thu.Jan.19_17_00_00.GMT.2006.argus02a.c0.daytimex.rect.jpg
p323
aV1132160400.Wed.Nov.16_17_00_00.GMT.2005.argus02a.c0.daytimex.rect.jpg
p324
aV1251820800.Tue.Sep.01_16_00_00.GMT.2009.argus02a.c0.daytimex.rect.jpg
p325
aV1166547600.Tue.Dec.19_17_00_00.GMT.2006.argus02a.c0.daytimex.rect.jpg
p326
aV817923600.Sat.Dec.02_17_00_00.GMT.1995.argus02.c0.daytimex.rect.jpg
p327
aV966182400.Sun.Aug.13_16_00_00.GMT.2000.argus02a.c0.daytimex.rect.jpg
p328
aV1072285200.Wed.Dec.24_17_00_00.GMT.2003.argus02a.c0.daytimex.rect.jpg
p329
aV1169485200.Mon.Jan.22_17_00_00.GMT.2007.argus02a.c0.daytimex.rect.jpg
p330
aV847386000.Thu.Nov.07_17_00_00.GMT.1996.argus02.c0.daytimex.rect.jpg
p331
aV1413820800.Mon.Oct.20_16_00_00.GMT.2014.argus02a.c0.daytimex.rect.jpg
p332
aV817059600.Wed.Nov.22_17_00_00.GMT.1995.argus02.c0.daytimex.rect.jpg
p333
aV791139600.Thu.Jan.26_17_00_00.GMT.1995.argus02.c0.daytimex.rect.jpg
p334
aV769708800.Mon.May.23_16_00_00.GMT.1994.argus02.c0.daytimex.rect.jpg
p335
aV1197565200.Thu.Dec.13_17_00_00.GMT.2007.argus02a.c0.daytimex.rect.jpg
p336
aV768844800.Fri.May.13_16_00_00.GMT.1994.argus02.c0.daytimex.rect.jpg
p337
aV1193500800.Sat.Oct.27_16_00_00.GMT.2007.argus02a.c0.daytimex.rect.jpg
p338
aV1141405200.Fri.Mar.03_17_00_00.GMT.2006.argus02a.c0.daytimex.rect.jpg
p339
aV1075914000.Wed.Feb.04_17_00_00.GMT.2004.argus02a.c0.daytimex.rect.jpg
p340
aV1103821200.Thu.Dec.23_17_00_00.GMT.2004.argus02a.c0.daytimex.rect.jpg
p341
aV1298307600.Mon.Feb.21_17_00_00.GMT.2011.argus02a.c0.daytimex.rect.jpg
p342
aV807984000.Wed.Aug.09_16_00_00.GMT.1995.argus02.c0.daytimex.rect.jpg
p343
aV915642000.Wed.Jan.06_17_00_00.GMT.1999.argus02a.c0.daytimex.rect.jpg
p344
aV778176000.Mon.Aug.29_16_00_00.GMT.1994.argus02.c0.daytimex.rect.jpg
p345
aV1304438400.Tue.May.03_16_00_00.GMT.2011.argus02a.c0.daytimex.rect.jpg
p346
aV889722000.Thu.Mar.12_17_00_00.GMT.1998.argus02a.c0.daytimex.rect.jpg
p347
aV820774800.Thu.Jan.04_17_00_00.GMT.1996.argus02.c0.daytimex.rect.jpg
p348
aV1076259600.Sun.Feb.08_17_00_00.GMT.2004.argus02a.c0.daytimex.rect.jpg
p349
aV781632000.Sat.Oct.08_16_00_00.GMT.1994.argus02.c0.daytimex.rect.jpg
p350
aV1172250000.Fri.Feb.23_17_00_00.GMT.2007.argus02a.c0.daytimex.rect.jpg
p351
aV916419600.Fri.Jan.15_17_00_00.GMT.1999.argus02a.c0.daytimex.rect.jpg
p352
aV820256400.Fri.Dec.29_17_00_00.GMT.1995.argus02.c0.daytimex.rect.jpg
p353
aV1041008400.Fri.Dec.27_17_00_00.GMT.2002.argus02a.c0.daytimex.rect.jpg
p354
aV1303660800.Sun.Apr.24_16_00_00.GMT.2011.argus02a.c0.daytimex.rect.jpg
p355
aV913309200.Thu.Dec.10_17_00_00.GMT.1998.argus02a.c0.daytimex.rect.jpg
p356
aV1175014800.Tue.Mar.27_17_00_00.GMT.2007.argus02a.c0.daytimex.rect.jpg
p357
aV1104339600.Wed.Dec.29_17_00_00.GMT.2004.argus02a.c0.daytimex.rect.jpg
p358
aV1133197200.Mon.Nov.28_17_00_00.GMT.2005.argus02a.c0.daytimex.rect.jpg
p359
aV1288630800.Mon.Nov.01_17_00_00.GMT.2010.argus02a.c0.daytimex.rect.jpg
p360
aV1195750800.Thu.Nov.22_17_00_00.GMT.2007.argus02a.c0.daytimex.rect.jpg
p361
aV1165165200.Sun.Dec.03_17_00_00.GMT.2006.argus02a.c0.daytimex.rect.jpg
p362
aV798912000.Wed.Apr.26_16_00_00.GMT.1995.argus02.c0.daytimex.rect.jpg
p363
aV1163782800.Fri.Nov.17_17_00_00.GMT.2006.argus02a.c0.daytimex.rect.jpg
p364
aV1385053200.Thu.Nov.21_17_00_00.GMT.2013.argus02a.c0.daytimex.rect.jpg
p365
aV764701200.Sat.Mar.26_17_00_00.GMT.1994.argus02.c0.daytimex.rect.jpg
p366
aV1390323600.Tue.Jan.21_17_00_00.GMT.2014.argus02a.c0.daytimex.rect.jpg
p367
aV1234890000.Tue.Feb.17_17_00_00.GMT.2009.argus02a.c0.daytimex.rect.jpg
p368
aV817318800.Sat.Nov.25_17_00_00.GMT.1995.argus02.c0.daytimex.rect.jpg
p369
aV1181923200.Fri.Jun.15_16_00_00.GMT.2007.argus02a.c0.daytimex.rect.jpg
p370
aV1299862800.Fri.Mar.11_17_00_00.GMT.2011.argus02a.c0.daytimex.rect.jpg
p371
aV874166400.Sat.Sep.13_16_00_00.GMT.1997.argus02.c0.daytimex.rect.jpg
p372
aV875808000.Thu.Oct.02_16_00_00.GMT.1997.argus02.c0.daytimex.rect.jpg
p373
aV907344000.Fri.Oct.02_16_00_00.GMT.1998.argus02a.c0.daytimex.rect.jpg
p374
aV1317398400.Fri.Sep.30_16_00_00.GMT.2011.argus02a.c0.daytimex.rect.jpg
p375
aV775584000.Sat.Jul.30_16_00_00.GMT.1994.argus02.c0.daytimex.rect.hflip.jpg
p376
aV1310572800.Wed.Jul.13_16_00_00.GMT.2011.argus02a.c0.daytimex.rect.hflip.jpg
p377
aV963331200.Tue.Jul.11_16_00_00.GMT.2000.argus02a.c0.daytimex.rect.hflip.jpg
p378
aV1263661200.Sat.Jan.16_17_00_00.GMT.2010.argus02a.c0.daytimex.rect.hflip.jpg
p379
aV1260896400.Tue.Dec.15_17_00_00.GMT.2009.argus02a.c0.daytimex.rect.hflip.jpg
p380
aV741283200.Mon.Jun.28_16_00_00.GMT.1993.argus02.c0.daytimex.rect.hflip.jpg
p381
aV1330966800.Mon.Mar.05_17_00_00.GMT.2012.argus02a.c0.daytimex.rect.hflip.jpg
p382
aV1192464000.Mon.Oct.15_16_00_00.GMT.2007.argus02a.c0.daytimex.rect.hflip.jpg
p383
aV1076518800.Wed.Feb.11_17_00_00.GMT.2004.argus02a.c0.daytimex.rect.hflip.jpg
p384
aV1215100800.Thu.Jul.03_16_00_00.GMT.2008.argus02a.c0.daytimex.rect.hflip.jpg
p385
aV1321462800.Wed.Nov.16_17_00_00.GMT.2011.argus02a.c0.daytimex.rect.hflip.jpg
p386
aV1326560400.Sat.Jan.14_17_00_00.GMT.2012.argus02a.c0.daytimex.rect.hflip.jpg
p387
aV757011600.Mon.Dec.27_17_00_00.GMT.1993.argus02.c0.daytimex.rect.hflip.jpg
p388
aV1329325200.Wed.Feb.15_17_00_00.GMT.2012.argus02a.c0.daytimex.rect.hflip.jpg
p389
aV1322413200.Sun.Nov.27_17_00_00.GMT.2011.argus02a.c0.daytimex.rect.hflip.jpg
p390
aV775152000.Mon.Jul.25_16_00_00.GMT.1994.argus02.c0.daytimex.rect.hflip.jpg
p391
aV1184169600.Wed.Jul.11_16_00_00.GMT.2007.argus02a.c0.daytimex.rect.hflip.jpg
p392
aV1184342400.Fri.Jul.13_16_00_00.GMT.2007.argus02a.c0.daytimex.rect.hflip.jpg
p393
aV1084291200.Tue.May.11_16_00_00.GMT.2004.argus02a.c0.daytimex.rect.hflip.jpg
p394
aV992793600.Sun.Jun.17_16_00_00.GMT.2001.argus02a.c0.daytimex.rect.hflip.jpg
p395
aV992448000.Wed.Jun.13_16_00_00.GMT.2001.argus02a.c0.daytimex.rect.hflip.jpg
p396
aV1165856400.Mon.Dec.11_17_00_00.GMT.2006.argus02a.c0.daytimex.rect.hflip.jpg
p397
aV1189440000.Mon.Sep.10_16_00_00.GMT.2007.argus02a.c0.daytimex.rect.hflip.jpg
p398
aV1310313600.Sun.Jul.10_16_00_00.GMT.2011.argus02a.c0.daytimex.rect.hflip.jpg
p399
aV1061222400.Mon.Aug.18_16_00_00.GMT.2003.argus02a.c0.daytimex.rect.hflip.jpg
p400
aV1180281600.Sun.May.27_16_00_00.GMT.2007.argus02a.c0.daytimex.rect.hflip.jpg
p401
aV994003200.Sun.Jul.01_16_00_00.GMT.2001.argus02a.c0.daytimex.rect.hflip.jpg
p402
aV880045200.Thu.Nov.20_17_00_00.GMT.1997.argus02a.c0.daytimex.rect.hflip.jpg
p403
aV1153238400.Tue.Jul.18_16_00_00.GMT.2006.argus02a.c0.daytimex.rect.hflip.jpg
p404
aV1215705600.Thu.Jul.10_16_00_00.GMT.2008.argus02a.c0.daytimex.rect.hflip.jpg
p405
aV1330621200.Thu.Mar.01_17_00_00.GMT.2012.argus02a.c0.daytimex.rect.hflip.jpg
p406
aV1091721600.Thu.Aug.05_16_00_00.GMT.2004.argus02a.c0.daytimex.rect.hflip.jpg
p407
aV1312387200.Wed.Aug.03_16_00_00.GMT.2011.argus02a.c0.daytimex.rect.hflip.jpg
p408
aV802972800.Mon.Jun.12_16_00_00.GMT.1995.argus02.c0.daytimex.rect.hflip.jpg
p409
aV1084723200.Sun.May.16_16_00_00.GMT.2004.argus02a.c0.daytimex.rect.hflip.jpg
p410
aV1089561600.Sun.Jul.11_16_00_00.GMT.2004.argus02a.c0.daytimex.rect.hflip.jpg
p411
aV934387200.Wed.Aug.11_16_00_00.GMT.1999.argus02a.c0.daytimex.rect.hflip.jpg
p412
aV1197306000.Mon.Dec.10_17_00_00.GMT.2007.argus02a.c0.daytimex.rect.hflip.jpg
p413
aV1287417600.Mon.Oct.18_16_00_00.GMT.2010.argus02a.c0.daytimex.rect.hflip.jpg
p414
aV1197392400.Tue.Dec.11_17_00_00.GMT.2007.argus02a.c0.daytimex.rect.hflip.jpg
p415
aV1161360000.Fri.Oct.20_16_00_00.GMT.2006.argus02a.c0.daytimex.rect.hflip.jpg
p416
aV927648000.Tue.May.25_16_00_00.GMT.1999.argus02a.c0.daytimex.rect.hflip.jpg
p417
aV1190822400.Wed.Sep.26_16_00_00.GMT.2007.argus02a.c0.daytimex.rect.hflip.jpg
p418
aV730486800.Tue.Feb.23_17_00_00.GMT.1993.argus02.c0.daytimex.rect.hflip.jpg
p419
aV1312473600.Thu.Aug.04_16_00_00.GMT.2011.argus02a.c0.daytimex.rect.hflip.jpg
p420
aV1272729600.Sat.May.01_16_00_00.GMT.2010.argus02a.c0.daytimex.rect.hflip.jpg
p421
aV1084982400.Wed.May.19_16_00_00.GMT.2004.argus02a.c0.daytimex.rect.hflip.jpg
p422
aV1330534800.Wed.Feb.29_17_00_00.GMT.2012.argus02a.c0.daytimex.rect.hflip.jpg
p423
aV1091030400.Wed.Jul.28_16_00_00.GMT.2004.argus02a.c0.daytimex.rect.hflip.jpg
p424
aV1194368400.Tue.Nov.06_17_00_00.GMT.2007.argus02a.c0.daytimex.rect.hflip.jpg
p425
aV807724800.Sun.Aug.06_16_00_00.GMT.1995.argus02.c0.daytimex.rect.hflip.jpg
p426
aV1193936400.Thu.Nov.01_17_00_00.GMT.2007.argus02a.c0.daytimex.rect.hflip.jpg
p427
aV1019318400.Sat.Apr.20_16_00_00.GMT.2002.argus02a.c0.daytimex.rect.hflip.jpg
p428
aV739555200.Tue.Jun.08_16_00_00.GMT.1993.argus02.c0.daytimex.rect.hflip.jpg
p429
aV1264611600.Wed.Jan.27_17_00_00.GMT.2010.argus02a.c0.daytimex.rect.hflip.jpg
p430
aV779472000.Tue.Sep.13_16_00_00.GMT.1994.argus02.c0.daytimex.rect.hflip.jpg
p431
aV779212800.Sat.Sep.10_16_00_00.GMT.1994.argus02.c0.daytimex.rect.hflip.jpg
p432
aV1273161600.Thu.May.06_16_00_00.GMT.2010.argus02a.c0.daytimex.rect.hflip.jpg
p433
aV1139590800.Fri.Feb.10_17_00_00.GMT.2006.argus02a.c0.daytimex.rect.hflip.jpg
p434
aV1190563200.Sun.Sep.23_16_00_00.GMT.2007.argus02a.c0.daytimex.rect.hflip.jpg
p435
aV965923200.Thu.Aug.10_16_00_00.GMT.2000.argus02a.c0.daytimex.rect.hflip.jpg
p436
aV1311523200.Sun.Jul.24_16_00_00.GMT.2011.argus02a.c0.daytimex.rect.hflip.jpg
p437
aV1085500800.Tue.May.25_16_00_00.GMT.2004.argus02a.c0.daytimex.rect.hflip.jpg
p438
aV932572800.Wed.Jul.21_16_00_00.GMT.1999.argus02a.c0.daytimex.rect.hflip.jpg
p439
aV932313600.Sun.Jul.18_16_00_00.GMT.1999.argus02a.c0.daytimex.rect.hflip.jpg
p440
aV1150819200.Tue.Jun.20_16_00_00.GMT.2006.argus02a.c0.daytimex.rect.hflip.jpg
p441
aV838224000.Wed.Jul.24_16_00_00.GMT.1996.argus02.c0.daytimex.rect.hflip.jpg
p442
aV1311955200.Fri.Jul.29_16_00_00.GMT.2011.argus02a.c0.daytimex.rect.hflip.jpg
p443
aV835372800.Fri.Jun.21_16_00_00.GMT.1996.argus02.c0.daytimex.rect.hflip.jpg
p444
aV1042131600.Thu.Jan.09_17_00_00.GMT.2003.argus02a.c0.daytimex.rect.hflip.jpg
p445
aV738691200.Sat.May.29_16_00_00.GMT.1993.argus02.c0.daytimex.rect.hflip.jpg
p446
aV1185984000.Wed.Aug.01_16_00_00.GMT.2007.argus02a.c0.daytimex.rect.hflip.jpg
p447
aV1409846400.Thu.Sep.04_16_00_00.GMT.2014.argus02a.c0.daytimex.rect.hflip.jpg
p448
aV1145116800.Sat.Apr.15_16_00_00.GMT.2006.argus02a.c0.daytimex.rect.hflip.jpg
p449
aV1178121600.Wed.May.02_16_00_00.GMT.2007.argus02a.c0.daytimex.rect.hflip.jpg
p450
aV1216224000.Wed.Jul.16_16_00_00.GMT.2008.argus02a.c0.daytimex.rect.hflip.jpg
p451
aV1058803200.Mon.Jul.21_16_00_00.GMT.2003.argus02a.c0.daytimex.rect.hflip.jpg
p452
aV868204800.Sun.Jul.06_16_00_00.GMT.1997.argus02.c0.daytimex.rect.hflip.jpg
p453
aV1356454800.Tue.Dec.25_17_00_00.GMT.2012.argus02a.c0.daytimex.rect.hflip.jpg
p454
aV871920000.Mon.Aug.18_16_00_00.GMT.1997.argus02.c0.daytimex.rect.hflip.jpg
p455
aV824749200.Mon.Feb.19_17_00_00.GMT.1996.argus02.c0.daytimex.rect.hflip.jpg
p456
aV838396800.Fri.Jul.26_16_00_00.GMT.1996.argus02.c0.daytimex.rect.hflip.jpg
p457
aV965059200.Mon.Jul.31_16_00_00.GMT.2000.argus02a.c0.daytimex.rect.hflip.jpg
p458
aV1065542400.Tue.Oct.07_16_00_00.GMT.2003.argus02a.c0.daytimex.rect.hflip.jpg
p459
aV843062400.Wed.Sep.18_16_00_00.GMT.1996.argus02.c0.daytimex.rect.hflip.jpg
p460
aV832608000.Mon.May.20_16_00_00.GMT.1996.argus02.c0.daytimex.rect.hflip.jpg
p461
aV1122566400.Thu.Jul.28_16_00_00.GMT.2005.argus02a.c0.daytimex.rect.hflip.jpg
p462
aV1340726400.Tue.Jun.26_16_00_00.GMT.2012.argus02a.c0.daytimex.rect.hflip.jpg
p463
aV1216396800.Fri.Jul.18_16_00_00.GMT.2008.argus02a.c0.daytimex.rect.hflip.jpg
p464
aV864489600.Sat.May.24_16_00_00.GMT.1997.argus02.c0.daytimex.rect.hflip.jpg
p465
aV1336752000.Fri.May.11_16_00_00.GMT.2012.argus02a.c0.daytimex.rect.hflip.jpg
p466
aV960566400.Fri.Jun.09_16_00_00.GMT.2000.argus02a.c0.daytimex.rect.hflip.jpg
p467
aV1356282000.Sun.Dec.23_17_00_00.GMT.2012.argus02a.c0.daytimex.rect.hflip.jpg
p468
aV1125590400.Thu.Sep.01_16_00_00.GMT.2005.argus02a.c0.daytimex.rect.hflip.jpg
p469
aV1352221200.Tue.Nov.06_17_00_00.GMT.2012.argus02a.c0.daytimex.rect.hflip.jpg
p470
aV963417600.Wed.Jul.12_16_00_00.GMT.2000.argus02a.c0.daytimex.rect.hflip.jpg
p471
aV872611200.Tue.Aug.26_16_00_00.GMT.1997.argus02.c0.daytimex.rect.hflip.jpg
p472
aV1345564800.Tue.Aug.21_16_00_00.GMT.2012.argus02a.c0.daytimex.rect.hflip.jpg
p473
aV984934800.Sun.Mar.18_17_00_00.GMT.2001.argus02a.c0.daytimex.rect.hflip.jpg
p474
aV1210176000.Wed.May.07_16_00_00.GMT.2008.argus02a.c0.daytimex.rect.hflip.jpg
p475
aV1323882000.Wed.Dec.14_17_00_00.GMT.2011.argus02a.c0.daytimex.rect.hflip.jpg
p476
aV898531200.Mon.Jun.22_16_00_00.GMT.1998.argus02a.c0.daytimex.rect.hflip.jpg
p477
aV832435200.Sat.May.18_16_00_00.GMT.1996.argus02.c0.daytimex.rect.hflip.jpg
p478
aV749750400.Mon.Oct.04_16_00_00.GMT.1993.argus02.c0.daytimex.rect.hflip.jpg
p479
aV1006275600.Tue.Nov.20_17_00_00.GMT.2001.argus02a.c0.daytimex.rect.hflip.jpg
p480
aV991584000.Sun.Jun.03_16_00_00.GMT.2001.argus02a.c0.daytimex.rect.hflip.jpg
p481
aV985539600.Sun.Mar.25_17_00_00.GMT.2001.argus02a.c0.daytimex.rect.hflip.jpg
p482
aV837446400.Mon.Jul.15_16_00_00.GMT.1996.argus02.c0.daytimex.rect.hflip.jpg
p483
aV995385600.Tue.Jul.17_16_00_00.GMT.2001.argus02a.c0.daytimex.rect.hflip.jpg
p484
aV1343664000.Mon.Jul.30_16_00_00.GMT.2012.argus02a.c0.daytimex.rect.hflip.jpg
p485
aV1362502800.Tue.Mar.05_17_00_00.GMT.2013.argus02a.c0.daytimex.rect.hflip.jpg
p486
aV1249315200.Mon.Aug.03_16_00_00.GMT.2009.argus02a.c0.daytimex.rect.hflip.jpg
p487
aV843926400.Sat.Sep.28_16_00_00.GMT.1996.argus02.c0.daytimex.rect.hflip.jpg
p488
aV1379260800.Sun.Sep.15_16_00_00.GMT.2013.argus02a.c0.daytimex.rect.hflip.jpg
p489
aV980096400.Sun.Jan.21_17_00_00.GMT.2001.argus02a.c0.daytimex.rect.hflip.jpg
p490
aV827427600.Thu.Mar.21_17_00_00.GMT.1996.argus02.c0.daytimex.rect.hflip.jpg
p491
aV745257600.Fri.Aug.13_16_00_00.GMT.1993.argus02.c0.daytimex.rect.hflip.jpg
p492
aV964972800.Sun.Jul.30_16_00_00.GMT.2000.argus02a.c0.daytimex.rect.hflip.jpg
p493
aV1407945600.Wed.Aug.13_16_00_00.GMT.2014.argus02a.c0.daytimex.rect.hflip.jpg
p494
aV1248624000.Sun.Jul.26_16_00_00.GMT.2009.argus02a.c0.daytimex.rect.hflip.jpg
p495
aV832348800.Fri.May.17_16_00_00.GMT.1996.argus02.c0.daytimex.rect.hflip.jpg
p496
aV1250784000.Thu.Aug.20_16_00_00.GMT.2009.argus02a.c0.daytimex.rect.hflip.jpg
p497
aV839952000.Tue.Aug.13_16_00_00.GMT.1996.argus02.c0.daytimex.rect.hflip.jpg
p498
aV1343750400.Tue.Jul.31_16_00_00.GMT.2012.argus02a.c0.daytimex.rect.hflip.jpg
p499
aV1003507200.Fri.Oct.19_16_00_00.GMT.2001.argus02a.c0.daytimex.rect.hflip.jpg
p500
aV1214755200.Sun.Jun.29_16_00_00.GMT.2008.argus02a.c0.daytimex.rect.hflip.jpg
p501
aV1002902400.Fri.Oct.12_16_00_00.GMT.2001.argus02a.c0.daytimex.rect.hflip.jpg
p502
aV1094227200.Fri.Sep.03_16_00_00.GMT.2004.argus02a.c0.daytimex.rect.hflip.jpg
p503
aV842198400.Sun.Sep.08_16_00_00.GMT.1996.argus02.c0.daytimex.rect.hflip.jpg
p504
aV746035200.Sun.Aug.22_16_00_00.GMT.1993.argus02.c0.daytimex.rect.hflip.jpg
p505
aV840297600.Sat.Aug.17_16_00_00.GMT.1996.argus02.c0.daytimex.rect.hflip.jpg
p506
aV1055606400.Sat.Jun.14_16_00_00.GMT.2003.argus02a.c0.daytimex.rect.hflip.jpg
p507
aV1005325200.Fri.Nov.09_17_00_00.GMT.2001.argus02a.c0.daytimex.rect.hflip.jpg
p508
aV1356714000.Fri.Dec.28_17_00_00.GMT.2012.argus02a.c0.daytimex.rect.hflip.jpg
p509
aV870796800.Tue.Aug.05_16_00_00.GMT.1997.argus02.c0.daytimex.rect.hflip.jpg
p510
aV1333468800.Tue.Apr.03_16_00_00.GMT.2012.argus02a.c0.daytimex.rect.hflip.jpg
p511
aV965577600.Sun.Aug.06_16_00_00.GMT.2000.argus02a.c0.daytimex.rect.hflip.jpg
p512
aV1283184000.Mon.Aug.30_16_00_00.GMT.2010.argus02a.c0.daytimex.rect.hflip.jpg
p513
aV1343145600.Tue.Jul.24_16_00_00.GMT.2012.argus02a.c0.daytimex.rect.hflip.jpg
p514
aV842976000.Tue.Sep.17_16_00_00.GMT.1996.argus02.c0.daytimex.rect.hflip.jpg
p515
aV871747200.Sat.Aug.16_16_00_00.GMT.1997.argus02.c0.daytimex.rect.hflip.jpg
p516
aV1333126800.Fri.Mar.30_17_00_00.GMT.2012.argus02a.c0.daytimex.rect.hflip.jpg
p517
aV1354899600.Fri.Dec.07_17_00_00.GMT.2012.argus02a.c0.daytimex.rect.hflip.jpg
p518
aV784746000.Sun.Nov.13_17_00_00.GMT.1994.argus02.c0.daytimex.rect.hflip.jpg
p519
aV1354813200.Thu.Dec.06_17_00_00.GMT.2012.argus02a.c0.daytimex.rect.hflip.jpg
p520
aV1164819600.Wed.Nov.29_17_00_00.GMT.2006.argus02a.c0.daytimex.rect.hflip.jpg
p521
aV1156867200.Tue.Aug.29_16_00_00.GMT.2006.argus02a.c0.daytimex.rect.hflip.jpg
p522
aV966873600.Mon.Aug.21_16_00_00.GMT.2000.argus02a.c0.daytimex.rect.hflip.jpg
p523
aV1049216400.Tue.Apr.01_17_00_00.GMT.2003.argus02a.c0.daytimex.rect.hflip.jpg
p524
aV1334160000.Wed.Apr.11_16_00_00.GMT.2012.argus02a.c0.daytimex.rect.hflip.jpg
p525
aV1381593600.Sat.Oct.12_16_00_00.GMT.2013.argus02a.c0.daytimex.rect.hflip.jpg
p526
aV1401552000.Sat.May.31_16_00_00.GMT.2014.argus02a.c0.daytimex.rect.hflip.jpg
p527
aV1098892800.Wed.Oct.27_16_00_00.GMT.2004.argus02a.c0.daytimex.rect.hflip.jpg
p528
aV1373644800.Fri.Jul.12_16_00_00.GMT.2013.argus02a.c0.daytimex.rect.hflip.jpg
p529
aV1337616000.Mon.May.21_16_00_00.GMT.2012.argus02a.c0.daytimex.rect.hflip.jpg
p530
aV1030809600.Sat.Aug.31_16_00_00.GMT.2002.argus02a.c0.daytimex.rect.hflip.jpg
p531
aV1096646400.Fri.Oct.01_16_00_00.GMT.2004.argus02a.c0.daytimex.rect.hflip.jpg
p532
aV888166800.Sun.Feb.22_17_00_00.GMT.1998.argus02a.c0.daytimex.rect.hflip.jpg
p533
aV1069693200.Mon.Nov.24_17_00_00.GMT.2003.argus02a.c0.daytimex.rect.hflip.jpg
p534
aV1031414400.Sat.Sep.07_16_00_00.GMT.2002.argus02a.c0.daytimex.rect.hflip.jpg
p535
aV1378483200.Fri.Sep.06_16_00_00.GMT.2013.argus02a.c0.daytimex.rect.hflip.jpg
p536
aV1030809600.Sat.Aug.31_16_00_00.GMT.2002.argus02a.c0.daytimex.rect.hflip.jpg
p537
aV873216000.Tue.Sep.02_16_00_00.GMT.1997.argus02.c0.daytimex.rect.hflip.jpg
p538
aV1247068800.Wed.Jul.08_16_00_00.GMT.2009.argus02a.c0.daytimex.rect.hflip.jpg
p539
aV801676800.Sun.May.28_16_00_00.GMT.1995.argus02.c0.daytimex.rect.hflip.jpg
p540
aV1097596800.Tue.Oct.12_16_00_00.GMT.2004.argus02a.c0.daytimex.rect.hflip.jpg
p541
aV1358787600.Mon.Jan.21_17_00_00.GMT.2013.argus02a.c0.daytimex.rect.hflip.jpg
p542
aV1211040000.Sat.May.17_16_00_00.GMT.2008.argus02a.c0.daytimex.rect.hflip.jpg
p543
aV1097337600.Sat.Oct.09_16_00_00.GMT.2004.argus02a.c0.daytimex.rect.hflip.jpg
p544
aV1081699200.Sun.Apr.11_16_00_00.GMT.2004.argus02a.c0.daytimex.rect.hflip.jpg
p545
aV1380643200.Tue.Oct.01_16_00_00.GMT.2013.argus02a.c0.daytimex.rect.hflip.jpg
p546
aV1121011200.Sun.Jul.10_16_00_00.GMT.2005.argus02a.c0.daytimex.rect.hflip.jpg
p547
aV971798400.Tue.Oct.17_16_00_00.GMT.2000.argus02a.c0.daytimex.rect.hflip.jpg
p548
aV1404403200.Thu.Jul.03_16_00_00.GMT.2014.argus02a.c0.daytimex.rect.hflip.jpg
p549
aV896630400.Sun.May.31_16_00_00.GMT.1998.argus02a.c0.daytimex.rect.hflip.jpg
p550
aV1009818000.Mon.Dec.31_17_00_00.GMT.2001.argus02a.c0.daytimex.rect.hflip.jpg
p551
aV1023379200.Thu.Jun.06_16_00_00.GMT.2002.argus02a.c0.daytimex.rect.hflip.jpg
p552
aV1358960400.Wed.Jan.23_17_00_00.GMT.2013.argus02a.c0.daytimex.rect.hflip.jpg
p553
aV1119801600.Sun.Jun.26_16_00_00.GMT.2005.argus02a.c0.daytimex.rect.hflip.jpg
p554
aV1115308800.Thu.May.05_16_00_00.GMT.2005.argus02a.c0.daytimex.rect.hflip.jpg
p555
aV867340800.Thu.Jun.26_16_00_00.GMT.1997.argus02.c0.daytimex.rect.hflip.jpg
p556
aV856976400.Wed.Feb.26_17_00_00.GMT.1997.argus02.c0.daytimex.rect.hflip.jpg
p557
aV738000000.Fri.May.21_16_00_00.GMT.1993.argus02.c0.daytimex.rect.hflip.jpg
p558
aV902246400.Tue.Aug.04_16_00_00.GMT.1998.argus02a.c0.daytimex.rect.hflip.jpg
p559
aV1122048000.Fri.Jul.22_16_00_00.GMT.2005.argus02a.c0.daytimex.rect.hflip.jpg
p560
aV1019836800.Fri.Apr.26_16_00_00.GMT.2002.argus02a.c0.daytimex.rect.hflip.jpg
p561
aV1335024000.Sat.Apr.21_16_00_00.GMT.2012.argus02a.c0.daytimex.rect.hflip.jpg
p562
aV1401379200.Thu.May.29_16_00_00.GMT.2014.argus02a.c0.daytimex.rect.hflip.jpg
p563
aV1339257600.Sat.Jun.09_16_00_00.GMT.2012.argus02a.c0.daytimex.rect.hflip.jpg
p564
aV1373731200.Sat.Jul.13_16_00_00.GMT.2013.argus02a.c0.daytimex.rect.hflip.jpg
p565
aV896889600.Wed.Jun.03_16_00_00.GMT.1998.argus02a.c0.daytimex.rect.hflip.jpg
p566
aV740246400.Wed.Jun.16_16_00_00.GMT.1993.argus02.c0.daytimex.rect.hflip.jpg
p567
aV1377014400.Tue.Aug.20_16_00_00.GMT.2013.argus02a.c0.daytimex.rect.hflip.jpg
p568
aV1358787600.Mon.Jan.21_17_00_00.GMT.2013.argus02a.c0.daytimex.rect.hflip.jpg
p569
aV1023465600.Fri.Jun.07_16_00_00.GMT.2002.argus02a.c0.daytimex.rect.hflip.jpg
p570
aV740332800.Thu.Jun.17_16_00_00.GMT.1993.argus02.c0.daytimex.rect.hflip.jpg
p571
aV805219200.Sat.Jul.08_16_00_00.GMT.1995.argus02.c0.daytimex.rect.hflip.jpg
p572
aV900432000.Tue.Jul.14_16_00_00.GMT.1998.argus02a.c0.daytimex.rect.hflip.jpg
p573
aV896457600.Fri.May.29_16_00_00.GMT.1998.argus02a.c0.daytimex.rect.hflip.jpg
p574
aV1379088000.Fri.Sep.13_16_00_00.GMT.2013.argus02a.c0.daytimex.rect.hflip.jpg
p575
aV958147200.Fri.May.12_16_00_00.GMT.2000.argus02a.c0.daytimex.rect.hflip.jpg
p576
aV736531200.Tue.May.04_16_00_00.GMT.1993.argus02.c0.daytimex.rect.hflip.jpg
p577
aV958665600.Thu.May.18_16_00_00.GMT.2000.argus02a.c0.daytimex.rect.hflip.jpg
p578
aV1014742800.Tue.Feb.26_17_00_00.GMT.2002.argus02a.c0.daytimex.rect.hflip.jpg
p579
aV954608400.Sat.Apr.01_17_00_00.GMT.2000.argus02a.c0.daytimex.rect.hflip.jpg
p580
aV1095523200.Sat.Sep.18_16_00_00.GMT.2004.argus02a.c0.daytimex.rect.hflip.jpg
p581
aV1113840000.Mon.Apr.18_16_00_00.GMT.2005.argus02a.c0.daytimex.rect.hflip.jpg
p582
aV1401897600.Wed.Jun.04_16_00_00.GMT.2014.argus02a.c0.daytimex.rect.hflip.jpg
p583
aV910803600.Wed.Nov.11_17_00_00.GMT.1998.argus02a.c0.daytimex.rect.hflip.jpg
p584
aV1383411600.Sat.Nov.02_17_00_00.GMT.2013.argus02a.c0.daytimex.rect.hflip.jpg
p585
aV860515200.Tue.Apr.08_16_00_00.GMT.1997.argus02.c0.daytimex.rect.hflip.jpg
p586
aV1031328000.Fri.Sep.06_16_00_00.GMT.2002.argus02a.c0.daytimex.rect.hflip.jpg
p587
aV1114012800.Wed.Apr.20_16_00_00.GMT.2005.argus02a.c0.daytimex.rect.hflip.jpg
p588
aV1382198400.Sat.Oct.19_16_00_00.GMT.2013.argus02a.c0.daytimex.rect.hflip.jpg
p589
aV1253721600.Wed.Sep.23_16_00_00.GMT.2009.argus02a.c0.daytimex.rect.hflip.jpg
p590
aV1247760000.Thu.Jul.16_16_00_00.GMT.2009.argus02a.c0.daytimex.rect.hflip.jpg
p591
aV1255276800.Sun.Oct.11_16_00_00.GMT.2009.argus02a.c0.daytimex.rect.hflip.jpg
p592
aV1080752400.Wed.Mar.31_17_00_00.GMT.2004.argus02a.c0.daytimex.rect.hflip.jpg
p593
aV1336060800.Thu.May.03_16_00_00.GMT.2012.argus02a.c0.daytimex.rect.hflip.jpg
p594
aV1008349200.Fri.Dec.14_17_00_00.GMT.2001.argus02a.c0.daytimex.rect.hflip.jpg
p595
aV1383843600.Thu.Nov.07_17_00_00.GMT.2013.argus02a.c0.daytimex.rect.hflip.jpg
p596
aV739296000.Sat.Jun.05_16_00_00.GMT.1993.argus02.c0.daytimex.rect.hflip.jpg
p597
aV1401120000.Mon.May.26_16_00_00.GMT.2014.argus02a.c0.daytimex.rect.hflip.jpg
p598
aV1400515200.Mon.May.19_16_00_00.GMT.2014.argus02a.c0.daytimex.rect.hflip.jpg
p599
aV1355590800.Sat.Dec.15_17_00_00.GMT.2012.argus02a.c0.daytimex.rect.hflip.jpg
p600
aV1226250000.Sun.Nov.09_17_00_00.GMT.2008.argus02a.c0.daytimex.rect.hflip.jpg
p601
aV796410000.Tue.Mar.28_17_00_00.GMT.1995.argus02.c0.daytimex.rect.hflip.jpg
p602
aV1226422800.Tue.Nov.11_17_00_00.GMT.2008.argus02a.c0.daytimex.rect.hflip.jpg
p603
aV1338480000.Thu.May.31_16_00_00.GMT.2012.argus02a.c0.daytimex.rect.hflip.jpg
p604
aV1337875200.Thu.May.24_16_00_00.GMT.2012.argus02a.c0.daytimex.rect.hflip.jpg
p605
aV1388509200.Tue.Dec.31_17_00_00.GMT.2013.argus02a.c0.daytimex.rect.hflip.jpg
p606
aV1101229200.Tue.Nov.23_17_00_00.GMT.2004.argus02a.c0.daytimex.rect.hflip.jpg
p607
aV1233248400.Thu.Jan.29_17_00_00.GMT.2009.argus02a.c0.daytimex.rect.hflip.jpg
p608
aV813340800.Tue.Oct.10_16_00_00.GMT.1995.argus02.c0.daytimex.rect.hflip.jpg
p609
aV1265648400.Mon.Feb.08_17_00_00.GMT.2010.argus02a.c0.daytimex.rect.hflip.jpg
p610
aV1284393600.Mon.Sep.13_16_00_00.GMT.2010.argus02a.c0.daytimex.rect.hflip.jpg
p611
aV1233421200.Sat.Jan.31_17_00_00.GMT.2009.argus02a.c0.daytimex.rect.hflip.jpg
p612
aV1127318400.Wed.Sep.21_16_00_00.GMT.2005.argus02a.c0.daytimex.rect.hflip.jpg
p613
aV1396972800.Tue.Apr.08_16_00_00.GMT.2014.argus02a.c0.daytimex.rect.hflip.jpg
p614
aV1272297600.Mon.Apr.26_16_00_00.GMT.2010.argus02a.c0.daytimex.rect.hflip.jpg
p615
aV1305561600.Mon.May.16_16_00_00.GMT.2011.argus02a.c0.daytimex.rect.hflip.jpg
p616
aV1294160400.Tue.Jan.04_17_00_00.GMT.2011.argus02a.c0.daytimex.rect.hflip.jpg
p617
aV1226163600.Sat.Nov.08_17_00_00.GMT.2008.argus02a.c0.daytimex.rect.hflip.jpg
p618
aV1023897600.Wed.Jun.12_16_00_00.GMT.2002.argus02a.c0.daytimex.rect.hflip.jpg
p619
aV1395594000.Sun.Mar.23_17_00_00.GMT.2014.argus02a.c0.daytimex.rect.hflip.jpg
p620
aV1338566400.Fri.Jun.01_16_00_00.GMT.2012.argus02a.c0.daytimex.rect.hflip.jpg
p621
aV1293642000.Wed.Dec.29_17_00_00.GMT.2010.argus02a.c0.daytimex.rect.hflip.jpg
p622
aV1397577600.Tue.Apr.15_16_00_00.GMT.2014.argus02a.c0.daytimex.rect.hflip.jpg
p623
aV1139677200.Sat.Feb.11_17_00_00.GMT.2006.argus02a.c0.daytimex.rect.hflip.jpg
p624
aV1391274000.Sat.Feb.01_17_00_00.GMT.2014.argus02a.c0.daytimex.rect.hflip.jpg
p625
aV1235235600.Sat.Feb.21_17_00_00.GMT.2009.argus02a.c0.daytimex.rect.hflip.jpg
p626
aV1256576400.Mon.Oct.26_17_00_00.GMT.2009.argus02a.c0.daytimex.rect.hflip.jpg
p627
aV1175360400.Sat.Mar.31_17_00_00.GMT.2007.argus02a.c0.daytimex.rect.hflip.jpg
p628
aV799084800.Fri.Apr.28_16_00_00.GMT.1995.argus02.c0.daytimex.rect.hflip.jpg
p629
aV1307116800.Fri.Jun.03_16_00_00.GMT.2011.argus02a.c0.daytimex.rect.hflip.jpg
p630
aV1015693200.Sat.Mar.09_17_00_00.GMT.2002.argus02a.c0.daytimex.rect.hflip.jpg
p631
aV1291741200.Tue.Dec.07_17_00_00.GMT.2010.argus02a.c0.daytimex.rect.hflip.jpg
p632
aV1411142400.Fri.Sep.19_16_00_00.GMT.2014.argus02a.c0.daytimex.rect.hflip.jpg
p633
aV1014310800.Thu.Feb.21_17_00_00.GMT.2002.argus02a.c0.daytimex.rect.hflip.jpg
p634
aV1396198800.Sun.Mar.30_17_00_00.GMT.2014.argus02a.c0.daytimex.rect.hflip.jpg
p635
aV1385139600.Fri.Nov.22_17_00_00.GMT.2013.argus02a.c0.daytimex.rect.hflip.jpg
p636
aV1068570000.Tue.Nov.11_17_00_00.GMT.2003.argus02a.c0.daytimex.rect.hflip.jpg
p637
aV1233421200.Sat.Jan.31_17_00_00.GMT.2009.argus02a.c0.daytimex.rect.hflip.jpg
p638
aV1135702800.Tue.Dec.27_17_00_00.GMT.2005.argus02a.c0.daytimex.rect.hflip.jpg
p639
aV1256054400.Tue.Oct.20_16_00_00.GMT.2009.argus02a.c0.daytimex.rect.hflip.jpg
p640
aV1072026000.Sun.Dec.21_17_00_00.GMT.2003.argus02a.c0.daytimex.rect.hflip.jpg
p641
aV1103043600.Tue.Dec.14_17_00_00.GMT.2004.argus02a.c0.daytimex.rect.hflip.jpg
p642
aV1252771200.Sat.Sep.12_16_00_00.GMT.2009.argus02a.c0.daytimex.rect.hflip.jpg
p643
aV1285603200.Mon.Sep.27_16_00_00.GMT.2010.argus02a.c0.daytimex.rect.hflip.jpg
p644
aV809798400.Wed.Aug.30_16_00_00.GMT.1995.argus02.c0.daytimex.rect.hflip.jpg
p645
aV1243526400.Thu.May.28_16_00_00.GMT.2009.argus02a.c0.daytimex.rect.hflip.jpg
p646
aV1234285200.Tue.Feb.10_17_00_00.GMT.2009.argus02a.c0.daytimex.rect.hflip.jpg
p647
aV1226336400.Mon.Nov.10_17_00_00.GMT.2008.argus02a.c0.daytimex.rect.hflip.jpg
p648
aV1393347600.Tue.Feb.25_17_00_00.GMT.2014.argus02a.c0.daytimex.rect.hflip.jpg
p649
aV920134800.Sat.Feb.27_17_00_00.GMT.1999.argus02a.c0.daytimex.rect.hflip.jpg
p650
aV788893200.Sat.Dec.31_17_00_00.GMT.1994.argus02.c0.daytimex.rect.hflip.jpg
p651
aV924451200.Sun.Apr.18_16_00_00.GMT.1999.argus02a.c0.daytimex.rect.hflip.jpg
p652
aV905097600.Sun.Sep.06_16_00_00.GMT.1998.argus02a.c0.daytimex.rect.hflip.jpg
p653
aV1409068800.Tue.Aug.26_16_00_00.GMT.2014.argus02a.c0.daytimex.rect.hflip.jpg
p654
aV1385917200.Sun.Dec.01_17_00_00.GMT.2013.argus02a.c0.daytimex.rect.hflip.jpg
p655
aV1235235600.Sat.Feb.21_17_00_00.GMT.2009.argus02a.c0.daytimex.rect.hflip.jpg
p656
aV1255449600.Tue.Oct.13_16_00_00.GMT.2009.argus02a.c0.daytimex.rect.hflip.jpg
p657
aV809539200.Sun.Aug.27_16_00_00.GMT.1995.argus02.c0.daytimex.rect.hflip.jpg
p658
aV1337616000.Mon.May.21_16_00_00.GMT.2012.argus02a.c0.daytimex.rect.hflip.jpg
p659
aV1177344000.Mon.Apr.23_16_00_00.GMT.2007.argus02a.c0.daytimex.rect.hflip.jpg
p660
aV809366400.Fri.Aug.25_16_00_00.GMT.1995.argus02.c0.daytimex.rect.hflip.jpg
p661
aV1359306000.Sun.Jan.27_17_00_00.GMT.2013.argus02a.c0.daytimex.rect.hflip.jpg
p662
aV1072630800.Sun.Dec.28_17_00_00.GMT.2003.argus02a.c0.daytimex.rect.hflip.jpg
p663
aV1233248400.Thu.Jan.29_17_00_00.GMT.2009.argus02a.c0.daytimex.rect.hflip.jpg
p664
aV1416157200.Sun.Nov.16_17_00_00.GMT.2014.argus02a.c0.daytimex.rect.hflip.jpg
p665
aV1386176400.Wed.Dec.04_17_00_00.GMT.2013.argus02a.c0.daytimex.rect.hflip.jpg
p666
aV1032624000.Sat.Sep.21_16_00_00.GMT.2002.argus02a.c0.daytimex.rect.hflip.jpg
p667
aV1036170000.Fri.Nov.01_17_00_00.GMT.2002.argus02a.c0.daytimex.rect.hflip.jpg
p668
aV1385226000.Sat.Nov.23_17_00_00.GMT.2013.argus02a.c0.daytimex.rect.hflip.jpg
p669
aV1100710800.Wed.Nov.17_17_00_00.GMT.2004.argus02a.c0.daytimex.rect.hflip.jpg
p670
aV1293814800.Fri.Dec.31_17_00_00.GMT.2010.argus02a.c0.daytimex.rect.hflip.jpg
p671
aV1024070400.Fri.Jun.14_16_00_00.GMT.2002.argus02a.c0.daytimex.rect.hflip.jpg
p672
aV796064400.Fri.Mar.24_17_00_00.GMT.1995.argus02.c0.daytimex.rect.hflip.jpg
p673
aV1118073600.Mon.Jun.06_16_00_00.GMT.2005.argus02a.c0.daytimex.rect.hflip.jpg
p674
aV1178294400.Fri.May.04_16_00_00.GMT.2007.argus02a.c0.daytimex.rect.hflip.jpg
p675
aV780249600.Thu.Sep.22_16_00_00.GMT.1994.argus02.c0.daytimex.rect.hflip.jpg
p676
aV755888400.Tue.Dec.14_17_00_00.GMT.1993.argus02.c0.daytimex.rect.hflip.jpg
p677
aV1308067200.Tue.Jun.14_16_00_00.GMT.2011.argus02a.c0.daytimex.rect.hflip.jpg
p678
aV1181836800.Thu.Jun.14_16_00_00.GMT.2007.argus02a.c0.daytimex.rect.hflip.jpg
p679
aV1387645200.Sat.Dec.21_17_00_00.GMT.2013.argus02a.c0.daytimex.rect.hflip.jpg
p680
aV1038416400.Wed.Nov.27_17_00_00.GMT.2002.argus02a.c0.daytimex.rect.hflip.jpg
p681
aV1029513600.Fri.Aug.16_16_00_00.GMT.2002.argus02a.c0.daytimex.rect.hflip.jpg
p682
aV873475200.Fri.Sep.05_16_00_00.GMT.1997.argus02.c0.daytimex.rect.hflip.jpg
p683
aV1350057600.Fri.Oct.12_16_00_00.GMT.2012.argus02a.c0.daytimex.rect.hflip.jpg
p684
aV1298394000.Tue.Feb.22_17_00_00.GMT.2011.argus02a.c0.daytimex.rect.hflip.jpg
p685
aV755974800.Wed.Dec.15_17_00_00.GMT.1993.argus02.c0.daytimex.rect.hflip.jpg
p686
aV1169312400.Sat.Jan.20_17_00_00.GMT.2007.argus02a.c0.daytimex.rect.hflip.jpg
p687
aV769190400.Tue.May.17_16_00_00.GMT.1994.argus02.c0.daytimex.rect.hflip.jpg
p688
aV1285689600.Tue.Sep.28_16_00_00.GMT.2010.argus02a.c0.daytimex.rect.hflip.jpg
p689
aV1293210000.Fri.Dec.24_17_00_00.GMT.2010.argus02a.c0.daytimex.rect.hflip.jpg
p690
aV793213200.Sun.Feb.19_17_00_00.GMT.1995.argus02.c0.daytimex.rect.hflip.jpg
p691
aV819738000.Sat.Dec.23_17_00_00.GMT.1995.argus02.c0.daytimex.rect.hflip.jpg
p692
aV1304611200.Thu.May.05_16_00_00.GMT.2011.argus02a.c0.daytimex.rect.hflip.jpg
p693
aV1071248400.Fri.Dec.12_17_00_00.GMT.2003.argus02a.c0.daytimex.rect.hflip.jpg
p694
aV1232816400.Sat.Jan.24_17_00_00.GMT.2009.argus02a.c0.daytimex.rect.hflip.jpg
p695
aV1409587200.Mon.Sep.01_16_00_00.GMT.2014.argus02a.c0.daytimex.rect.hflip.jpg
p696
aV923328000.Mon.Apr.05_16_00_00.GMT.1999.argus02a.c0.daytimex.rect.hflip.jpg
p697
aV1137690000.Thu.Jan.19_17_00_00.GMT.2006.argus02a.c0.daytimex.rect.hflip.jpg
p698
aV1132160400.Wed.Nov.16_17_00_00.GMT.2005.argus02a.c0.daytimex.rect.hflip.jpg
p699
aV1251820800.Tue.Sep.01_16_00_00.GMT.2009.argus02a.c0.daytimex.rect.hflip.jpg
p700
aV1166547600.Tue.Dec.19_17_00_00.GMT.2006.argus02a.c0.daytimex.rect.hflip.jpg
p701
aV817923600.Sat.Dec.02_17_00_00.GMT.1995.argus02.c0.daytimex.rect.hflip.jpg
p702
aV966182400.Sun.Aug.13_16_00_00.GMT.2000.argus02a.c0.daytimex.rect.hflip.jpg
p703
aV1072285200.Wed.Dec.24_17_00_00.GMT.2003.argus02a.c0.daytimex.rect.hflip.jpg
p704
aV1169485200.Mon.Jan.22_17_00_00.GMT.2007.argus02a.c0.daytimex.rect.hflip.jpg
p705
aV847386000.Thu.Nov.07_17_00_00.GMT.1996.argus02.c0.daytimex.rect.hflip.jpg
p706
aV1413820800.Mon.Oct.20_16_00_00.GMT.2014.argus02a.c0.daytimex.rect.hflip.jpg
p707
aV817059600.Wed.Nov.22_17_00_00.GMT.1995.argus02.c0.daytimex.rect.hflip.jpg
p708
aV791139600.Thu.Jan.26_17_00_00.GMT.1995.argus02.c0.daytimex.rect.hflip.jpg
p709
aV769708800.Mon.May.23_16_00_00.GMT.1994.argus02.c0.daytimex.rect.hflip.jpg
p710
aV1197565200.Thu.Dec.13_17_00_00.GMT.2007.argus02a.c0.daytimex.rect.hflip.jpg
p711
aV768844800.Fri.May.13_16_00_00.GMT.1994.argus02.c0.daytimex.rect.hflip.jpg
p712
aV1193500800.Sat.Oct.27_16_00_00.GMT.2007.argus02a.c0.daytimex.rect.hflip.jpg
p713
aV1141405200.Fri.Mar.03_17_00_00.GMT.2006.argus02a.c0.daytimex.rect.hflip.jpg
p714
aV1075914000.Wed.Feb.04_17_00_00.GMT.2004.argus02a.c0.daytimex.rect.hflip.jpg
p715
aV1103821200.Thu.Dec.23_17_00_00.GMT.2004.argus02a.c0.daytimex.rect.hflip.jpg
p716
aV1298307600.Mon.Feb.21_17_00_00.GMT.2011.argus02a.c0.daytimex.rect.hflip.jpg
p717
aV807984000.Wed.Aug.09_16_00_00.GMT.1995.argus02.c0.daytimex.rect.hflip.jpg
p718
aV915642000.Wed.Jan.06_17_00_00.GMT.1999.argus02a.c0.daytimex.rect.hflip.jpg
p719
aV778176000.Mon.Aug.29_16_00_00.GMT.1994.argus02.c0.daytimex.rect.hflip.jpg
p720
aV1304438400.Tue.May.03_16_00_00.GMT.2011.argus02a.c0.daytimex.rect.hflip.jpg
p721
aV889722000.Thu.Mar.12_17_00_00.GMT.1998.argus02a.c0.daytimex.rect.hflip.jpg
p722
aV820774800.Thu.Jan.04_17_00_00.GMT.1996.argus02.c0.daytimex.rect.hflip.jpg
p723
aV1076259600.Sun.Feb.08_17_00_00.GMT.2004.argus02a.c0.daytimex.rect.hflip.jpg
p724
aV781632000.Sat.Oct.08_16_00_00.GMT.1994.argus02.c0.daytimex.rect.hflip.jpg
p725
aV1172250000.Fri.Feb.23_17_00_00.GMT.2007.argus02a.c0.daytimex.rect.hflip.jpg
p726
aV916419600.Fri.Jan.15_17_00_00.GMT.1999.argus02a.c0.daytimex.rect.hflip.jpg
p727
aV820256400.Fri.Dec.29_17_00_00.GMT.1995.argus02.c0.daytimex.rect.hflip.jpg
p728
aV1041008400.Fri.Dec.27_17_00_00.GMT.2002.argus02a.c0.daytimex.rect.hflip.jpg
p729
aV1303660800.Sun.Apr.24_16_00_00.GMT.2011.argus02a.c0.daytimex.rect.hflip.jpg
p730
aV913309200.Thu.Dec.10_17_00_00.GMT.1998.argus02a.c0.daytimex.rect.hflip.jpg
p731
aV1175014800.Tue.Mar.27_17_00_00.GMT.2007.argus02a.c0.daytimex.rect.hflip.jpg
p732
aV1104339600.Wed.Dec.29_17_00_00.GMT.2004.argus02a.c0.daytimex.rect.hflip.jpg
p733
aV1133197200.Mon.Nov.28_17_00_00.GMT.2005.argus02a.c0.daytimex.rect.hflip.jpg
p734
aV1288630800.Mon.Nov.01_17_00_00.GMT.2010.argus02a.c0.daytimex.rect.hflip.jpg
p735
aV1195750800.Thu.Nov.22_17_00_00.GMT.2007.argus02a.c0.daytimex.rect.hflip.jpg
p736
aV1165165200.Sun.Dec.03_17_00_00.GMT.2006.argus02a.c0.daytimex.rect.hflip.jpg
p737
aV798912000.Wed.Apr.26_16_00_00.GMT.1995.argus02.c0.daytimex.rect.hflip.jpg
p738
aV1163782800.Fri.Nov.17_17_00_00.GMT.2006.argus02a.c0.daytimex.rect.hflip.jpg
p739
aV1385053200.Thu.Nov.21_17_00_00.GMT.2013.argus02a.c0.daytimex.rect.hflip.jpg
p740
aV764701200.Sat.Mar.26_17_00_00.GMT.1994.argus02.c0.daytimex.rect.hflip.jpg
p741
aV1390323600.Tue.Jan.21_17_00_00.GMT.2014.argus02a.c0.daytimex.rect.hflip.jpg
p742
aV1234890000.Tue.Feb.17_17_00_00.GMT.2009.argus02a.c0.daytimex.rect.hflip.jpg
p743
aV817318800.Sat.Nov.25_17_00_00.GMT.1995.argus02.c0.daytimex.rect.hflip.jpg
p744
aV1181923200.Fri.Jun.15_16_00_00.GMT.2007.argus02a.c0.daytimex.rect.hflip.jpg
p745
aV1299862800.Fri.Mar.11_17_00_00.GMT.2011.argus02a.c0.daytimex.rect.hflip.jpg
p746
aV874166400.Sat.Sep.13_16_00_00.GMT.1997.argus02.c0.daytimex.rect.hflip.jpg
p747
aV875808000.Thu.Oct.02_16_00_00.GMT.1997.argus02.c0.daytimex.rect.hflip.jpg
p748
aV907344000.Fri.Oct.02_16_00_00.GMT.1998.argus02a.c0.daytimex.rect.hflip.jpg
p749
aV1317398400.Fri.Sep.30_16_00_00.GMT.2011.argus02a.c0.daytimex.rect.hflip.jpg
p750
aV775584000.Sat.Jul.30_16_00_00.GMT.1994.argus02.c0.daytimex.rect.vflip.jpg
p751
aV1310572800.Wed.Jul.13_16_00_00.GMT.2011.argus02a.c0.daytimex.rect.vflip.jpg
p752
aV963331200.Tue.Jul.11_16_00_00.GMT.2000.argus02a.c0.daytimex.rect.vflip.jpg
p753
aV1263661200.Sat.Jan.16_17_00_00.GMT.2010.argus02a.c0.daytimex.rect.vflip.jpg
p754
aV1260896400.Tue.Dec.15_17_00_00.GMT.2009.argus02a.c0.daytimex.rect.vflip.jpg
p755
aV741283200.Mon.Jun.28_16_00_00.GMT.1993.argus02.c0.daytimex.rect.vflip.jpg
p756
aV1330966800.Mon.Mar.05_17_00_00.GMT.2012.argus02a.c0.daytimex.rect.vflip.jpg
p757
aV1192464000.Mon.Oct.15_16_00_00.GMT.2007.argus02a.c0.daytimex.rect.vflip.jpg
p758
aV1076518800.Wed.Feb.11_17_00_00.GMT.2004.argus02a.c0.daytimex.rect.vflip.jpg
p759
aV1215100800.Thu.Jul.03_16_00_00.GMT.2008.argus02a.c0.daytimex.rect.vflip.jpg
p760
aV1321462800.Wed.Nov.16_17_00_00.GMT.2011.argus02a.c0.daytimex.rect.vflip.jpg
p761
aV1326560400.Sat.Jan.14_17_00_00.GMT.2012.argus02a.c0.daytimex.rect.vflip.jpg
p762
aV757011600.Mon.Dec.27_17_00_00.GMT.1993.argus02.c0.daytimex.rect.vflip.jpg
p763
aV1329325200.Wed.Feb.15_17_00_00.GMT.2012.argus02a.c0.daytimex.rect.vflip.jpg
p764
aV1322413200.Sun.Nov.27_17_00_00.GMT.2011.argus02a.c0.daytimex.rect.vflip.jpg
p765
aV775152000.Mon.Jul.25_16_00_00.GMT.1994.argus02.c0.daytimex.rect.vflip.jpg
p766
aV1184169600.Wed.Jul.11_16_00_00.GMT.2007.argus02a.c0.daytimex.rect.vflip.jpg
p767
aV1184342400.Fri.Jul.13_16_00_00.GMT.2007.argus02a.c0.daytimex.rect.vflip.jpg
p768
aV1084291200.Tue.May.11_16_00_00.GMT.2004.argus02a.c0.daytimex.rect.vflip.jpg
p769
aV992793600.Sun.Jun.17_16_00_00.GMT.2001.argus02a.c0.daytimex.rect.vflip.jpg
p770
aV992448000.Wed.Jun.13_16_00_00.GMT.2001.argus02a.c0.daytimex.rect.vflip.jpg
p771
aV1165856400.Mon.Dec.11_17_00_00.GMT.2006.argus02a.c0.daytimex.rect.vflip.jpg
p772
aV1189440000.Mon.Sep.10_16_00_00.GMT.2007.argus02a.c0.daytimex.rect.vflip.jpg
p773
aV1310313600.Sun.Jul.10_16_00_00.GMT.2011.argus02a.c0.daytimex.rect.vflip.jpg
p774
aV1061222400.Mon.Aug.18_16_00_00.GMT.2003.argus02a.c0.daytimex.rect.vflip.jpg
p775
aV1180281600.Sun.May.27_16_00_00.GMT.2007.argus02a.c0.daytimex.rect.vflip.jpg
p776
aV994003200.Sun.Jul.01_16_00_00.GMT.2001.argus02a.c0.daytimex.rect.vflip.jpg
p777
aV880045200.Thu.Nov.20_17_00_00.GMT.1997.argus02a.c0.daytimex.rect.vflip.jpg
p778
aV1153238400.Tue.Jul.18_16_00_00.GMT.2006.argus02a.c0.daytimex.rect.vflip.jpg
p779
aV1215705600.Thu.Jul.10_16_00_00.GMT.2008.argus02a.c0.daytimex.rect.vflip.jpg
p780
aV1330621200.Thu.Mar.01_17_00_00.GMT.2012.argus02a.c0.daytimex.rect.vflip.jpg
p781
aV1091721600.Thu.Aug.05_16_00_00.GMT.2004.argus02a.c0.daytimex.rect.vflip.jpg
p782
aV1312387200.Wed.Aug.03_16_00_00.GMT.2011.argus02a.c0.daytimex.rect.vflip.jpg
p783
aV802972800.Mon.Jun.12_16_00_00.GMT.1995.argus02.c0.daytimex.rect.vflip.jpg
p784
aV1084723200.Sun.May.16_16_00_00.GMT.2004.argus02a.c0.daytimex.rect.vflip.jpg
p785
aV1089561600.Sun.Jul.11_16_00_00.GMT.2004.argus02a.c0.daytimex.rect.vflip.jpg
p786
aV934387200.Wed.Aug.11_16_00_00.GMT.1999.argus02a.c0.daytimex.rect.vflip.jpg
p787
aV1197306000.Mon.Dec.10_17_00_00.GMT.2007.argus02a.c0.daytimex.rect.vflip.jpg
p788
aV1287417600.Mon.Oct.18_16_00_00.GMT.2010.argus02a.c0.daytimex.rect.vflip.jpg
p789
aV1197392400.Tue.Dec.11_17_00_00.GMT.2007.argus02a.c0.daytimex.rect.vflip.jpg
p790
aV1161360000.Fri.Oct.20_16_00_00.GMT.2006.argus02a.c0.daytimex.rect.vflip.jpg
p791
aV927648000.Tue.May.25_16_00_00.GMT.1999.argus02a.c0.daytimex.rect.vflip.jpg
p792
aV1190822400.Wed.Sep.26_16_00_00.GMT.2007.argus02a.c0.daytimex.rect.vflip.jpg
p793
aV730486800.Tue.Feb.23_17_00_00.GMT.1993.argus02.c0.daytimex.rect.vflip.jpg
p794
aV1312473600.Thu.Aug.04_16_00_00.GMT.2011.argus02a.c0.daytimex.rect.vflip.jpg
p795
aV1272729600.Sat.May.01_16_00_00.GMT.2010.argus02a.c0.daytimex.rect.vflip.jpg
p796
aV1084982400.Wed.May.19_16_00_00.GMT.2004.argus02a.c0.daytimex.rect.vflip.jpg
p797
aV1330534800.Wed.Feb.29_17_00_00.GMT.2012.argus02a.c0.daytimex.rect.vflip.jpg
p798
aV1091030400.Wed.Jul.28_16_00_00.GMT.2004.argus02a.c0.daytimex.rect.vflip.jpg
p799
aV1194368400.Tue.Nov.06_17_00_00.GMT.2007.argus02a.c0.daytimex.rect.vflip.jpg
p800
aV807724800.Sun.Aug.06_16_00_00.GMT.1995.argus02.c0.daytimex.rect.vflip.jpg
p801
aV1193936400.Thu.Nov.01_17_00_00.GMT.2007.argus02a.c0.daytimex.rect.vflip.jpg
p802
aV1019318400.Sat.Apr.20_16_00_00.GMT.2002.argus02a.c0.daytimex.rect.vflip.jpg
p803
aV739555200.Tue.Jun.08_16_00_00.GMT.1993.argus02.c0.daytimex.rect.vflip.jpg
p804
aV1264611600.Wed.Jan.27_17_00_00.GMT.2010.argus02a.c0.daytimex.rect.vflip.jpg
p805
aV779472000.Tue.Sep.13_16_00_00.GMT.1994.argus02.c0.daytimex.rect.vflip.jpg
p806
aV779212800.Sat.Sep.10_16_00_00.GMT.1994.argus02.c0.daytimex.rect.vflip.jpg
p807
aV1273161600.Thu.May.06_16_00_00.GMT.2010.argus02a.c0.daytimex.rect.vflip.jpg
p808
aV1139590800.Fri.Feb.10_17_00_00.GMT.2006.argus02a.c0.daytimex.rect.vflip.jpg
p809
aV1190563200.Sun.Sep.23_16_00_00.GMT.2007.argus02a.c0.daytimex.rect.vflip.jpg
p810
aV965923200.Thu.Aug.10_16_00_00.GMT.2000.argus02a.c0.daytimex.rect.vflip.jpg
p811
aV1311523200.Sun.Jul.24_16_00_00.GMT.2011.argus02a.c0.daytimex.rect.vflip.jpg
p812
aV1085500800.Tue.May.25_16_00_00.GMT.2004.argus02a.c0.daytimex.rect.vflip.jpg
p813
aV932572800.Wed.Jul.21_16_00_00.GMT.1999.argus02a.c0.daytimex.rect.vflip.jpg
p814
aV932313600.Sun.Jul.18_16_00_00.GMT.1999.argus02a.c0.daytimex.rect.vflip.jpg
p815
aV1150819200.Tue.Jun.20_16_00_00.GMT.2006.argus02a.c0.daytimex.rect.vflip.jpg
p816
aV838224000.Wed.Jul.24_16_00_00.GMT.1996.argus02.c0.daytimex.rect.vflip.jpg
p817
aV1311955200.Fri.Jul.29_16_00_00.GMT.2011.argus02a.c0.daytimex.rect.vflip.jpg
p818
aV835372800.Fri.Jun.21_16_00_00.GMT.1996.argus02.c0.daytimex.rect.vflip.jpg
p819
aV1042131600.Thu.Jan.09_17_00_00.GMT.2003.argus02a.c0.daytimex.rect.vflip.jpg
p820
aV738691200.Sat.May.29_16_00_00.GMT.1993.argus02.c0.daytimex.rect.vflip.jpg
p821
aV1185984000.Wed.Aug.01_16_00_00.GMT.2007.argus02a.c0.daytimex.rect.vflip.jpg
p822
aV1409846400.Thu.Sep.04_16_00_00.GMT.2014.argus02a.c0.daytimex.rect.vflip.jpg
p823
aV1145116800.Sat.Apr.15_16_00_00.GMT.2006.argus02a.c0.daytimex.rect.vflip.jpg
p824
aV1178121600.Wed.May.02_16_00_00.GMT.2007.argus02a.c0.daytimex.rect.vflip.jpg
p825
aV1216224000.Wed.Jul.16_16_00_00.GMT.2008.argus02a.c0.daytimex.rect.vflip.jpg
p826
aV1058803200.Mon.Jul.21_16_00_00.GMT.2003.argus02a.c0.daytimex.rect.vflip.jpg
p827
aV868204800.Sun.Jul.06_16_00_00.GMT.1997.argus02.c0.daytimex.rect.vflip.jpg
p828
aV1356454800.Tue.Dec.25_17_00_00.GMT.2012.argus02a.c0.daytimex.rect.vflip.jpg
p829
aV871920000.Mon.Aug.18_16_00_00.GMT.1997.argus02.c0.daytimex.rect.vflip.jpg
p830
aV824749200.Mon.Feb.19_17_00_00.GMT.1996.argus02.c0.daytimex.rect.vflip.jpg
p831
aV838396800.Fri.Jul.26_16_00_00.GMT.1996.argus02.c0.daytimex.rect.vflip.jpg
p832
aV965059200.Mon.Jul.31_16_00_00.GMT.2000.argus02a.c0.daytimex.rect.vflip.jpg
p833
aV1065542400.Tue.Oct.07_16_00_00.GMT.2003.argus02a.c0.daytimex.rect.vflip.jpg
p834
aV843062400.Wed.Sep.18_16_00_00.GMT.1996.argus02.c0.daytimex.rect.vflip.jpg
p835
aV832608000.Mon.May.20_16_00_00.GMT.1996.argus02.c0.daytimex.rect.vflip.jpg
p836
aV1122566400.Thu.Jul.28_16_00_00.GMT.2005.argus02a.c0.daytimex.rect.vflip.jpg
p837
aV1340726400.Tue.Jun.26_16_00_00.GMT.2012.argus02a.c0.daytimex.rect.vflip.jpg
p838
aV1216396800.Fri.Jul.18_16_00_00.GMT.2008.argus02a.c0.daytimex.rect.vflip.jpg
p839
aV864489600.Sat.May.24_16_00_00.GMT.1997.argus02.c0.daytimex.rect.vflip.jpg
p840
aV1336752000.Fri.May.11_16_00_00.GMT.2012.argus02a.c0.daytimex.rect.vflip.jpg
p841
aV960566400.Fri.Jun.09_16_00_00.GMT.2000.argus02a.c0.daytimex.rect.vflip.jpg
p842
aV1356282000.Sun.Dec.23_17_00_00.GMT.2012.argus02a.c0.daytimex.rect.vflip.jpg
p843
aV1125590400.Thu.Sep.01_16_00_00.GMT.2005.argus02a.c0.daytimex.rect.vflip.jpg
p844
aV1352221200.Tue.Nov.06_17_00_00.GMT.2012.argus02a.c0.daytimex.rect.vflip.jpg
p845
aV963417600.Wed.Jul.12_16_00_00.GMT.2000.argus02a.c0.daytimex.rect.vflip.jpg
p846
aV872611200.Tue.Aug.26_16_00_00.GMT.1997.argus02.c0.daytimex.rect.vflip.jpg
p847
aV1345564800.Tue.Aug.21_16_00_00.GMT.2012.argus02a.c0.daytimex.rect.vflip.jpg
p848
aV984934800.Sun.Mar.18_17_00_00.GMT.2001.argus02a.c0.daytimex.rect.vflip.jpg
p849
aV1210176000.Wed.May.07_16_00_00.GMT.2008.argus02a.c0.daytimex.rect.vflip.jpg
p850
aV1323882000.Wed.Dec.14_17_00_00.GMT.2011.argus02a.c0.daytimex.rect.vflip.jpg
p851
aV898531200.Mon.Jun.22_16_00_00.GMT.1998.argus02a.c0.daytimex.rect.vflip.jpg
p852
aV832435200.Sat.May.18_16_00_00.GMT.1996.argus02.c0.daytimex.rect.vflip.jpg
p853
aV749750400.Mon.Oct.04_16_00_00.GMT.1993.argus02.c0.daytimex.rect.vflip.jpg
p854
aV1006275600.Tue.Nov.20_17_00_00.GMT.2001.argus02a.c0.daytimex.rect.vflip.jpg
p855
aV991584000.Sun.Jun.03_16_00_00.GMT.2001.argus02a.c0.daytimex.rect.vflip.jpg
p856
aV985539600.Sun.Mar.25_17_00_00.GMT.2001.argus02a.c0.daytimex.rect.vflip.jpg
p857
aV837446400.Mon.Jul.15_16_00_00.GMT.1996.argus02.c0.daytimex.rect.vflip.jpg
p858
aV995385600.Tue.Jul.17_16_00_00.GMT.2001.argus02a.c0.daytimex.rect.vflip.jpg
p859
aV1343664000.Mon.Jul.30_16_00_00.GMT.2012.argus02a.c0.daytimex.rect.vflip.jpg
p860
aV1362502800.Tue.Mar.05_17_00_00.GMT.2013.argus02a.c0.daytimex.rect.vflip.jpg
p861
aV1249315200.Mon.Aug.03_16_00_00.GMT.2009.argus02a.c0.daytimex.rect.vflip.jpg
p862
aV843926400.Sat.Sep.28_16_00_00.GMT.1996.argus02.c0.daytimex.rect.vflip.jpg
p863
aV1379260800.Sun.Sep.15_16_00_00.GMT.2013.argus02a.c0.daytimex.rect.vflip.jpg
p864
aV980096400.Sun.Jan.21_17_00_00.GMT.2001.argus02a.c0.daytimex.rect.vflip.jpg
p865
aV827427600.Thu.Mar.21_17_00_00.GMT.1996.argus02.c0.daytimex.rect.vflip.jpg
p866
aV745257600.Fri.Aug.13_16_00_00.GMT.1993.argus02.c0.daytimex.rect.vflip.jpg
p867
aV964972800.Sun.Jul.30_16_00_00.GMT.2000.argus02a.c0.daytimex.rect.vflip.jpg
p868
aV1407945600.Wed.Aug.13_16_00_00.GMT.2014.argus02a.c0.daytimex.rect.vflip.jpg
p869
aV1248624000.Sun.Jul.26_16_00_00.GMT.2009.argus02a.c0.daytimex.rect.vflip.jpg
p870
aV832348800.Fri.May.17_16_00_00.GMT.1996.argus02.c0.daytimex.rect.vflip.jpg
p871
aV1250784000.Thu.Aug.20_16_00_00.GMT.2009.argus02a.c0.daytimex.rect.vflip.jpg
p872
aV839952000.Tue.Aug.13_16_00_00.GMT.1996.argus02.c0.daytimex.rect.vflip.jpg
p873
aV1343750400.Tue.Jul.31_16_00_00.GMT.2012.argus02a.c0.daytimex.rect.vflip.jpg
p874
aV1003507200.Fri.Oct.19_16_00_00.GMT.2001.argus02a.c0.daytimex.rect.vflip.jpg
p875
aV1214755200.Sun.Jun.29_16_00_00.GMT.2008.argus02a.c0.daytimex.rect.vflip.jpg
p876
aV1002902400.Fri.Oct.12_16_00_00.GMT.2001.argus02a.c0.daytimex.rect.vflip.jpg
p877
aV1094227200.Fri.Sep.03_16_00_00.GMT.2004.argus02a.c0.daytimex.rect.vflip.jpg
p878
aV842198400.Sun.Sep.08_16_00_00.GMT.1996.argus02.c0.daytimex.rect.vflip.jpg
p879
aV746035200.Sun.Aug.22_16_00_00.GMT.1993.argus02.c0.daytimex.rect.vflip.jpg
p880
aV840297600.Sat.Aug.17_16_00_00.GMT.1996.argus02.c0.daytimex.rect.vflip.jpg
p881
aV1055606400.Sat.Jun.14_16_00_00.GMT.2003.argus02a.c0.daytimex.rect.vflip.jpg
p882
aV1005325200.Fri.Nov.09_17_00_00.GMT.2001.argus02a.c0.daytimex.rect.vflip.jpg
p883
aV1356714000.Fri.Dec.28_17_00_00.GMT.2012.argus02a.c0.daytimex.rect.vflip.jpg
p884
aV870796800.Tue.Aug.05_16_00_00.GMT.1997.argus02.c0.daytimex.rect.vflip.jpg
p885
aV1333468800.Tue.Apr.03_16_00_00.GMT.2012.argus02a.c0.daytimex.rect.vflip.jpg
p886
aV965577600.Sun.Aug.06_16_00_00.GMT.2000.argus02a.c0.daytimex.rect.vflip.jpg
p887
aV1283184000.Mon.Aug.30_16_00_00.GMT.2010.argus02a.c0.daytimex.rect.vflip.jpg
p888
aV1343145600.Tue.Jul.24_16_00_00.GMT.2012.argus02a.c0.daytimex.rect.vflip.jpg
p889
aV842976000.Tue.Sep.17_16_00_00.GMT.1996.argus02.c0.daytimex.rect.vflip.jpg
p890
aV871747200.Sat.Aug.16_16_00_00.GMT.1997.argus02.c0.daytimex.rect.vflip.jpg
p891
aV1333126800.Fri.Mar.30_17_00_00.GMT.2012.argus02a.c0.daytimex.rect.vflip.jpg
p892
aV1354899600.Fri.Dec.07_17_00_00.GMT.2012.argus02a.c0.daytimex.rect.vflip.jpg
p893
aV784746000.Sun.Nov.13_17_00_00.GMT.1994.argus02.c0.daytimex.rect.vflip.jpg
p894
aV1354813200.Thu.Dec.06_17_00_00.GMT.2012.argus02a.c0.daytimex.rect.vflip.jpg
p895
aV1164819600.Wed.Nov.29_17_00_00.GMT.2006.argus02a.c0.daytimex.rect.vflip.jpg
p896
aV1156867200.Tue.Aug.29_16_00_00.GMT.2006.argus02a.c0.daytimex.rect.vflip.jpg
p897
aV966873600.Mon.Aug.21_16_00_00.GMT.2000.argus02a.c0.daytimex.rect.vflip.jpg
p898
aV1049216400.Tue.Apr.01_17_00_00.GMT.2003.argus02a.c0.daytimex.rect.vflip.jpg
p899
aV1334160000.Wed.Apr.11_16_00_00.GMT.2012.argus02a.c0.daytimex.rect.vflip.jpg
p900
aV1381593600.Sat.Oct.12_16_00_00.GMT.2013.argus02a.c0.daytimex.rect.vflip.jpg
p901
aV1401552000.Sat.May.31_16_00_00.GMT.2014.argus02a.c0.daytimex.rect.vflip.jpg
p902
aV1098892800.Wed.Oct.27_16_00_00.GMT.2004.argus02a.c0.daytimex.rect.vflip.jpg
p903
aV1373644800.Fri.Jul.12_16_00_00.GMT.2013.argus02a.c0.daytimex.rect.vflip.jpg
p904
aV1337616000.Mon.May.21_16_00_00.GMT.2012.argus02a.c0.daytimex.rect.vflip.jpg
p905
aV1030809600.Sat.Aug.31_16_00_00.GMT.2002.argus02a.c0.daytimex.rect.vflip.jpg
p906
aV1096646400.Fri.Oct.01_16_00_00.GMT.2004.argus02a.c0.daytimex.rect.vflip.jpg
p907
aV888166800.Sun.Feb.22_17_00_00.GMT.1998.argus02a.c0.daytimex.rect.vflip.jpg
p908
aV1069693200.Mon.Nov.24_17_00_00.GMT.2003.argus02a.c0.daytimex.rect.vflip.jpg
p909
aV1031414400.Sat.Sep.07_16_00_00.GMT.2002.argus02a.c0.daytimex.rect.vflip.jpg
p910
aV1378483200.Fri.Sep.06_16_00_00.GMT.2013.argus02a.c0.daytimex.rect.vflip.jpg
p911
aV1030809600.Sat.Aug.31_16_00_00.GMT.2002.argus02a.c0.daytimex.rect.vflip.jpg
p912
aV873216000.Tue.Sep.02_16_00_00.GMT.1997.argus02.c0.daytimex.rect.vflip.jpg
p913
aV1247068800.Wed.Jul.08_16_00_00.GMT.2009.argus02a.c0.daytimex.rect.vflip.jpg
p914
aV801676800.Sun.May.28_16_00_00.GMT.1995.argus02.c0.daytimex.rect.vflip.jpg
p915
aV1097596800.Tue.Oct.12_16_00_00.GMT.2004.argus02a.c0.daytimex.rect.vflip.jpg
p916
aV1358787600.Mon.Jan.21_17_00_00.GMT.2013.argus02a.c0.daytimex.rect.vflip.jpg
p917
aV1211040000.Sat.May.17_16_00_00.GMT.2008.argus02a.c0.daytimex.rect.vflip.jpg
p918
aV1097337600.Sat.Oct.09_16_00_00.GMT.2004.argus02a.c0.daytimex.rect.vflip.jpg
p919
aV1081699200.Sun.Apr.11_16_00_00.GMT.2004.argus02a.c0.daytimex.rect.vflip.jpg
p920
aV1380643200.Tue.Oct.01_16_00_00.GMT.2013.argus02a.c0.daytimex.rect.vflip.jpg
p921
aV1121011200.Sun.Jul.10_16_00_00.GMT.2005.argus02a.c0.daytimex.rect.vflip.jpg
p922
aV971798400.Tue.Oct.17_16_00_00.GMT.2000.argus02a.c0.daytimex.rect.vflip.jpg
p923
aV1404403200.Thu.Jul.03_16_00_00.GMT.2014.argus02a.c0.daytimex.rect.vflip.jpg
p924
aV896630400.Sun.May.31_16_00_00.GMT.1998.argus02a.c0.daytimex.rect.vflip.jpg
p925
aV1009818000.Mon.Dec.31_17_00_00.GMT.2001.argus02a.c0.daytimex.rect.vflip.jpg
p926
aV1023379200.Thu.Jun.06_16_00_00.GMT.2002.argus02a.c0.daytimex.rect.vflip.jpg
p927
aV1358960400.Wed.Jan.23_17_00_00.GMT.2013.argus02a.c0.daytimex.rect.vflip.jpg
p928
aV1119801600.Sun.Jun.26_16_00_00.GMT.2005.argus02a.c0.daytimex.rect.vflip.jpg
p929
aV1115308800.Thu.May.05_16_00_00.GMT.2005.argus02a.c0.daytimex.rect.vflip.jpg
p930
aV867340800.Thu.Jun.26_16_00_00.GMT.1997.argus02.c0.daytimex.rect.vflip.jpg
p931
aV856976400.Wed.Feb.26_17_00_00.GMT.1997.argus02.c0.daytimex.rect.vflip.jpg
p932
aV738000000.Fri.May.21_16_00_00.GMT.1993.argus02.c0.daytimex.rect.vflip.jpg
p933
aV902246400.Tue.Aug.04_16_00_00.GMT.1998.argus02a.c0.daytimex.rect.vflip.jpg
p934
aV1122048000.Fri.Jul.22_16_00_00.GMT.2005.argus02a.c0.daytimex.rect.vflip.jpg
p935
aV1019836800.Fri.Apr.26_16_00_00.GMT.2002.argus02a.c0.daytimex.rect.vflip.jpg
p936
aV1335024000.Sat.Apr.21_16_00_00.GMT.2012.argus02a.c0.daytimex.rect.vflip.jpg
p937
aV1401379200.Thu.May.29_16_00_00.GMT.2014.argus02a.c0.daytimex.rect.vflip.jpg
p938
aV1339257600.Sat.Jun.09_16_00_00.GMT.2012.argus02a.c0.daytimex.rect.vflip.jpg
p939
aV1373731200.Sat.Jul.13_16_00_00.GMT.2013.argus02a.c0.daytimex.rect.vflip.jpg
p940
aV896889600.Wed.Jun.03_16_00_00.GMT.1998.argus02a.c0.daytimex.rect.vflip.jpg
p941
aV740246400.Wed.Jun.16_16_00_00.GMT.1993.argus02.c0.daytimex.rect.vflip.jpg
p942
aV1377014400.Tue.Aug.20_16_00_00.GMT.2013.argus02a.c0.daytimex.rect.vflip.jpg
p943
aV1358787600.Mon.Jan.21_17_00_00.GMT.2013.argus02a.c0.daytimex.rect.vflip.jpg
p944
aV1023465600.Fri.Jun.07_16_00_00.GMT.2002.argus02a.c0.daytimex.rect.vflip.jpg
p945
aV740332800.Thu.Jun.17_16_00_00.GMT.1993.argus02.c0.daytimex.rect.vflip.jpg
p946
aV805219200.Sat.Jul.08_16_00_00.GMT.1995.argus02.c0.daytimex.rect.vflip.jpg
p947
aV900432000.Tue.Jul.14_16_00_00.GMT.1998.argus02a.c0.daytimex.rect.vflip.jpg
p948
aV896457600.Fri.May.29_16_00_00.GMT.1998.argus02a.c0.daytimex.rect.vflip.jpg
p949
aV1379088000.Fri.Sep.13_16_00_00.GMT.2013.argus02a.c0.daytimex.rect.vflip.jpg
p950
aV958147200.Fri.May.12_16_00_00.GMT.2000.argus02a.c0.daytimex.rect.vflip.jpg
p951
aV736531200.Tue.May.04_16_00_00.GMT.1993.argus02.c0.daytimex.rect.vflip.jpg
p952
aV958665600.Thu.May.18_16_00_00.GMT.2000.argus02a.c0.daytimex.rect.vflip.jpg
p953
aV1014742800.Tue.Feb.26_17_00_00.GMT.2002.argus02a.c0.daytimex.rect.vflip.jpg
p954
aV954608400.Sat.Apr.01_17_00_00.GMT.2000.argus02a.c0.daytimex.rect.vflip.jpg
p955
aV1095523200.Sat.Sep.18_16_00_00.GMT.2004.argus02a.c0.daytimex.rect.vflip.jpg
p956
aV1113840000.Mon.Apr.18_16_00_00.GMT.2005.argus02a.c0.daytimex.rect.vflip.jpg
p957
aV1401897600.Wed.Jun.04_16_00_00.GMT.2014.argus02a.c0.daytimex.rect.vflip.jpg
p958
aV910803600.Wed.Nov.11_17_00_00.GMT.1998.argus02a.c0.daytimex.rect.vflip.jpg
p959
aV1383411600.Sat.Nov.02_17_00_00.GMT.2013.argus02a.c0.daytimex.rect.vflip.jpg
p960
aV860515200.Tue.Apr.08_16_00_00.GMT.1997.argus02.c0.daytimex.rect.vflip.jpg
p961
aV1031328000.Fri.Sep.06_16_00_00.GMT.2002.argus02a.c0.daytimex.rect.vflip.jpg
p962
aV1114012800.Wed.Apr.20_16_00_00.GMT.2005.argus02a.c0.daytimex.rect.vflip.jpg
p963
aV1382198400.Sat.Oct.19_16_00_00.GMT.2013.argus02a.c0.daytimex.rect.vflip.jpg
p964
aV1253721600.Wed.Sep.23_16_00_00.GMT.2009.argus02a.c0.daytimex.rect.vflip.jpg
p965
aV1247760000.Thu.Jul.16_16_00_00.GMT.2009.argus02a.c0.daytimex.rect.vflip.jpg
p966
aV1255276800.Sun.Oct.11_16_00_00.GMT.2009.argus02a.c0.daytimex.rect.vflip.jpg
p967
aV1080752400.Wed.Mar.31_17_00_00.GMT.2004.argus02a.c0.daytimex.rect.vflip.jpg
p968
aV1336060800.Thu.May.03_16_00_00.GMT.2012.argus02a.c0.daytimex.rect.vflip.jpg
p969
aV1008349200.Fri.Dec.14_17_00_00.GMT.2001.argus02a.c0.daytimex.rect.vflip.jpg
p970
aV1383843600.Thu.Nov.07_17_00_00.GMT.2013.argus02a.c0.daytimex.rect.vflip.jpg
p971
aV739296000.Sat.Jun.05_16_00_00.GMT.1993.argus02.c0.daytimex.rect.vflip.jpg
p972
aV1401120000.Mon.May.26_16_00_00.GMT.2014.argus02a.c0.daytimex.rect.vflip.jpg
p973
aV1400515200.Mon.May.19_16_00_00.GMT.2014.argus02a.c0.daytimex.rect.vflip.jpg
p974
aV1355590800.Sat.Dec.15_17_00_00.GMT.2012.argus02a.c0.daytimex.rect.vflip.jpg
p975
aV1226250000.Sun.Nov.09_17_00_00.GMT.2008.argus02a.c0.daytimex.rect.vflip.jpg
p976
aV796410000.Tue.Mar.28_17_00_00.GMT.1995.argus02.c0.daytimex.rect.vflip.jpg
p977
aV1226422800.Tue.Nov.11_17_00_00.GMT.2008.argus02a.c0.daytimex.rect.vflip.jpg
p978
aV1338480000.Thu.May.31_16_00_00.GMT.2012.argus02a.c0.daytimex.rect.vflip.jpg
p979
aV1337875200.Thu.May.24_16_00_00.GMT.2012.argus02a.c0.daytimex.rect.vflip.jpg
p980
aV1388509200.Tue.Dec.31_17_00_00.GMT.2013.argus02a.c0.daytimex.rect.vflip.jpg
p981
aV1101229200.Tue.Nov.23_17_00_00.GMT.2004.argus02a.c0.daytimex.rect.vflip.jpg
p982
aV1233248400.Thu.Jan.29_17_00_00.GMT.2009.argus02a.c0.daytimex.rect.vflip.jpg
p983
aV813340800.Tue.Oct.10_16_00_00.GMT.1995.argus02.c0.daytimex.rect.vflip.jpg
p984
aV1265648400.Mon.Feb.08_17_00_00.GMT.2010.argus02a.c0.daytimex.rect.vflip.jpg
p985
aV1284393600.Mon.Sep.13_16_00_00.GMT.2010.argus02a.c0.daytimex.rect.vflip.jpg
p986
aV1233421200.Sat.Jan.31_17_00_00.GMT.2009.argus02a.c0.daytimex.rect.vflip.jpg
p987
aV1127318400.Wed.Sep.21_16_00_00.GMT.2005.argus02a.c0.daytimex.rect.vflip.jpg
p988
aV1396972800.Tue.Apr.08_16_00_00.GMT.2014.argus02a.c0.daytimex.rect.vflip.jpg
p989
aV1272297600.Mon.Apr.26_16_00_00.GMT.2010.argus02a.c0.daytimex.rect.vflip.jpg
p990
aV1305561600.Mon.May.16_16_00_00.GMT.2011.argus02a.c0.daytimex.rect.vflip.jpg
p991
aV1294160400.Tue.Jan.04_17_00_00.GMT.2011.argus02a.c0.daytimex.rect.vflip.jpg
p992
aV1226163600.Sat.Nov.08_17_00_00.GMT.2008.argus02a.c0.daytimex.rect.vflip.jpg
p993
aV1023897600.Wed.Jun.12_16_00_00.GMT.2002.argus02a.c0.daytimex.rect.vflip.jpg
p994
aV1395594000.Sun.Mar.23_17_00_00.GMT.2014.argus02a.c0.daytimex.rect.vflip.jpg
p995
aV1338566400.Fri.Jun.01_16_00_00.GMT.2012.argus02a.c0.daytimex.rect.vflip.jpg
p996
aV1293642000.Wed.Dec.29_17_00_00.GMT.2010.argus02a.c0.daytimex.rect.vflip.jpg
p997
aV1397577600.Tue.Apr.15_16_00_00.GMT.2014.argus02a.c0.daytimex.rect.vflip.jpg
p998
aV1139677200.Sat.Feb.11_17_00_00.GMT.2006.argus02a.c0.daytimex.rect.vflip.jpg
p999
aV1391274000.Sat.Feb.01_17_00_00.GMT.2014.argus02a.c0.daytimex.rect.vflip.jpg
p1000
aV1235235600.Sat.Feb.21_17_00_00.GMT.2009.argus02a.c0.daytimex.rect.vflip.jpg
p1001
aV1256576400.Mon.Oct.26_17_00_00.GMT.2009.argus02a.c0.daytimex.rect.vflip.jpg
p1002
aV1175360400.Sat.Mar.31_17_00_00.GMT.2007.argus02a.c0.daytimex.rect.vflip.jpg
p1003
aV799084800.Fri.Apr.28_16_00_00.GMT.1995.argus02.c0.daytimex.rect.vflip.jpg
p1004
aV1307116800.Fri.Jun.03_16_00_00.GMT.2011.argus02a.c0.daytimex.rect.vflip.jpg
p1005
aV1015693200.Sat.Mar.09_17_00_00.GMT.2002.argus02a.c0.daytimex.rect.vflip.jpg
p1006
aV1291741200.Tue.Dec.07_17_00_00.GMT.2010.argus02a.c0.daytimex.rect.vflip.jpg
p1007
aV1411142400.Fri.Sep.19_16_00_00.GMT.2014.argus02a.c0.daytimex.rect.vflip.jpg
p1008
aV1014310800.Thu.Feb.21_17_00_00.GMT.2002.argus02a.c0.daytimex.rect.vflip.jpg
p1009
aV1396198800.Sun.Mar.30_17_00_00.GMT.2014.argus02a.c0.daytimex.rect.vflip.jpg
p1010
aV1385139600.Fri.Nov.22_17_00_00.GMT.2013.argus02a.c0.daytimex.rect.vflip.jpg
p1011
aV1068570000.Tue.Nov.11_17_00_00.GMT.2003.argus02a.c0.daytimex.rect.vflip.jpg
p1012
aV1233421200.Sat.Jan.31_17_00_00.GMT.2009.argus02a.c0.daytimex.rect.vflip.jpg
p1013
aV1135702800.Tue.Dec.27_17_00_00.GMT.2005.argus02a.c0.daytimex.rect.vflip.jpg
p1014
aV1256054400.Tue.Oct.20_16_00_00.GMT.2009.argus02a.c0.daytimex.rect.vflip.jpg
p1015
aV1072026000.Sun.Dec.21_17_00_00.GMT.2003.argus02a.c0.daytimex.rect.vflip.jpg
p1016
aV1103043600.Tue.Dec.14_17_00_00.GMT.2004.argus02a.c0.daytimex.rect.vflip.jpg
p1017
aV1252771200.Sat.Sep.12_16_00_00.GMT.2009.argus02a.c0.daytimex.rect.vflip.jpg
p1018
aV1285603200.Mon.Sep.27_16_00_00.GMT.2010.argus02a.c0.daytimex.rect.vflip.jpg
p1019
aV809798400.Wed.Aug.30_16_00_00.GMT.1995.argus02.c0.daytimex.rect.vflip.jpg
p1020
aV1243526400.Thu.May.28_16_00_00.GMT.2009.argus02a.c0.daytimex.rect.vflip.jpg
p1021
aV1234285200.Tue.Feb.10_17_00_00.GMT.2009.argus02a.c0.daytimex.rect.vflip.jpg
p1022
aV1226336400.Mon.Nov.10_17_00_00.GMT.2008.argus02a.c0.daytimex.rect.vflip.jpg
p1023
aV1393347600.Tue.Feb.25_17_00_00.GMT.2014.argus02a.c0.daytimex.rect.vflip.jpg
p1024
aV920134800.Sat.Feb.27_17_00_00.GMT.1999.argus02a.c0.daytimex.rect.vflip.jpg
p1025
aV788893200.Sat.Dec.31_17_00_00.GMT.1994.argus02.c0.daytimex.rect.vflip.jpg
p1026
aV924451200.Sun.Apr.18_16_00_00.GMT.1999.argus02a.c0.daytimex.rect.vflip.jpg
p1027
aV905097600.Sun.Sep.06_16_00_00.GMT.1998.argus02a.c0.daytimex.rect.vflip.jpg
p1028
aV1409068800.Tue.Aug.26_16_00_00.GMT.2014.argus02a.c0.daytimex.rect.vflip.jpg
p1029
aV1385917200.Sun.Dec.01_17_00_00.GMT.2013.argus02a.c0.daytimex.rect.vflip.jpg
p1030
aV1235235600.Sat.Feb.21_17_00_00.GMT.2009.argus02a.c0.daytimex.rect.vflip.jpg
p1031
aV1255449600.Tue.Oct.13_16_00_00.GMT.2009.argus02a.c0.daytimex.rect.vflip.jpg
p1032
aV809539200.Sun.Aug.27_16_00_00.GMT.1995.argus02.c0.daytimex.rect.vflip.jpg
p1033
aV1337616000.Mon.May.21_16_00_00.GMT.2012.argus02a.c0.daytimex.rect.vflip.jpg
p1034
aV1177344000.Mon.Apr.23_16_00_00.GMT.2007.argus02a.c0.daytimex.rect.vflip.jpg
p1035
aV809366400.Fri.Aug.25_16_00_00.GMT.1995.argus02.c0.daytimex.rect.vflip.jpg
p1036
aV1359306000.Sun.Jan.27_17_00_00.GMT.2013.argus02a.c0.daytimex.rect.vflip.jpg
p1037
aV1072630800.Sun.Dec.28_17_00_00.GMT.2003.argus02a.c0.daytimex.rect.vflip.jpg
p1038
aV1233248400.Thu.Jan.29_17_00_00.GMT.2009.argus02a.c0.daytimex.rect.vflip.jpg
p1039
aV1416157200.Sun.Nov.16_17_00_00.GMT.2014.argus02a.c0.daytimex.rect.vflip.jpg
p1040
aV1386176400.Wed.Dec.04_17_00_00.GMT.2013.argus02a.c0.daytimex.rect.vflip.jpg
p1041
aV1032624000.Sat.Sep.21_16_00_00.GMT.2002.argus02a.c0.daytimex.rect.vflip.jpg
p1042
aV1036170000.Fri.Nov.01_17_00_00.GMT.2002.argus02a.c0.daytimex.rect.vflip.jpg
p1043
aV1385226000.Sat.Nov.23_17_00_00.GMT.2013.argus02a.c0.daytimex.rect.vflip.jpg
p1044
aV1100710800.Wed.Nov.17_17_00_00.GMT.2004.argus02a.c0.daytimex.rect.vflip.jpg
p1045
aV1293814800.Fri.Dec.31_17_00_00.GMT.2010.argus02a.c0.daytimex.rect.vflip.jpg
p1046
aV1024070400.Fri.Jun.14_16_00_00.GMT.2002.argus02a.c0.daytimex.rect.vflip.jpg
p1047
aV796064400.Fri.Mar.24_17_00_00.GMT.1995.argus02.c0.daytimex.rect.vflip.jpg
p1048
aV1118073600.Mon.Jun.06_16_00_00.GMT.2005.argus02a.c0.daytimex.rect.vflip.jpg
p1049
aV1178294400.Fri.May.04_16_00_00.GMT.2007.argus02a.c0.daytimex.rect.vflip.jpg
p1050
aV780249600.Thu.Sep.22_16_00_00.GMT.1994.argus02.c0.daytimex.rect.vflip.jpg
p1051
aV755888400.Tue.Dec.14_17_00_00.GMT.1993.argus02.c0.daytimex.rect.vflip.jpg
p1052
aV1308067200.Tue.Jun.14_16_00_00.GMT.2011.argus02a.c0.daytimex.rect.vflip.jpg
p1053
aV1181836800.Thu.Jun.14_16_00_00.GMT.2007.argus02a.c0.daytimex.rect.vflip.jpg
p1054
aV1387645200.Sat.Dec.21_17_00_00.GMT.2013.argus02a.c0.daytimex.rect.vflip.jpg
p1055
aV1038416400.Wed.Nov.27_17_00_00.GMT.2002.argus02a.c0.daytimex.rect.vflip.jpg
p1056
aV1029513600.Fri.Aug.16_16_00_00.GMT.2002.argus02a.c0.daytimex.rect.vflip.jpg
p1057
aV873475200.Fri.Sep.05_16_00_00.GMT.1997.argus02.c0.daytimex.rect.vflip.jpg
p1058
aV1350057600.Fri.Oct.12_16_00_00.GMT.2012.argus02a.c0.daytimex.rect.vflip.jpg
p1059
aV1298394000.Tue.Feb.22_17_00_00.GMT.2011.argus02a.c0.daytimex.rect.vflip.jpg
p1060
aV755974800.Wed.Dec.15_17_00_00.GMT.1993.argus02.c0.daytimex.rect.vflip.jpg
p1061
aV1169312400.Sat.Jan.20_17_00_00.GMT.2007.argus02a.c0.daytimex.rect.vflip.jpg
p1062
aV769190400.Tue.May.17_16_00_00.GMT.1994.argus02.c0.daytimex.rect.vflip.jpg
p1063
aV1285689600.Tue.Sep.28_16_00_00.GMT.2010.argus02a.c0.daytimex.rect.vflip.jpg
p1064
aV1293210000.Fri.Dec.24_17_00_00.GMT.2010.argus02a.c0.daytimex.rect.vflip.jpg
p1065
aV793213200.Sun.Feb.19_17_00_00.GMT.1995.argus02.c0.daytimex.rect.vflip.jpg
p1066
aV819738000.Sat.Dec.23_17_00_00.GMT.1995.argus02.c0.daytimex.rect.vflip.jpg
p1067
aV1304611200.Thu.May.05_16_00_00.GMT.2011.argus02a.c0.daytimex.rect.vflip.jpg
p1068
aV1071248400.Fri.Dec.12_17_00_00.GMT.2003.argus02a.c0.daytimex.rect.vflip.jpg
p1069
aV1232816400.Sat.Jan.24_17_00_00.GMT.2009.argus02a.c0.daytimex.rect.vflip.jpg
p1070
aV1409587200.Mon.Sep.01_16_00_00.GMT.2014.argus02a.c0.daytimex.rect.vflip.jpg
p1071
aV923328000.Mon.Apr.05_16_00_00.GMT.1999.argus02a.c0.daytimex.rect.vflip.jpg
p1072
aV1137690000.Thu.Jan.19_17_00_00.GMT.2006.argus02a.c0.daytimex.rect.vflip.jpg
p1073
aV1132160400.Wed.Nov.16_17_00_00.GMT.2005.argus02a.c0.daytimex.rect.vflip.jpg
p1074
aV1251820800.Tue.Sep.01_16_00_00.GMT.2009.argus02a.c0.daytimex.rect.vflip.jpg
p1075
aV1166547600.Tue.Dec.19_17_00_00.GMT.2006.argus02a.c0.daytimex.rect.vflip.jpg
p1076
aV817923600.Sat.Dec.02_17_00_00.GMT.1995.argus02.c0.daytimex.rect.vflip.jpg
p1077
aV966182400.Sun.Aug.13_16_00_00.GMT.2000.argus02a.c0.daytimex.rect.vflip.jpg
p1078
aV1072285200.Wed.Dec.24_17_00_00.GMT.2003.argus02a.c0.daytimex.rect.vflip.jpg
p1079
aV1169485200.Mon.Jan.22_17_00_00.GMT.2007.argus02a.c0.daytimex.rect.vflip.jpg
p1080
aV847386000.Thu.Nov.07_17_00_00.GMT.1996.argus02.c0.daytimex.rect.vflip.jpg
p1081
aV1413820800.Mon.Oct.20_16_00_00.GMT.2014.argus02a.c0.daytimex.rect.vflip.jpg
p1082
aV817059600.Wed.Nov.22_17_00_00.GMT.1995.argus02.c0.daytimex.rect.vflip.jpg
p1083
aV791139600.Thu.Jan.26_17_00_00.GMT.1995.argus02.c0.daytimex.rect.vflip.jpg
p1084
aV769708800.Mon.May.23_16_00_00.GMT.1994.argus02.c0.daytimex.rect.vflip.jpg
p1085
aV1197565200.Thu.Dec.13_17_00_00.GMT.2007.argus02a.c0.daytimex.rect.vflip.jpg
p1086
aV768844800.Fri.May.13_16_00_00.GMT.1994.argus02.c0.daytimex.rect.vflip.jpg
p1087
aV1193500800.Sat.Oct.27_16_00_00.GMT.2007.argus02a.c0.daytimex.rect.vflip.jpg
p1088
aV1141405200.Fri.Mar.03_17_00_00.GMT.2006.argus02a.c0.daytimex.rect.vflip.jpg
p1089
aV1075914000.Wed.Feb.04_17_00_00.GMT.2004.argus02a.c0.daytimex.rect.vflip.jpg
p1090
aV1103821200.Thu.Dec.23_17_00_00.GMT.2004.argus02a.c0.daytimex.rect.vflip.jpg
p1091
aV1298307600.Mon.Feb.21_17_00_00.GMT.2011.argus02a.c0.daytimex.rect.vflip.jpg
p1092
aV807984000.Wed.Aug.09_16_00_00.GMT.1995.argus02.c0.daytimex.rect.vflip.jpg
p1093
aV915642000.Wed.Jan.06_17_00_00.GMT.1999.argus02a.c0.daytimex.rect.vflip.jpg
p1094
aV778176000.Mon.Aug.29_16_00_00.GMT.1994.argus02.c0.daytimex.rect.vflip.jpg
p1095
aV1304438400.Tue.May.03_16_00_00.GMT.2011.argus02a.c0.daytimex.rect.vflip.jpg
p1096
aV889722000.Thu.Mar.12_17_00_00.GMT.1998.argus02a.c0.daytimex.rect.vflip.jpg
p1097
aV820774800.Thu.Jan.04_17_00_00.GMT.1996.argus02.c0.daytimex.rect.vflip.jpg
p1098
aV1076259600.Sun.Feb.08_17_00_00.GMT.2004.argus02a.c0.daytimex.rect.vflip.jpg
p1099
aV781632000.Sat.Oct.08_16_00_00.GMT.1994.argus02.c0.daytimex.rect.vflip.jpg
p1100
aV1172250000.Fri.Feb.23_17_00_00.GMT.2007.argus02a.c0.daytimex.rect.vflip.jpg
p1101
aV916419600.Fri.Jan.15_17_00_00.GMT.1999.argus02a.c0.daytimex.rect.vflip.jpg
p1102
aV820256400.Fri.Dec.29_17_00_00.GMT.1995.argus02.c0.daytimex.rect.vflip.jpg
p1103
aV1041008400.Fri.Dec.27_17_00_00.GMT.2002.argus02a.c0.daytimex.rect.vflip.jpg
p1104
aV1303660800.Sun.Apr.24_16_00_00.GMT.2011.argus02a.c0.daytimex.rect.vflip.jpg
p1105
aV913309200.Thu.Dec.10_17_00_00.GMT.1998.argus02a.c0.daytimex.rect.vflip.jpg
p1106
aV1175014800.Tue.Mar.27_17_00_00.GMT.2007.argus02a.c0.daytimex.rect.vflip.jpg
p1107
aV1104339600.Wed.Dec.29_17_00_00.GMT.2004.argus02a.c0.daytimex.rect.vflip.jpg
p1108
aV1133197200.Mon.Nov.28_17_00_00.GMT.2005.argus02a.c0.daytimex.rect.vflip.jpg
p1109
aV1288630800.Mon.Nov.01_17_00_00.GMT.2010.argus02a.c0.daytimex.rect.vflip.jpg
p1110
aV1195750800.Thu.Nov.22_17_00_00.GMT.2007.argus02a.c0.daytimex.rect.vflip.jpg
p1111
aV1165165200.Sun.Dec.03_17_00_00.GMT.2006.argus02a.c0.daytimex.rect.vflip.jpg
p1112
aV798912000.Wed.Apr.26_16_00_00.GMT.1995.argus02.c0.daytimex.rect.vflip.jpg
p1113
aV1163782800.Fri.Nov.17_17_00_00.GMT.2006.argus02a.c0.daytimex.rect.vflip.jpg
p1114
aV1385053200.Thu.Nov.21_17_00_00.GMT.2013.argus02a.c0.daytimex.rect.vflip.jpg
p1115
aV764701200.Sat.Mar.26_17_00_00.GMT.1994.argus02.c0.daytimex.rect.vflip.jpg
p1116
aV1390323600.Tue.Jan.21_17_00_00.GMT.2014.argus02a.c0.daytimex.rect.vflip.jpg
p1117
aV1234890000.Tue.Feb.17_17_00_00.GMT.2009.argus02a.c0.daytimex.rect.vflip.jpg
p1118
aV817318800.Sat.Nov.25_17_00_00.GMT.1995.argus02.c0.daytimex.rect.vflip.jpg
p1119
aV1181923200.Fri.Jun.15_16_00_00.GMT.2007.argus02a.c0.daytimex.rect.vflip.jpg
p1120
aV1299862800.Fri.Mar.11_17_00_00.GMT.2011.argus02a.c0.daytimex.rect.vflip.jpg
p1121
aV874166400.Sat.Sep.13_16_00_00.GMT.1997.argus02.c0.daytimex.rect.vflip.jpg
p1122
aV875808000.Thu.Oct.02_16_00_00.GMT.1997.argus02.c0.daytimex.rect.vflip.jpg
p1123
aV907344000.Fri.Oct.02_16_00_00.GMT.1998.argus02a.c0.daytimex.rect.vflip.jpg
p1124
aV1317398400.Fri.Sep.30_16_00_00.GMT.2011.argus02a.c0.daytimex.rect.vflip.jpg
p1125
aV775584000.Sat.Jul.30_16_00_00.GMT.1994.argus02.c0.daytimex.rect.rot.jpg
p1126
aV1310572800.Wed.Jul.13_16_00_00.GMT.2011.argus02a.c0.daytimex.rect.rot.jpg
p1127
aV963331200.Tue.Jul.11_16_00_00.GMT.2000.argus02a.c0.daytimex.rect.rot.jpg
p1128
aV1263661200.Sat.Jan.16_17_00_00.GMT.2010.argus02a.c0.daytimex.rect.rot.jpg
p1129
aV1260896400.Tue.Dec.15_17_00_00.GMT.2009.argus02a.c0.daytimex.rect.rot.jpg
p1130
aV741283200.Mon.Jun.28_16_00_00.GMT.1993.argus02.c0.daytimex.rect.rot.jpg
p1131
aV1330966800.Mon.Mar.05_17_00_00.GMT.2012.argus02a.c0.daytimex.rect.rot.jpg
p1132
aV1192464000.Mon.Oct.15_16_00_00.GMT.2007.argus02a.c0.daytimex.rect.rot.jpg
p1133
aV1076518800.Wed.Feb.11_17_00_00.GMT.2004.argus02a.c0.daytimex.rect.rot.jpg
p1134
aV1215100800.Thu.Jul.03_16_00_00.GMT.2008.argus02a.c0.daytimex.rect.rot.jpg
p1135
aV1321462800.Wed.Nov.16_17_00_00.GMT.2011.argus02a.c0.daytimex.rect.rot.jpg
p1136
aV1326560400.Sat.Jan.14_17_00_00.GMT.2012.argus02a.c0.daytimex.rect.rot.jpg
p1137
aV757011600.Mon.Dec.27_17_00_00.GMT.1993.argus02.c0.daytimex.rect.rot.jpg
p1138
aV1329325200.Wed.Feb.15_17_00_00.GMT.2012.argus02a.c0.daytimex.rect.rot.jpg
p1139
aV1322413200.Sun.Nov.27_17_00_00.GMT.2011.argus02a.c0.daytimex.rect.rot.jpg
p1140
aV775152000.Mon.Jul.25_16_00_00.GMT.1994.argus02.c0.daytimex.rect.rot.jpg
p1141
aV1184169600.Wed.Jul.11_16_00_00.GMT.2007.argus02a.c0.daytimex.rect.rot.jpg
p1142
aV1184342400.Fri.Jul.13_16_00_00.GMT.2007.argus02a.c0.daytimex.rect.rot.jpg
p1143
aV1084291200.Tue.May.11_16_00_00.GMT.2004.argus02a.c0.daytimex.rect.rot.jpg
p1144
aV992793600.Sun.Jun.17_16_00_00.GMT.2001.argus02a.c0.daytimex.rect.rot.jpg
p1145
aV992448000.Wed.Jun.13_16_00_00.GMT.2001.argus02a.c0.daytimex.rect.rot.jpg
p1146
aV1165856400.Mon.Dec.11_17_00_00.GMT.2006.argus02a.c0.daytimex.rect.rot.jpg
p1147
aV1189440000.Mon.Sep.10_16_00_00.GMT.2007.argus02a.c0.daytimex.rect.rot.jpg
p1148
aV1310313600.Sun.Jul.10_16_00_00.GMT.2011.argus02a.c0.daytimex.rect.rot.jpg
p1149
aV1061222400.Mon.Aug.18_16_00_00.GMT.2003.argus02a.c0.daytimex.rect.rot.jpg
p1150
aV1180281600.Sun.May.27_16_00_00.GMT.2007.argus02a.c0.daytimex.rect.rot.jpg
p1151
aV994003200.Sun.Jul.01_16_00_00.GMT.2001.argus02a.c0.daytimex.rect.rot.jpg
p1152
aV880045200.Thu.Nov.20_17_00_00.GMT.1997.argus02a.c0.daytimex.rect.rot.jpg
p1153
aV1153238400.Tue.Jul.18_16_00_00.GMT.2006.argus02a.c0.daytimex.rect.rot.jpg
p1154
aV1215705600.Thu.Jul.10_16_00_00.GMT.2008.argus02a.c0.daytimex.rect.rot.jpg
p1155
aV1330621200.Thu.Mar.01_17_00_00.GMT.2012.argus02a.c0.daytimex.rect.rot.jpg
p1156
aV1091721600.Thu.Aug.05_16_00_00.GMT.2004.argus02a.c0.daytimex.rect.rot.jpg
p1157
aV1312387200.Wed.Aug.03_16_00_00.GMT.2011.argus02a.c0.daytimex.rect.rot.jpg
p1158
aV802972800.Mon.Jun.12_16_00_00.GMT.1995.argus02.c0.daytimex.rect.rot.jpg
p1159
aV1084723200.Sun.May.16_16_00_00.GMT.2004.argus02a.c0.daytimex.rect.rot.jpg
p1160
aV1089561600.Sun.Jul.11_16_00_00.GMT.2004.argus02a.c0.daytimex.rect.rot.jpg
p1161
aV934387200.Wed.Aug.11_16_00_00.GMT.1999.argus02a.c0.daytimex.rect.rot.jpg
p1162
aV1197306000.Mon.Dec.10_17_00_00.GMT.2007.argus02a.c0.daytimex.rect.rot.jpg
p1163
aV1287417600.Mon.Oct.18_16_00_00.GMT.2010.argus02a.c0.daytimex.rect.rot.jpg
p1164
aV1197392400.Tue.Dec.11_17_00_00.GMT.2007.argus02a.c0.daytimex.rect.rot.jpg
p1165
aV1161360000.Fri.Oct.20_16_00_00.GMT.2006.argus02a.c0.daytimex.rect.rot.jpg
p1166
aV927648000.Tue.May.25_16_00_00.GMT.1999.argus02a.c0.daytimex.rect.rot.jpg
p1167
aV1190822400.Wed.Sep.26_16_00_00.GMT.2007.argus02a.c0.daytimex.rect.rot.jpg
p1168
aV730486800.Tue.Feb.23_17_00_00.GMT.1993.argus02.c0.daytimex.rect.rot.jpg
p1169
aV1312473600.Thu.Aug.04_16_00_00.GMT.2011.argus02a.c0.daytimex.rect.rot.jpg
p1170
aV1272729600.Sat.May.01_16_00_00.GMT.2010.argus02a.c0.daytimex.rect.rot.jpg
p1171
aV1084982400.Wed.May.19_16_00_00.GMT.2004.argus02a.c0.daytimex.rect.rot.jpg
p1172
aV1330534800.Wed.Feb.29_17_00_00.GMT.2012.argus02a.c0.daytimex.rect.rot.jpg
p1173
aV1091030400.Wed.Jul.28_16_00_00.GMT.2004.argus02a.c0.daytimex.rect.rot.jpg
p1174
aV1194368400.Tue.Nov.06_17_00_00.GMT.2007.argus02a.c0.daytimex.rect.rot.jpg
p1175
aV807724800.Sun.Aug.06_16_00_00.GMT.1995.argus02.c0.daytimex.rect.rot.jpg
p1176
aV1193936400.Thu.Nov.01_17_00_00.GMT.2007.argus02a.c0.daytimex.rect.rot.jpg
p1177
aV1019318400.Sat.Apr.20_16_00_00.GMT.2002.argus02a.c0.daytimex.rect.rot.jpg
p1178
aV739555200.Tue.Jun.08_16_00_00.GMT.1993.argus02.c0.daytimex.rect.rot.jpg
p1179
aV1264611600.Wed.Jan.27_17_00_00.GMT.2010.argus02a.c0.daytimex.rect.rot.jpg
p1180
aV779472000.Tue.Sep.13_16_00_00.GMT.1994.argus02.c0.daytimex.rect.rot.jpg
p1181
aV779212800.Sat.Sep.10_16_00_00.GMT.1994.argus02.c0.daytimex.rect.rot.jpg
p1182
aV1273161600.Thu.May.06_16_00_00.GMT.2010.argus02a.c0.daytimex.rect.rot.jpg
p1183
aV1139590800.Fri.Feb.10_17_00_00.GMT.2006.argus02a.c0.daytimex.rect.rot.jpg
p1184
aV1190563200.Sun.Sep.23_16_00_00.GMT.2007.argus02a.c0.daytimex.rect.rot.jpg
p1185
aV965923200.Thu.Aug.10_16_00_00.GMT.2000.argus02a.c0.daytimex.rect.rot.jpg
p1186
aV1311523200.Sun.Jul.24_16_00_00.GMT.2011.argus02a.c0.daytimex.rect.rot.jpg
p1187
aV1085500800.Tue.May.25_16_00_00.GMT.2004.argus02a.c0.daytimex.rect.rot.jpg
p1188
aV932572800.Wed.Jul.21_16_00_00.GMT.1999.argus02a.c0.daytimex.rect.rot.jpg
p1189
aV932313600.Sun.Jul.18_16_00_00.GMT.1999.argus02a.c0.daytimex.rect.rot.jpg
p1190
aV1150819200.Tue.Jun.20_16_00_00.GMT.2006.argus02a.c0.daytimex.rect.rot.jpg
p1191
aV838224000.Wed.Jul.24_16_00_00.GMT.1996.argus02.c0.daytimex.rect.rot.jpg
p1192
aV1311955200.Fri.Jul.29_16_00_00.GMT.2011.argus02a.c0.daytimex.rect.rot.jpg
p1193
aV835372800.Fri.Jun.21_16_00_00.GMT.1996.argus02.c0.daytimex.rect.rot.jpg
p1194
aV1042131600.Thu.Jan.09_17_00_00.GMT.2003.argus02a.c0.daytimex.rect.rot.jpg
p1195
aV738691200.Sat.May.29_16_00_00.GMT.1993.argus02.c0.daytimex.rect.rot.jpg
p1196
aV1185984000.Wed.Aug.01_16_00_00.GMT.2007.argus02a.c0.daytimex.rect.rot.jpg
p1197
aV1409846400.Thu.Sep.04_16_00_00.GMT.2014.argus02a.c0.daytimex.rect.rot.jpg
p1198
aV1145116800.Sat.Apr.15_16_00_00.GMT.2006.argus02a.c0.daytimex.rect.rot.jpg
p1199
aV1178121600.Wed.May.02_16_00_00.GMT.2007.argus02a.c0.daytimex.rect.rot.jpg
p1200
aV1216224000.Wed.Jul.16_16_00_00.GMT.2008.argus02a.c0.daytimex.rect.rot.jpg
p1201
aV1058803200.Mon.Jul.21_16_00_00.GMT.2003.argus02a.c0.daytimex.rect.rot.jpg
p1202
aV868204800.Sun.Jul.06_16_00_00.GMT.1997.argus02.c0.daytimex.rect.rot.jpg
p1203
aV1356454800.Tue.Dec.25_17_00_00.GMT.2012.argus02a.c0.daytimex.rect.rot.jpg
p1204
aV871920000.Mon.Aug.18_16_00_00.GMT.1997.argus02.c0.daytimex.rect.rot.jpg
p1205
aV824749200.Mon.Feb.19_17_00_00.GMT.1996.argus02.c0.daytimex.rect.rot.jpg
p1206
aV838396800.Fri.Jul.26_16_00_00.GMT.1996.argus02.c0.daytimex.rect.rot.jpg
p1207
aV965059200.Mon.Jul.31_16_00_00.GMT.2000.argus02a.c0.daytimex.rect.rot.jpg
p1208
aV1065542400.Tue.Oct.07_16_00_00.GMT.2003.argus02a.c0.daytimex.rect.rot.jpg
p1209
aV843062400.Wed.Sep.18_16_00_00.GMT.1996.argus02.c0.daytimex.rect.rot.jpg
p1210
aV832608000.Mon.May.20_16_00_00.GMT.1996.argus02.c0.daytimex.rect.rot.jpg
p1211
aV1122566400.Thu.Jul.28_16_00_00.GMT.2005.argus02a.c0.daytimex.rect.rot.jpg
p1212
aV1340726400.Tue.Jun.26_16_00_00.GMT.2012.argus02a.c0.daytimex.rect.rot.jpg
p1213
aV1216396800.Fri.Jul.18_16_00_00.GMT.2008.argus02a.c0.daytimex.rect.rot.jpg
p1214
aV864489600.Sat.May.24_16_00_00.GMT.1997.argus02.c0.daytimex.rect.rot.jpg
p1215
aV1336752000.Fri.May.11_16_00_00.GMT.2012.argus02a.c0.daytimex.rect.rot.jpg
p1216
aV960566400.Fri.Jun.09_16_00_00.GMT.2000.argus02a.c0.daytimex.rect.rot.jpg
p1217
aV1356282000.Sun.Dec.23_17_00_00.GMT.2012.argus02a.c0.daytimex.rect.rot.jpg
p1218
aV1125590400.Thu.Sep.01_16_00_00.GMT.2005.argus02a.c0.daytimex.rect.rot.jpg
p1219
aV1352221200.Tue.Nov.06_17_00_00.GMT.2012.argus02a.c0.daytimex.rect.rot.jpg
p1220
aV963417600.Wed.Jul.12_16_00_00.GMT.2000.argus02a.c0.daytimex.rect.rot.jpg
p1221
aV872611200.Tue.Aug.26_16_00_00.GMT.1997.argus02.c0.daytimex.rect.rot.jpg
p1222
aV1345564800.Tue.Aug.21_16_00_00.GMT.2012.argus02a.c0.daytimex.rect.rot.jpg
p1223
aV984934800.Sun.Mar.18_17_00_00.GMT.2001.argus02a.c0.daytimex.rect.rot.jpg
p1224
aV1210176000.Wed.May.07_16_00_00.GMT.2008.argus02a.c0.daytimex.rect.rot.jpg
p1225
aV1323882000.Wed.Dec.14_17_00_00.GMT.2011.argus02a.c0.daytimex.rect.rot.jpg
p1226
aV898531200.Mon.Jun.22_16_00_00.GMT.1998.argus02a.c0.daytimex.rect.rot.jpg
p1227
aV832435200.Sat.May.18_16_00_00.GMT.1996.argus02.c0.daytimex.rect.rot.jpg
p1228
aV749750400.Mon.Oct.04_16_00_00.GMT.1993.argus02.c0.daytimex.rect.rot.jpg
p1229
aV1006275600.Tue.Nov.20_17_00_00.GMT.2001.argus02a.c0.daytimex.rect.rot.jpg
p1230
aV991584000.Sun.Jun.03_16_00_00.GMT.2001.argus02a.c0.daytimex.rect.rot.jpg
p1231
aV985539600.Sun.Mar.25_17_00_00.GMT.2001.argus02a.c0.daytimex.rect.rot.jpg
p1232
aV837446400.Mon.Jul.15_16_00_00.GMT.1996.argus02.c0.daytimex.rect.rot.jpg
p1233
aV995385600.Tue.Jul.17_16_00_00.GMT.2001.argus02a.c0.daytimex.rect.rot.jpg
p1234
aV1343664000.Mon.Jul.30_16_00_00.GMT.2012.argus02a.c0.daytimex.rect.rot.jpg
p1235
aV1362502800.Tue.Mar.05_17_00_00.GMT.2013.argus02a.c0.daytimex.rect.rot.jpg
p1236
aV1249315200.Mon.Aug.03_16_00_00.GMT.2009.argus02a.c0.daytimex.rect.rot.jpg
p1237
aV843926400.Sat.Sep.28_16_00_00.GMT.1996.argus02.c0.daytimex.rect.rot.jpg
p1238
aV1379260800.Sun.Sep.15_16_00_00.GMT.2013.argus02a.c0.daytimex.rect.rot.jpg
p1239
aV980096400.Sun.Jan.21_17_00_00.GMT.2001.argus02a.c0.daytimex.rect.rot.jpg
p1240
aV827427600.Thu.Mar.21_17_00_00.GMT.1996.argus02.c0.daytimex.rect.rot.jpg
p1241
aV745257600.Fri.Aug.13_16_00_00.GMT.1993.argus02.c0.daytimex.rect.rot.jpg
p1242
aV964972800.Sun.Jul.30_16_00_00.GMT.2000.argus02a.c0.daytimex.rect.rot.jpg
p1243
aV1407945600.Wed.Aug.13_16_00_00.GMT.2014.argus02a.c0.daytimex.rect.rot.jpg
p1244
aV1248624000.Sun.Jul.26_16_00_00.GMT.2009.argus02a.c0.daytimex.rect.rot.jpg
p1245
aV832348800.Fri.May.17_16_00_00.GMT.1996.argus02.c0.daytimex.rect.rot.jpg
p1246
aV1250784000.Thu.Aug.20_16_00_00.GMT.2009.argus02a.c0.daytimex.rect.rot.jpg
p1247
aV839952000.Tue.Aug.13_16_00_00.GMT.1996.argus02.c0.daytimex.rect.rot.jpg
p1248
aV1343750400.Tue.Jul.31_16_00_00.GMT.2012.argus02a.c0.daytimex.rect.rot.jpg
p1249
aV1003507200.Fri.Oct.19_16_00_00.GMT.2001.argus02a.c0.daytimex.rect.rot.jpg
p1250
aV1214755200.Sun.Jun.29_16_00_00.GMT.2008.argus02a.c0.daytimex.rect.rot.jpg
p1251
aV1002902400.Fri.Oct.12_16_00_00.GMT.2001.argus02a.c0.daytimex.rect.rot.jpg
p1252
aV1094227200.Fri.Sep.03_16_00_00.GMT.2004.argus02a.c0.daytimex.rect.rot.jpg
p1253
aV842198400.Sun.Sep.08_16_00_00.GMT.1996.argus02.c0.daytimex.rect.rot.jpg
p1254
aV746035200.Sun.Aug.22_16_00_00.GMT.1993.argus02.c0.daytimex.rect.rot.jpg
p1255
aV840297600.Sat.Aug.17_16_00_00.GMT.1996.argus02.c0.daytimex.rect.rot.jpg
p1256
aV1055606400.Sat.Jun.14_16_00_00.GMT.2003.argus02a.c0.daytimex.rect.rot.jpg
p1257
aV1005325200.Fri.Nov.09_17_00_00.GMT.2001.argus02a.c0.daytimex.rect.rot.jpg
p1258
aV1356714000.Fri.Dec.28_17_00_00.GMT.2012.argus02a.c0.daytimex.rect.rot.jpg
p1259
aV870796800.Tue.Aug.05_16_00_00.GMT.1997.argus02.c0.daytimex.rect.rot.jpg
p1260
aV1333468800.Tue.Apr.03_16_00_00.GMT.2012.argus02a.c0.daytimex.rect.rot.jpg
p1261
aV965577600.Sun.Aug.06_16_00_00.GMT.2000.argus02a.c0.daytimex.rect.rot.jpg
p1262
aV1283184000.Mon.Aug.30_16_00_00.GMT.2010.argus02a.c0.daytimex.rect.rot.jpg
p1263
aV1343145600.Tue.Jul.24_16_00_00.GMT.2012.argus02a.c0.daytimex.rect.rot.jpg
p1264
aV842976000.Tue.Sep.17_16_00_00.GMT.1996.argus02.c0.daytimex.rect.rot.jpg
p1265
aV871747200.Sat.Aug.16_16_00_00.GMT.1997.argus02.c0.daytimex.rect.rot.jpg
p1266
aV1333126800.Fri.Mar.30_17_00_00.GMT.2012.argus02a.c0.daytimex.rect.rot.jpg
p1267
aV1354899600.Fri.Dec.07_17_00_00.GMT.2012.argus02a.c0.daytimex.rect.rot.jpg
p1268
aV784746000.Sun.Nov.13_17_00_00.GMT.1994.argus02.c0.daytimex.rect.rot.jpg
p1269
aV1354813200.Thu.Dec.06_17_00_00.GMT.2012.argus02a.c0.daytimex.rect.rot.jpg
p1270
aV1164819600.Wed.Nov.29_17_00_00.GMT.2006.argus02a.c0.daytimex.rect.rot.jpg
p1271
aV1156867200.Tue.Aug.29_16_00_00.GMT.2006.argus02a.c0.daytimex.rect.rot.jpg
p1272
aV966873600.Mon.Aug.21_16_00_00.GMT.2000.argus02a.c0.daytimex.rect.rot.jpg
p1273
aV1049216400.Tue.Apr.01_17_00_00.GMT.2003.argus02a.c0.daytimex.rect.rot.jpg
p1274
aV1334160000.Wed.Apr.11_16_00_00.GMT.2012.argus02a.c0.daytimex.rect.rot.jpg
p1275
aV1381593600.Sat.Oct.12_16_00_00.GMT.2013.argus02a.c0.daytimex.rect.rot.jpg
p1276
aV1401552000.Sat.May.31_16_00_00.GMT.2014.argus02a.c0.daytimex.rect.rot.jpg
p1277
aV1098892800.Wed.Oct.27_16_00_00.GMT.2004.argus02a.c0.daytimex.rect.rot.jpg
p1278
aV1373644800.Fri.Jul.12_16_00_00.GMT.2013.argus02a.c0.daytimex.rect.rot.jpg
p1279
aV1337616000.Mon.May.21_16_00_00.GMT.2012.argus02a.c0.daytimex.rect.rot.jpg
p1280
aV1030809600.Sat.Aug.31_16_00_00.GMT.2002.argus02a.c0.daytimex.rect.rot.jpg
p1281
aV1096646400.Fri.Oct.01_16_00_00.GMT.2004.argus02a.c0.daytimex.rect.rot.jpg
p1282
aV888166800.Sun.Feb.22_17_00_00.GMT.1998.argus02a.c0.daytimex.rect.rot.jpg
p1283
aV1069693200.Mon.Nov.24_17_00_00.GMT.2003.argus02a.c0.daytimex.rect.rot.jpg
p1284
aV1031414400.Sat.Sep.07_16_00_00.GMT.2002.argus02a.c0.daytimex.rect.rot.jpg
p1285
aV1378483200.Fri.Sep.06_16_00_00.GMT.2013.argus02a.c0.daytimex.rect.rot.jpg
p1286
aV1030809600.Sat.Aug.31_16_00_00.GMT.2002.argus02a.c0.daytimex.rect.rot.jpg
p1287
aV873216000.Tue.Sep.02_16_00_00.GMT.1997.argus02.c0.daytimex.rect.rot.jpg
p1288
aV1247068800.Wed.Jul.08_16_00_00.GMT.2009.argus02a.c0.daytimex.rect.rot.jpg
p1289
aV801676800.Sun.May.28_16_00_00.GMT.1995.argus02.c0.daytimex.rect.rot.jpg
p1290
aV1097596800.Tue.Oct.12_16_00_00.GMT.2004.argus02a.c0.daytimex.rect.rot.jpg
p1291
aV1358787600.Mon.Jan.21_17_00_00.GMT.2013.argus02a.c0.daytimex.rect.rot.jpg
p1292
aV1211040000.Sat.May.17_16_00_00.GMT.2008.argus02a.c0.daytimex.rect.rot.jpg
p1293
aV1097337600.Sat.Oct.09_16_00_00.GMT.2004.argus02a.c0.daytimex.rect.rot.jpg
p1294
aV1081699200.Sun.Apr.11_16_00_00.GMT.2004.argus02a.c0.daytimex.rect.rot.jpg
p1295
aV1380643200.Tue.Oct.01_16_00_00.GMT.2013.argus02a.c0.daytimex.rect.rot.jpg
p1296
aV1121011200.Sun.Jul.10_16_00_00.GMT.2005.argus02a.c0.daytimex.rect.rot.jpg
p1297
aV971798400.Tue.Oct.17_16_00_00.GMT.2000.argus02a.c0.daytimex.rect.rot.jpg
p1298
aV1404403200.Thu.Jul.03_16_00_00.GMT.2014.argus02a.c0.daytimex.rect.rot.jpg
p1299
aV896630400.Sun.May.31_16_00_00.GMT.1998.argus02a.c0.daytimex.rect.rot.jpg
p1300
aV1009818000.Mon.Dec.31_17_00_00.GMT.2001.argus02a.c0.daytimex.rect.rot.jpg
p1301
aV1023379200.Thu.Jun.06_16_00_00.GMT.2002.argus02a.c0.daytimex.rect.rot.jpg
p1302
aV1358960400.Wed.Jan.23_17_00_00.GMT.2013.argus02a.c0.daytimex.rect.rot.jpg
p1303
aV1119801600.Sun.Jun.26_16_00_00.GMT.2005.argus02a.c0.daytimex.rect.rot.jpg
p1304
aV1115308800.Thu.May.05_16_00_00.GMT.2005.argus02a.c0.daytimex.rect.rot.jpg
p1305
aV867340800.Thu.Jun.26_16_00_00.GMT.1997.argus02.c0.daytimex.rect.rot.jpg
p1306
aV856976400.Wed.Feb.26_17_00_00.GMT.1997.argus02.c0.daytimex.rect.rot.jpg
p1307
aV738000000.Fri.May.21_16_00_00.GMT.1993.argus02.c0.daytimex.rect.rot.jpg
p1308
aV902246400.Tue.Aug.04_16_00_00.GMT.1998.argus02a.c0.daytimex.rect.rot.jpg
p1309
aV1122048000.Fri.Jul.22_16_00_00.GMT.2005.argus02a.c0.daytimex.rect.rot.jpg
p1310
aV1019836800.Fri.Apr.26_16_00_00.GMT.2002.argus02a.c0.daytimex.rect.rot.jpg
p1311
aV1335024000.Sat.Apr.21_16_00_00.GMT.2012.argus02a.c0.daytimex.rect.rot.jpg
p1312
aV1401379200.Thu.May.29_16_00_00.GMT.2014.argus02a.c0.daytimex.rect.rot.jpg
p1313
aV1339257600.Sat.Jun.09_16_00_00.GMT.2012.argus02a.c0.daytimex.rect.rot.jpg
p1314
aV1373731200.Sat.Jul.13_16_00_00.GMT.2013.argus02a.c0.daytimex.rect.rot.jpg
p1315
aV896889600.Wed.Jun.03_16_00_00.GMT.1998.argus02a.c0.daytimex.rect.rot.jpg
p1316
aV740246400.Wed.Jun.16_16_00_00.GMT.1993.argus02.c0.daytimex.rect.rot.jpg
p1317
aV1377014400.Tue.Aug.20_16_00_00.GMT.2013.argus02a.c0.daytimex.rect.rot.jpg
p1318
aV1358787600.Mon.Jan.21_17_00_00.GMT.2013.argus02a.c0.daytimex.rect.rot.jpg
p1319
aV1023465600.Fri.Jun.07_16_00_00.GMT.2002.argus02a.c0.daytimex.rect.rot.jpg
p1320
aV740332800.Thu.Jun.17_16_00_00.GMT.1993.argus02.c0.daytimex.rect.rot.jpg
p1321
aV805219200.Sat.Jul.08_16_00_00.GMT.1995.argus02.c0.daytimex.rect.rot.jpg
p1322
aV900432000.Tue.Jul.14_16_00_00.GMT.1998.argus02a.c0.daytimex.rect.rot.jpg
p1323
aV896457600.Fri.May.29_16_00_00.GMT.1998.argus02a.c0.daytimex.rect.rot.jpg
p1324
aV1379088000.Fri.Sep.13_16_00_00.GMT.2013.argus02a.c0.daytimex.rect.rot.jpg
p1325
aV958147200.Fri.May.12_16_00_00.GMT.2000.argus02a.c0.daytimex.rect.rot.jpg
p1326
aV736531200.Tue.May.04_16_00_00.GMT.1993.argus02.c0.daytimex.rect.rot.jpg
p1327
aV958665600.Thu.May.18_16_00_00.GMT.2000.argus02a.c0.daytimex.rect.rot.jpg
p1328
aV1014742800.Tue.Feb.26_17_00_00.GMT.2002.argus02a.c0.daytimex.rect.rot.jpg
p1329
aV954608400.Sat.Apr.01_17_00_00.GMT.2000.argus02a.c0.daytimex.rect.rot.jpg
p1330
aV1095523200.Sat.Sep.18_16_00_00.GMT.2004.argus02a.c0.daytimex.rect.rot.jpg
p1331
aV1113840000.Mon.Apr.18_16_00_00.GMT.2005.argus02a.c0.daytimex.rect.rot.jpg
p1332
aV1401897600.Wed.Jun.04_16_00_00.GMT.2014.argus02a.c0.daytimex.rect.rot.jpg
p1333
aV910803600.Wed.Nov.11_17_00_00.GMT.1998.argus02a.c0.daytimex.rect.rot.jpg
p1334
aV1383411600.Sat.Nov.02_17_00_00.GMT.2013.argus02a.c0.daytimex.rect.rot.jpg
p1335
aV860515200.Tue.Apr.08_16_00_00.GMT.1997.argus02.c0.daytimex.rect.rot.jpg
p1336
aV1031328000.Fri.Sep.06_16_00_00.GMT.2002.argus02a.c0.daytimex.rect.rot.jpg
p1337
aV1114012800.Wed.Apr.20_16_00_00.GMT.2005.argus02a.c0.daytimex.rect.rot.jpg
p1338
aV1382198400.Sat.Oct.19_16_00_00.GMT.2013.argus02a.c0.daytimex.rect.rot.jpg
p1339
aV1253721600.Wed.Sep.23_16_00_00.GMT.2009.argus02a.c0.daytimex.rect.rot.jpg
p1340
aV1247760000.Thu.Jul.16_16_00_00.GMT.2009.argus02a.c0.daytimex.rect.rot.jpg
p1341
aV1255276800.Sun.Oct.11_16_00_00.GMT.2009.argus02a.c0.daytimex.rect.rot.jpg
p1342
aV1080752400.Wed.Mar.31_17_00_00.GMT.2004.argus02a.c0.daytimex.rect.rot.jpg
p1343
aV1336060800.Thu.May.03_16_00_00.GMT.2012.argus02a.c0.daytimex.rect.rot.jpg
p1344
aV1008349200.Fri.Dec.14_17_00_00.GMT.2001.argus02a.c0.daytimex.rect.rot.jpg
p1345
aV1383843600.Thu.Nov.07_17_00_00.GMT.2013.argus02a.c0.daytimex.rect.rot.jpg
p1346
aV739296000.Sat.Jun.05_16_00_00.GMT.1993.argus02.c0.daytimex.rect.rot.jpg
p1347
aV1401120000.Mon.May.26_16_00_00.GMT.2014.argus02a.c0.daytimex.rect.rot.jpg
p1348
aV1400515200.Mon.May.19_16_00_00.GMT.2014.argus02a.c0.daytimex.rect.rot.jpg
p1349
aV1355590800.Sat.Dec.15_17_00_00.GMT.2012.argus02a.c0.daytimex.rect.rot.jpg
p1350
aV1226250000.Sun.Nov.09_17_00_00.GMT.2008.argus02a.c0.daytimex.rect.rot.jpg
p1351
aV796410000.Tue.Mar.28_17_00_00.GMT.1995.argus02.c0.daytimex.rect.rot.jpg
p1352
aV1226422800.Tue.Nov.11_17_00_00.GMT.2008.argus02a.c0.daytimex.rect.rot.jpg
p1353
aV1338480000.Thu.May.31_16_00_00.GMT.2012.argus02a.c0.daytimex.rect.rot.jpg
p1354
aV1337875200.Thu.May.24_16_00_00.GMT.2012.argus02a.c0.daytimex.rect.rot.jpg
p1355
aV1388509200.Tue.Dec.31_17_00_00.GMT.2013.argus02a.c0.daytimex.rect.rot.jpg
p1356
aV1101229200.Tue.Nov.23_17_00_00.GMT.2004.argus02a.c0.daytimex.rect.rot.jpg
p1357
aV1233248400.Thu.Jan.29_17_00_00.GMT.2009.argus02a.c0.daytimex.rect.rot.jpg
p1358
aV813340800.Tue.Oct.10_16_00_00.GMT.1995.argus02.c0.daytimex.rect.rot.jpg
p1359
aV1265648400.Mon.Feb.08_17_00_00.GMT.2010.argus02a.c0.daytimex.rect.rot.jpg
p1360
aV1284393600.Mon.Sep.13_16_00_00.GMT.2010.argus02a.c0.daytimex.rect.rot.jpg
p1361
aV1233421200.Sat.Jan.31_17_00_00.GMT.2009.argus02a.c0.daytimex.rect.rot.jpg
p1362
aV1127318400.Wed.Sep.21_16_00_00.GMT.2005.argus02a.c0.daytimex.rect.rot.jpg
p1363
aV1396972800.Tue.Apr.08_16_00_00.GMT.2014.argus02a.c0.daytimex.rect.rot.jpg
p1364
aV1272297600.Mon.Apr.26_16_00_00.GMT.2010.argus02a.c0.daytimex.rect.rot.jpg
p1365
aV1305561600.Mon.May.16_16_00_00.GMT.2011.argus02a.c0.daytimex.rect.rot.jpg
p1366
aV1294160400.Tue.Jan.04_17_00_00.GMT.2011.argus02a.c0.daytimex.rect.rot.jpg
p1367
aV1226163600.Sat.Nov.08_17_00_00.GMT.2008.argus02a.c0.daytimex.rect.rot.jpg
p1368
aV1023897600.Wed.Jun.12_16_00_00.GMT.2002.argus02a.c0.daytimex.rect.rot.jpg
p1369
aV1395594000.Sun.Mar.23_17_00_00.GMT.2014.argus02a.c0.daytimex.rect.rot.jpg
p1370
aV1338566400.Fri.Jun.01_16_00_00.GMT.2012.argus02a.c0.daytimex.rect.rot.jpg
p1371
aV1293642000.Wed.Dec.29_17_00_00.GMT.2010.argus02a.c0.daytimex.rect.rot.jpg
p1372
aV1397577600.Tue.Apr.15_16_00_00.GMT.2014.argus02a.c0.daytimex.rect.rot.jpg
p1373
aV1139677200.Sat.Feb.11_17_00_00.GMT.2006.argus02a.c0.daytimex.rect.rot.jpg
p1374
aV1391274000.Sat.Feb.01_17_00_00.GMT.2014.argus02a.c0.daytimex.rect.rot.jpg
p1375
aV1235235600.Sat.Feb.21_17_00_00.GMT.2009.argus02a.c0.daytimex.rect.rot.jpg
p1376
aV1256576400.Mon.Oct.26_17_00_00.GMT.2009.argus02a.c0.daytimex.rect.rot.jpg
p1377
aV1175360400.Sat.Mar.31_17_00_00.GMT.2007.argus02a.c0.daytimex.rect.rot.jpg
p1378
aV799084800.Fri.Apr.28_16_00_00.GMT.1995.argus02.c0.daytimex.rect.rot.jpg
p1379
aV1307116800.Fri.Jun.03_16_00_00.GMT.2011.argus02a.c0.daytimex.rect.rot.jpg
p1380
aV1015693200.Sat.Mar.09_17_00_00.GMT.2002.argus02a.c0.daytimex.rect.rot.jpg
p1381
aV1291741200.Tue.Dec.07_17_00_00.GMT.2010.argus02a.c0.daytimex.rect.rot.jpg
p1382
aV1411142400.Fri.Sep.19_16_00_00.GMT.2014.argus02a.c0.daytimex.rect.rot.jpg
p1383
aV1014310800.Thu.Feb.21_17_00_00.GMT.2002.argus02a.c0.daytimex.rect.rot.jpg
p1384
aV1396198800.Sun.Mar.30_17_00_00.GMT.2014.argus02a.c0.daytimex.rect.rot.jpg
p1385
aV1385139600.Fri.Nov.22_17_00_00.GMT.2013.argus02a.c0.daytimex.rect.rot.jpg
p1386
aV1068570000.Tue.Nov.11_17_00_00.GMT.2003.argus02a.c0.daytimex.rect.rot.jpg
p1387
aV1233421200.Sat.Jan.31_17_00_00.GMT.2009.argus02a.c0.daytimex.rect.rot.jpg
p1388
aV1135702800.Tue.Dec.27_17_00_00.GMT.2005.argus02a.c0.daytimex.rect.rot.jpg
p1389
aV1256054400.Tue.Oct.20_16_00_00.GMT.2009.argus02a.c0.daytimex.rect.rot.jpg
p1390
aV1072026000.Sun.Dec.21_17_00_00.GMT.2003.argus02a.c0.daytimex.rect.rot.jpg
p1391
aV1103043600.Tue.Dec.14_17_00_00.GMT.2004.argus02a.c0.daytimex.rect.rot.jpg
p1392
aV1252771200.Sat.Sep.12_16_00_00.GMT.2009.argus02a.c0.daytimex.rect.rot.jpg
p1393
aV1285603200.Mon.Sep.27_16_00_00.GMT.2010.argus02a.c0.daytimex.rect.rot.jpg
p1394
aV809798400.Wed.Aug.30_16_00_00.GMT.1995.argus02.c0.daytimex.rect.rot.jpg
p1395
aV1243526400.Thu.May.28_16_00_00.GMT.2009.argus02a.c0.daytimex.rect.rot.jpg
p1396
aV1234285200.Tue.Feb.10_17_00_00.GMT.2009.argus02a.c0.daytimex.rect.rot.jpg
p1397
aV1226336400.Mon.Nov.10_17_00_00.GMT.2008.argus02a.c0.daytimex.rect.rot.jpg
p1398
aV1393347600.Tue.Feb.25_17_00_00.GMT.2014.argus02a.c0.daytimex.rect.rot.jpg
p1399
aV920134800.Sat.Feb.27_17_00_00.GMT.1999.argus02a.c0.daytimex.rect.rot.jpg
p1400
aV788893200.Sat.Dec.31_17_00_00.GMT.1994.argus02.c0.daytimex.rect.rot.jpg
p1401
aV924451200.Sun.Apr.18_16_00_00.GMT.1999.argus02a.c0.daytimex.rect.rot.jpg
p1402
aV905097600.Sun.Sep.06_16_00_00.GMT.1998.argus02a.c0.daytimex.rect.rot.jpg
p1403
aV1409068800.Tue.Aug.26_16_00_00.GMT.2014.argus02a.c0.daytimex.rect.rot.jpg
p1404
aV1385917200.Sun.Dec.01_17_00_00.GMT.2013.argus02a.c0.daytimex.rect.rot.jpg
p1405
aV1235235600.Sat.Feb.21_17_00_00.GMT.2009.argus02a.c0.daytimex.rect.rot.jpg
p1406
aV1255449600.Tue.Oct.13_16_00_00.GMT.2009.argus02a.c0.daytimex.rect.rot.jpg
p1407
aV809539200.Sun.Aug.27_16_00_00.GMT.1995.argus02.c0.daytimex.rect.rot.jpg
p1408
aV1337616000.Mon.May.21_16_00_00.GMT.2012.argus02a.c0.daytimex.rect.rot.jpg
p1409
aV1177344000.Mon.Apr.23_16_00_00.GMT.2007.argus02a.c0.daytimex.rect.rot.jpg
p1410
aV809366400.Fri.Aug.25_16_00_00.GMT.1995.argus02.c0.daytimex.rect.rot.jpg
p1411
aV1359306000.Sun.Jan.27_17_00_00.GMT.2013.argus02a.c0.daytimex.rect.rot.jpg
p1412
aV1072630800.Sun.Dec.28_17_00_00.GMT.2003.argus02a.c0.daytimex.rect.rot.jpg
p1413
aV1233248400.Thu.Jan.29_17_00_00.GMT.2009.argus02a.c0.daytimex.rect.rot.jpg
p1414
aV1416157200.Sun.Nov.16_17_00_00.GMT.2014.argus02a.c0.daytimex.rect.rot.jpg
p1415
aV1386176400.Wed.Dec.04_17_00_00.GMT.2013.argus02a.c0.daytimex.rect.rot.jpg
p1416
aV1032624000.Sat.Sep.21_16_00_00.GMT.2002.argus02a.c0.daytimex.rect.rot.jpg
p1417
aV1036170000.Fri.Nov.01_17_00_00.GMT.2002.argus02a.c0.daytimex.rect.rot.jpg
p1418
aV1385226000.Sat.Nov.23_17_00_00.GMT.2013.argus02a.c0.daytimex.rect.rot.jpg
p1419
aV1100710800.Wed.Nov.17_17_00_00.GMT.2004.argus02a.c0.daytimex.rect.rot.jpg
p1420
aV1293814800.Fri.Dec.31_17_00_00.GMT.2010.argus02a.c0.daytimex.rect.rot.jpg
p1421
aV1024070400.Fri.Jun.14_16_00_00.GMT.2002.argus02a.c0.daytimex.rect.rot.jpg
p1422
aV796064400.Fri.Mar.24_17_00_00.GMT.1995.argus02.c0.daytimex.rect.rot.jpg
p1423
aV1118073600.Mon.Jun.06_16_00_00.GMT.2005.argus02a.c0.daytimex.rect.rot.jpg
p1424
aV1178294400.Fri.May.04_16_00_00.GMT.2007.argus02a.c0.daytimex.rect.rot.jpg
p1425
aV780249600.Thu.Sep.22_16_00_00.GMT.1994.argus02.c0.daytimex.rect.rot.jpg
p1426
aV755888400.Tue.Dec.14_17_00_00.GMT.1993.argus02.c0.daytimex.rect.rot.jpg
p1427
aV1308067200.Tue.Jun.14_16_00_00.GMT.2011.argus02a.c0.daytimex.rect.rot.jpg
p1428
aV1181836800.Thu.Jun.14_16_00_00.GMT.2007.argus02a.c0.daytimex.rect.rot.jpg
p1429
aV1387645200.Sat.Dec.21_17_00_00.GMT.2013.argus02a.c0.daytimex.rect.rot.jpg
p1430
aV1038416400.Wed.Nov.27_17_00_00.GMT.2002.argus02a.c0.daytimex.rect.rot.jpg
p1431
aV1029513600.Fri.Aug.16_16_00_00.GMT.2002.argus02a.c0.daytimex.rect.rot.jpg
p1432
aV873475200.Fri.Sep.05_16_00_00.GMT.1997.argus02.c0.daytimex.rect.rot.jpg
p1433
aV1350057600.Fri.Oct.12_16_00_00.GMT.2012.argus02a.c0.daytimex.rect.rot.jpg
p1434
aV1298394000.Tue.Feb.22_17_00_00.GMT.2011.argus02a.c0.daytimex.rect.rot.jpg
p1435
aV755974800.Wed.Dec.15_17_00_00.GMT.1993.argus02.c0.daytimex.rect.rot.jpg
p1436
aV1169312400.Sat.Jan.20_17_00_00.GMT.2007.argus02a.c0.daytimex.rect.rot.jpg
p1437
aV769190400.Tue.May.17_16_00_00.GMT.1994.argus02.c0.daytimex.rect.rot.jpg
p1438
aV1285689600.Tue.Sep.28_16_00_00.GMT.2010.argus02a.c0.daytimex.rect.rot.jpg
p1439
aV1293210000.Fri.Dec.24_17_00_00.GMT.2010.argus02a.c0.daytimex.rect.rot.jpg
p1440
aV793213200.Sun.Feb.19_17_00_00.GMT.1995.argus02.c0.daytimex.rect.rot.jpg
p1441
aV819738000.Sat.Dec.23_17_00_00.GMT.1995.argus02.c0.daytimex.rect.rot.jpg
p1442
aV1304611200.Thu.May.05_16_00_00.GMT.2011.argus02a.c0.daytimex.rect.rot.jpg
p1443
aV1071248400.Fri.Dec.12_17_00_00.GMT.2003.argus02a.c0.daytimex.rect.rot.jpg
p1444
aV1232816400.Sat.Jan.24_17_00_00.GMT.2009.argus02a.c0.daytimex.rect.rot.jpg
p1445
aV1409587200.Mon.Sep.01_16_00_00.GMT.2014.argus02a.c0.daytimex.rect.rot.jpg
p1446
aV923328000.Mon.Apr.05_16_00_00.GMT.1999.argus02a.c0.daytimex.rect.rot.jpg
p1447
aV1137690000.Thu.Jan.19_17_00_00.GMT.2006.argus02a.c0.daytimex.rect.rot.jpg
p1448
aV1132160400.Wed.Nov.16_17_00_00.GMT.2005.argus02a.c0.daytimex.rect.rot.jpg
p1449
aV1251820800.Tue.Sep.01_16_00_00.GMT.2009.argus02a.c0.daytimex.rect.rot.jpg
p1450
aV1166547600.Tue.Dec.19_17_00_00.GMT.2006.argus02a.c0.daytimex.rect.rot.jpg
p1451
aV817923600.Sat.Dec.02_17_00_00.GMT.1995.argus02.c0.daytimex.rect.rot.jpg
p1452
aV966182400.Sun.Aug.13_16_00_00.GMT.2000.argus02a.c0.daytimex.rect.rot.jpg
p1453
aV1072285200.Wed.Dec.24_17_00_00.GMT.2003.argus02a.c0.daytimex.rect.rot.jpg
p1454
aV1169485200.Mon.Jan.22_17_00_00.GMT.2007.argus02a.c0.daytimex.rect.rot.jpg
p1455
aV847386000.Thu.Nov.07_17_00_00.GMT.1996.argus02.c0.daytimex.rect.rot.jpg
p1456
aV1413820800.Mon.Oct.20_16_00_00.GMT.2014.argus02a.c0.daytimex.rect.rot.jpg
p1457
aV817059600.Wed.Nov.22_17_00_00.GMT.1995.argus02.c0.daytimex.rect.rot.jpg
p1458
aV791139600.Thu.Jan.26_17_00_00.GMT.1995.argus02.c0.daytimex.rect.rot.jpg
p1459
aV769708800.Mon.May.23_16_00_00.GMT.1994.argus02.c0.daytimex.rect.rot.jpg
p1460
aV1197565200.Thu.Dec.13_17_00_00.GMT.2007.argus02a.c0.daytimex.rect.rot.jpg
p1461
aV768844800.Fri.May.13_16_00_00.GMT.1994.argus02.c0.daytimex.rect.rot.jpg
p1462
aV1193500800.Sat.Oct.27_16_00_00.GMT.2007.argus02a.c0.daytimex.rect.rot.jpg
p1463
aV1141405200.Fri.Mar.03_17_00_00.GMT.2006.argus02a.c0.daytimex.rect.rot.jpg
p1464
aV1075914000.Wed.Feb.04_17_00_00.GMT.2004.argus02a.c0.daytimex.rect.rot.jpg
p1465
aV1103821200.Thu.Dec.23_17_00_00.GMT.2004.argus02a.c0.daytimex.rect.rot.jpg
p1466
aV1298307600.Mon.Feb.21_17_00_00.GMT.2011.argus02a.c0.daytimex.rect.rot.jpg
p1467
aV807984000.Wed.Aug.09_16_00_00.GMT.1995.argus02.c0.daytimex.rect.rot.jpg
p1468
aV915642000.Wed.Jan.06_17_00_00.GMT.1999.argus02a.c0.daytimex.rect.rot.jpg
p1469
aV778176000.Mon.Aug.29_16_00_00.GMT.1994.argus02.c0.daytimex.rect.rot.jpg
p1470
aV1304438400.Tue.May.03_16_00_00.GMT.2011.argus02a.c0.daytimex.rect.rot.jpg
p1471
aV889722000.Thu.Mar.12_17_00_00.GMT.1998.argus02a.c0.daytimex.rect.rot.jpg
p1472
aV820774800.Thu.Jan.04_17_00_00.GMT.1996.argus02.c0.daytimex.rect.rot.jpg
p1473
aV1076259600.Sun.Feb.08_17_00_00.GMT.2004.argus02a.c0.daytimex.rect.rot.jpg
p1474
aV781632000.Sat.Oct.08_16_00_00.GMT.1994.argus02.c0.daytimex.rect.rot.jpg
p1475
aV1172250000.Fri.Feb.23_17_00_00.GMT.2007.argus02a.c0.daytimex.rect.rot.jpg
p1476
aV916419600.Fri.Jan.15_17_00_00.GMT.1999.argus02a.c0.daytimex.rect.rot.jpg
p1477
aV820256400.Fri.Dec.29_17_00_00.GMT.1995.argus02.c0.daytimex.rect.rot.jpg
p1478
aV1041008400.Fri.Dec.27_17_00_00.GMT.2002.argus02a.c0.daytimex.rect.rot.jpg
p1479
aV1303660800.Sun.Apr.24_16_00_00.GMT.2011.argus02a.c0.daytimex.rect.rot.jpg
p1480
aV913309200.Thu.Dec.10_17_00_00.GMT.1998.argus02a.c0.daytimex.rect.rot.jpg
p1481
aV1175014800.Tue.Mar.27_17_00_00.GMT.2007.argus02a.c0.daytimex.rect.rot.jpg
p1482
aV1104339600.Wed.Dec.29_17_00_00.GMT.2004.argus02a.c0.daytimex.rect.rot.jpg
p1483
aV1133197200.Mon.Nov.28_17_00_00.GMT.2005.argus02a.c0.daytimex.rect.rot.jpg
p1484
aV1288630800.Mon.Nov.01_17_00_00.GMT.2010.argus02a.c0.daytimex.rect.rot.jpg
p1485
aV1195750800.Thu.Nov.22_17_00_00.GMT.2007.argus02a.c0.daytimex.rect.rot.jpg
p1486
aV1165165200.Sun.Dec.03_17_00_00.GMT.2006.argus02a.c0.daytimex.rect.rot.jpg
p1487
aV798912000.Wed.Apr.26_16_00_00.GMT.1995.argus02.c0.daytimex.rect.rot.jpg
p1488
aV1163782800.Fri.Nov.17_17_00_00.GMT.2006.argus02a.c0.daytimex.rect.rot.jpg
p1489
aV1385053200.Thu.Nov.21_17_00_00.GMT.2013.argus02a.c0.daytimex.rect.rot.jpg
p1490
aV764701200.Sat.Mar.26_17_00_00.GMT.1994.argus02.c0.daytimex.rect.rot.jpg
p1491
aV1390323600.Tue.Jan.21_17_00_00.GMT.2014.argus02a.c0.daytimex.rect.rot.jpg
p1492
aV1234890000.Tue.Feb.17_17_00_00.GMT.2009.argus02a.c0.daytimex.rect.rot.jpg
p1493
aV817318800.Sat.Nov.25_17_00_00.GMT.1995.argus02.c0.daytimex.rect.rot.jpg
p1494
aV1181923200.Fri.Jun.15_16_00_00.GMT.2007.argus02a.c0.daytimex.rect.rot.jpg
p1495
aV1299862800.Fri.Mar.11_17_00_00.GMT.2011.argus02a.c0.daytimex.rect.rot.jpg
p1496
aV874166400.Sat.Sep.13_16_00_00.GMT.1997.argus02.c0.daytimex.rect.rot.jpg
p1497
aV875808000.Thu.Oct.02_16_00_00.GMT.1997.argus02.c0.daytimex.rect.rot.jpg
p1498
aV907344000.Fri.Oct.02_16_00_00.GMT.1998.argus02a.c0.daytimex.rect.rot.jpg
p1499
aV1317398400.Fri.Sep.30_16_00_00.GMT.2011.argus02a.c0.daytimex.rect.rot.jpg
p1500
aV775584000.Sat.Jul.30_16_00_00.GMT.1994.argus02.c0.daytimex.rect.erase.jpg
p1501
aV1310572800.Wed.Jul.13_16_00_00.GMT.2011.argus02a.c0.daytimex.rect.erase.jpg
p1502
aV963331200.Tue.Jul.11_16_00_00.GMT.2000.argus02a.c0.daytimex.rect.erase.jpg
p1503
aV1263661200.Sat.Jan.16_17_00_00.GMT.2010.argus02a.c0.daytimex.rect.erase.jpg
p1504
aV1260896400.Tue.Dec.15_17_00_00.GMT.2009.argus02a.c0.daytimex.rect.erase.jpg
p1505
aV741283200.Mon.Jun.28_16_00_00.GMT.1993.argus02.c0.daytimex.rect.erase.jpg
p1506
aV1330966800.Mon.Mar.05_17_00_00.GMT.2012.argus02a.c0.daytimex.rect.erase.jpg
p1507
aV1192464000.Mon.Oct.15_16_00_00.GMT.2007.argus02a.c0.daytimex.rect.erase.jpg
p1508
aV1076518800.Wed.Feb.11_17_00_00.GMT.2004.argus02a.c0.daytimex.rect.erase.jpg
p1509
aV1215100800.Thu.Jul.03_16_00_00.GMT.2008.argus02a.c0.daytimex.rect.erase.jpg
p1510
aV1321462800.Wed.Nov.16_17_00_00.GMT.2011.argus02a.c0.daytimex.rect.erase.jpg
p1511
aV1326560400.Sat.Jan.14_17_00_00.GMT.2012.argus02a.c0.daytimex.rect.erase.jpg
p1512
aV757011600.Mon.Dec.27_17_00_00.GMT.1993.argus02.c0.daytimex.rect.erase.jpg
p1513
aV1329325200.Wed.Feb.15_17_00_00.GMT.2012.argus02a.c0.daytimex.rect.erase.jpg
p1514
aV1322413200.Sun.Nov.27_17_00_00.GMT.2011.argus02a.c0.daytimex.rect.erase.jpg
p1515
aV775152000.Mon.Jul.25_16_00_00.GMT.1994.argus02.c0.daytimex.rect.erase.jpg
p1516
aV1184169600.Wed.Jul.11_16_00_00.GMT.2007.argus02a.c0.daytimex.rect.erase.jpg
p1517
aV1184342400.Fri.Jul.13_16_00_00.GMT.2007.argus02a.c0.daytimex.rect.erase.jpg
p1518
aV1084291200.Tue.May.11_16_00_00.GMT.2004.argus02a.c0.daytimex.rect.erase.jpg
p1519
aV992793600.Sun.Jun.17_16_00_00.GMT.2001.argus02a.c0.daytimex.rect.erase.jpg
p1520
aV992448000.Wed.Jun.13_16_00_00.GMT.2001.argus02a.c0.daytimex.rect.erase.jpg
p1521
aV1165856400.Mon.Dec.11_17_00_00.GMT.2006.argus02a.c0.daytimex.rect.erase.jpg
p1522
aV1189440000.Mon.Sep.10_16_00_00.GMT.2007.argus02a.c0.daytimex.rect.erase.jpg
p1523
aV1310313600.Sun.Jul.10_16_00_00.GMT.2011.argus02a.c0.daytimex.rect.erase.jpg
p1524
aV1061222400.Mon.Aug.18_16_00_00.GMT.2003.argus02a.c0.daytimex.rect.erase.jpg
p1525
aV1180281600.Sun.May.27_16_00_00.GMT.2007.argus02a.c0.daytimex.rect.erase.jpg
p1526
aV994003200.Sun.Jul.01_16_00_00.GMT.2001.argus02a.c0.daytimex.rect.erase.jpg
p1527
aV880045200.Thu.Nov.20_17_00_00.GMT.1997.argus02a.c0.daytimex.rect.erase.jpg
p1528
aV1153238400.Tue.Jul.18_16_00_00.GMT.2006.argus02a.c0.daytimex.rect.erase.jpg
p1529
aV1215705600.Thu.Jul.10_16_00_00.GMT.2008.argus02a.c0.daytimex.rect.erase.jpg
p1530
aV1330621200.Thu.Mar.01_17_00_00.GMT.2012.argus02a.c0.daytimex.rect.erase.jpg
p1531
aV1091721600.Thu.Aug.05_16_00_00.GMT.2004.argus02a.c0.daytimex.rect.erase.jpg
p1532
aV1312387200.Wed.Aug.03_16_00_00.GMT.2011.argus02a.c0.daytimex.rect.erase.jpg
p1533
aV802972800.Mon.Jun.12_16_00_00.GMT.1995.argus02.c0.daytimex.rect.erase.jpg
p1534
aV1084723200.Sun.May.16_16_00_00.GMT.2004.argus02a.c0.daytimex.rect.erase.jpg
p1535
aV1089561600.Sun.Jul.11_16_00_00.GMT.2004.argus02a.c0.daytimex.rect.erase.jpg
p1536
aV934387200.Wed.Aug.11_16_00_00.GMT.1999.argus02a.c0.daytimex.rect.erase.jpg
p1537
aV1197306000.Mon.Dec.10_17_00_00.GMT.2007.argus02a.c0.daytimex.rect.erase.jpg
p1538
aV1287417600.Mon.Oct.18_16_00_00.GMT.2010.argus02a.c0.daytimex.rect.erase.jpg
p1539
aV1197392400.Tue.Dec.11_17_00_00.GMT.2007.argus02a.c0.daytimex.rect.erase.jpg
p1540
aV1161360000.Fri.Oct.20_16_00_00.GMT.2006.argus02a.c0.daytimex.rect.erase.jpg
p1541
aV927648000.Tue.May.25_16_00_00.GMT.1999.argus02a.c0.daytimex.rect.erase.jpg
p1542
aV1190822400.Wed.Sep.26_16_00_00.GMT.2007.argus02a.c0.daytimex.rect.erase.jpg
p1543
aV730486800.Tue.Feb.23_17_00_00.GMT.1993.argus02.c0.daytimex.rect.erase.jpg
p1544
aV1312473600.Thu.Aug.04_16_00_00.GMT.2011.argus02a.c0.daytimex.rect.erase.jpg
p1545
aV1272729600.Sat.May.01_16_00_00.GMT.2010.argus02a.c0.daytimex.rect.erase.jpg
p1546
aV1084982400.Wed.May.19_16_00_00.GMT.2004.argus02a.c0.daytimex.rect.erase.jpg
p1547
aV1330534800.Wed.Feb.29_17_00_00.GMT.2012.argus02a.c0.daytimex.rect.erase.jpg
p1548
aV1091030400.Wed.Jul.28_16_00_00.GMT.2004.argus02a.c0.daytimex.rect.erase.jpg
p1549
aV1194368400.Tue.Nov.06_17_00_00.GMT.2007.argus02a.c0.daytimex.rect.erase.jpg
p1550
aV807724800.Sun.Aug.06_16_00_00.GMT.1995.argus02.c0.daytimex.rect.erase.jpg
p1551
aV1193936400.Thu.Nov.01_17_00_00.GMT.2007.argus02a.c0.daytimex.rect.erase.jpg
p1552
aV1019318400.Sat.Apr.20_16_00_00.GMT.2002.argus02a.c0.daytimex.rect.erase.jpg
p1553
aV739555200.Tue.Jun.08_16_00_00.GMT.1993.argus02.c0.daytimex.rect.erase.jpg
p1554
aV1264611600.Wed.Jan.27_17_00_00.GMT.2010.argus02a.c0.daytimex.rect.erase.jpg
p1555
aV779472000.Tue.Sep.13_16_00_00.GMT.1994.argus02.c0.daytimex.rect.erase.jpg
p1556
aV779212800.Sat.Sep.10_16_00_00.GMT.1994.argus02.c0.daytimex.rect.erase.jpg
p1557
aV1273161600.Thu.May.06_16_00_00.GMT.2010.argus02a.c0.daytimex.rect.erase.jpg
p1558
aV1139590800.Fri.Feb.10_17_00_00.GMT.2006.argus02a.c0.daytimex.rect.erase.jpg
p1559
aV1190563200.Sun.Sep.23_16_00_00.GMT.2007.argus02a.c0.daytimex.rect.erase.jpg
p1560
aV965923200.Thu.Aug.10_16_00_00.GMT.2000.argus02a.c0.daytimex.rect.erase.jpg
p1561
aV1311523200.Sun.Jul.24_16_00_00.GMT.2011.argus02a.c0.daytimex.rect.erase.jpg
p1562
aV1085500800.Tue.May.25_16_00_00.GMT.2004.argus02a.c0.daytimex.rect.erase.jpg
p1563
aV932572800.Wed.Jul.21_16_00_00.GMT.1999.argus02a.c0.daytimex.rect.erase.jpg
p1564
aV932313600.Sun.Jul.18_16_00_00.GMT.1999.argus02a.c0.daytimex.rect.erase.jpg
p1565
aV1150819200.Tue.Jun.20_16_00_00.GMT.2006.argus02a.c0.daytimex.rect.erase.jpg
p1566
aV838224000.Wed.Jul.24_16_00_00.GMT.1996.argus02.c0.daytimex.rect.erase.jpg
p1567
aV1311955200.Fri.Jul.29_16_00_00.GMT.2011.argus02a.c0.daytimex.rect.erase.jpg
p1568
aV835372800.Fri.Jun.21_16_00_00.GMT.1996.argus02.c0.daytimex.rect.erase.jpg
p1569
aV1042131600.Thu.Jan.09_17_00_00.GMT.2003.argus02a.c0.daytimex.rect.erase.jpg
p1570
aV738691200.Sat.May.29_16_00_00.GMT.1993.argus02.c0.daytimex.rect.erase.jpg
p1571
aV1185984000.Wed.Aug.01_16_00_00.GMT.2007.argus02a.c0.daytimex.rect.erase.jpg
p1572
aV1409846400.Thu.Sep.04_16_00_00.GMT.2014.argus02a.c0.daytimex.rect.erase.jpg
p1573
aV1145116800.Sat.Apr.15_16_00_00.GMT.2006.argus02a.c0.daytimex.rect.erase.jpg
p1574
aV1178121600.Wed.May.02_16_00_00.GMT.2007.argus02a.c0.daytimex.rect.erase.jpg
p1575
aV1216224000.Wed.Jul.16_16_00_00.GMT.2008.argus02a.c0.daytimex.rect.erase.jpg
p1576
aV1058803200.Mon.Jul.21_16_00_00.GMT.2003.argus02a.c0.daytimex.rect.erase.jpg
p1577
aV868204800.Sun.Jul.06_16_00_00.GMT.1997.argus02.c0.daytimex.rect.erase.jpg
p1578
aV1356454800.Tue.Dec.25_17_00_00.GMT.2012.argus02a.c0.daytimex.rect.erase.jpg
p1579
aV871920000.Mon.Aug.18_16_00_00.GMT.1997.argus02.c0.daytimex.rect.erase.jpg
p1580
aV824749200.Mon.Feb.19_17_00_00.GMT.1996.argus02.c0.daytimex.rect.erase.jpg
p1581
aV838396800.Fri.Jul.26_16_00_00.GMT.1996.argus02.c0.daytimex.rect.erase.jpg
p1582
aV965059200.Mon.Jul.31_16_00_00.GMT.2000.argus02a.c0.daytimex.rect.erase.jpg
p1583
aV1065542400.Tue.Oct.07_16_00_00.GMT.2003.argus02a.c0.daytimex.rect.erase.jpg
p1584
aV843062400.Wed.Sep.18_16_00_00.GMT.1996.argus02.c0.daytimex.rect.erase.jpg
p1585
aV832608000.Mon.May.20_16_00_00.GMT.1996.argus02.c0.daytimex.rect.erase.jpg
p1586
aV1122566400.Thu.Jul.28_16_00_00.GMT.2005.argus02a.c0.daytimex.rect.erase.jpg
p1587
aV1340726400.Tue.Jun.26_16_00_00.GMT.2012.argus02a.c0.daytimex.rect.erase.jpg
p1588
aV1216396800.Fri.Jul.18_16_00_00.GMT.2008.argus02a.c0.daytimex.rect.erase.jpg
p1589
aV864489600.Sat.May.24_16_00_00.GMT.1997.argus02.c0.daytimex.rect.erase.jpg
p1590
aV1336752000.Fri.May.11_16_00_00.GMT.2012.argus02a.c0.daytimex.rect.erase.jpg
p1591
aV960566400.Fri.Jun.09_16_00_00.GMT.2000.argus02a.c0.daytimex.rect.erase.jpg
p1592
aV1356282000.Sun.Dec.23_17_00_00.GMT.2012.argus02a.c0.daytimex.rect.erase.jpg
p1593
aV1125590400.Thu.Sep.01_16_00_00.GMT.2005.argus02a.c0.daytimex.rect.erase.jpg
p1594
aV1352221200.Tue.Nov.06_17_00_00.GMT.2012.argus02a.c0.daytimex.rect.erase.jpg
p1595
aV963417600.Wed.Jul.12_16_00_00.GMT.2000.argus02a.c0.daytimex.rect.erase.jpg
p1596
aV872611200.Tue.Aug.26_16_00_00.GMT.1997.argus02.c0.daytimex.rect.erase.jpg
p1597
aV1345564800.Tue.Aug.21_16_00_00.GMT.2012.argus02a.c0.daytimex.rect.erase.jpg
p1598
aV984934800.Sun.Mar.18_17_00_00.GMT.2001.argus02a.c0.daytimex.rect.erase.jpg
p1599
aV1210176000.Wed.May.07_16_00_00.GMT.2008.argus02a.c0.daytimex.rect.erase.jpg
p1600
aV1323882000.Wed.Dec.14_17_00_00.GMT.2011.argus02a.c0.daytimex.rect.erase.jpg
p1601
aV898531200.Mon.Jun.22_16_00_00.GMT.1998.argus02a.c0.daytimex.rect.erase.jpg
p1602
aV832435200.Sat.May.18_16_00_00.GMT.1996.argus02.c0.daytimex.rect.erase.jpg
p1603
aV749750400.Mon.Oct.04_16_00_00.GMT.1993.argus02.c0.daytimex.rect.erase.jpg
p1604
aV1006275600.Tue.Nov.20_17_00_00.GMT.2001.argus02a.c0.daytimex.rect.erase.jpg
p1605
aV991584000.Sun.Jun.03_16_00_00.GMT.2001.argus02a.c0.daytimex.rect.erase.jpg
p1606
aV985539600.Sun.Mar.25_17_00_00.GMT.2001.argus02a.c0.daytimex.rect.erase.jpg
p1607
aV837446400.Mon.Jul.15_16_00_00.GMT.1996.argus02.c0.daytimex.rect.erase.jpg
p1608
aV995385600.Tue.Jul.17_16_00_00.GMT.2001.argus02a.c0.daytimex.rect.erase.jpg
p1609
aV1343664000.Mon.Jul.30_16_00_00.GMT.2012.argus02a.c0.daytimex.rect.erase.jpg
p1610
aV1362502800.Tue.Mar.05_17_00_00.GMT.2013.argus02a.c0.daytimex.rect.erase.jpg
p1611
aV1249315200.Mon.Aug.03_16_00_00.GMT.2009.argus02a.c0.daytimex.rect.erase.jpg
p1612
aV843926400.Sat.Sep.28_16_00_00.GMT.1996.argus02.c0.daytimex.rect.erase.jpg
p1613
aV1379260800.Sun.Sep.15_16_00_00.GMT.2013.argus02a.c0.daytimex.rect.erase.jpg
p1614
aV980096400.Sun.Jan.21_17_00_00.GMT.2001.argus02a.c0.daytimex.rect.erase.jpg
p1615
aV827427600.Thu.Mar.21_17_00_00.GMT.1996.argus02.c0.daytimex.rect.erase.jpg
p1616
aV745257600.Fri.Aug.13_16_00_00.GMT.1993.argus02.c0.daytimex.rect.erase.jpg
p1617
aV964972800.Sun.Jul.30_16_00_00.GMT.2000.argus02a.c0.daytimex.rect.erase.jpg
p1618
aV1407945600.Wed.Aug.13_16_00_00.GMT.2014.argus02a.c0.daytimex.rect.erase.jpg
p1619
aV1248624000.Sun.Jul.26_16_00_00.GMT.2009.argus02a.c0.daytimex.rect.erase.jpg
p1620
aV832348800.Fri.May.17_16_00_00.GMT.1996.argus02.c0.daytimex.rect.erase.jpg
p1621
aV1250784000.Thu.Aug.20_16_00_00.GMT.2009.argus02a.c0.daytimex.rect.erase.jpg
p1622
aV839952000.Tue.Aug.13_16_00_00.GMT.1996.argus02.c0.daytimex.rect.erase.jpg
p1623
aV1343750400.Tue.Jul.31_16_00_00.GMT.2012.argus02a.c0.daytimex.rect.erase.jpg
p1624
aV1003507200.Fri.Oct.19_16_00_00.GMT.2001.argus02a.c0.daytimex.rect.erase.jpg
p1625
aV1214755200.Sun.Jun.29_16_00_00.GMT.2008.argus02a.c0.daytimex.rect.erase.jpg
p1626
aV1002902400.Fri.Oct.12_16_00_00.GMT.2001.argus02a.c0.daytimex.rect.erase.jpg
p1627
aV1094227200.Fri.Sep.03_16_00_00.GMT.2004.argus02a.c0.daytimex.rect.erase.jpg
p1628
aV842198400.Sun.Sep.08_16_00_00.GMT.1996.argus02.c0.daytimex.rect.erase.jpg
p1629
aV746035200.Sun.Aug.22_16_00_00.GMT.1993.argus02.c0.daytimex.rect.erase.jpg
p1630
aV840297600.Sat.Aug.17_16_00_00.GMT.1996.argus02.c0.daytimex.rect.erase.jpg
p1631
aV1055606400.Sat.Jun.14_16_00_00.GMT.2003.argus02a.c0.daytimex.rect.erase.jpg
p1632
aV1005325200.Fri.Nov.09_17_00_00.GMT.2001.argus02a.c0.daytimex.rect.erase.jpg
p1633
aV1356714000.Fri.Dec.28_17_00_00.GMT.2012.argus02a.c0.daytimex.rect.erase.jpg
p1634
aV870796800.Tue.Aug.05_16_00_00.GMT.1997.argus02.c0.daytimex.rect.erase.jpg
p1635
aV1333468800.Tue.Apr.03_16_00_00.GMT.2012.argus02a.c0.daytimex.rect.erase.jpg
p1636
aV965577600.Sun.Aug.06_16_00_00.GMT.2000.argus02a.c0.daytimex.rect.erase.jpg
p1637
aV1283184000.Mon.Aug.30_16_00_00.GMT.2010.argus02a.c0.daytimex.rect.erase.jpg
p1638
aV1343145600.Tue.Jul.24_16_00_00.GMT.2012.argus02a.c0.daytimex.rect.erase.jpg
p1639
aV842976000.Tue.Sep.17_16_00_00.GMT.1996.argus02.c0.daytimex.rect.erase.jpg
p1640
aV871747200.Sat.Aug.16_16_00_00.GMT.1997.argus02.c0.daytimex.rect.erase.jpg
p1641
aV1333126800.Fri.Mar.30_17_00_00.GMT.2012.argus02a.c0.daytimex.rect.erase.jpg
p1642
aV1354899600.Fri.Dec.07_17_00_00.GMT.2012.argus02a.c0.daytimex.rect.erase.jpg
p1643
aV784746000.Sun.Nov.13_17_00_00.GMT.1994.argus02.c0.daytimex.rect.erase.jpg
p1644
aV1354813200.Thu.Dec.06_17_00_00.GMT.2012.argus02a.c0.daytimex.rect.erase.jpg
p1645
aV1164819600.Wed.Nov.29_17_00_00.GMT.2006.argus02a.c0.daytimex.rect.erase.jpg
p1646
aV1156867200.Tue.Aug.29_16_00_00.GMT.2006.argus02a.c0.daytimex.rect.erase.jpg
p1647
aV966873600.Mon.Aug.21_16_00_00.GMT.2000.argus02a.c0.daytimex.rect.erase.jpg
p1648
aV1049216400.Tue.Apr.01_17_00_00.GMT.2003.argus02a.c0.daytimex.rect.erase.jpg
p1649
aV1334160000.Wed.Apr.11_16_00_00.GMT.2012.argus02a.c0.daytimex.rect.erase.jpg
p1650
aV1381593600.Sat.Oct.12_16_00_00.GMT.2013.argus02a.c0.daytimex.rect.erase.jpg
p1651
aV1401552000.Sat.May.31_16_00_00.GMT.2014.argus02a.c0.daytimex.rect.erase.jpg
p1652
aV1098892800.Wed.Oct.27_16_00_00.GMT.2004.argus02a.c0.daytimex.rect.erase.jpg
p1653
aV1373644800.Fri.Jul.12_16_00_00.GMT.2013.argus02a.c0.daytimex.rect.erase.jpg
p1654
aV1337616000.Mon.May.21_16_00_00.GMT.2012.argus02a.c0.daytimex.rect.erase.jpg
p1655
aV1030809600.Sat.Aug.31_16_00_00.GMT.2002.argus02a.c0.daytimex.rect.erase.jpg
p1656
aV1096646400.Fri.Oct.01_16_00_00.GMT.2004.argus02a.c0.daytimex.rect.erase.jpg
p1657
aV888166800.Sun.Feb.22_17_00_00.GMT.1998.argus02a.c0.daytimex.rect.erase.jpg
p1658
aV1069693200.Mon.Nov.24_17_00_00.GMT.2003.argus02a.c0.daytimex.rect.erase.jpg
p1659
aV1031414400.Sat.Sep.07_16_00_00.GMT.2002.argus02a.c0.daytimex.rect.erase.jpg
p1660
aV1378483200.Fri.Sep.06_16_00_00.GMT.2013.argus02a.c0.daytimex.rect.erase.jpg
p1661
aV1030809600.Sat.Aug.31_16_00_00.GMT.2002.argus02a.c0.daytimex.rect.erase.jpg
p1662
aV873216000.Tue.Sep.02_16_00_00.GMT.1997.argus02.c0.daytimex.rect.erase.jpg
p1663
aV1247068800.Wed.Jul.08_16_00_00.GMT.2009.argus02a.c0.daytimex.rect.erase.jpg
p1664
aV801676800.Sun.May.28_16_00_00.GMT.1995.argus02.c0.daytimex.rect.erase.jpg
p1665
aV1097596800.Tue.Oct.12_16_00_00.GMT.2004.argus02a.c0.daytimex.rect.erase.jpg
p1666
aV1358787600.Mon.Jan.21_17_00_00.GMT.2013.argus02a.c0.daytimex.rect.erase.jpg
p1667
aV1211040000.Sat.May.17_16_00_00.GMT.2008.argus02a.c0.daytimex.rect.erase.jpg
p1668
aV1097337600.Sat.Oct.09_16_00_00.GMT.2004.argus02a.c0.daytimex.rect.erase.jpg
p1669
aV1081699200.Sun.Apr.11_16_00_00.GMT.2004.argus02a.c0.daytimex.rect.erase.jpg
p1670
aV1380643200.Tue.Oct.01_16_00_00.GMT.2013.argus02a.c0.daytimex.rect.erase.jpg
p1671
aV1121011200.Sun.Jul.10_16_00_00.GMT.2005.argus02a.c0.daytimex.rect.erase.jpg
p1672
aV971798400.Tue.Oct.17_16_00_00.GMT.2000.argus02a.c0.daytimex.rect.erase.jpg
p1673
aV1404403200.Thu.Jul.03_16_00_00.GMT.2014.argus02a.c0.daytimex.rect.erase.jpg
p1674
aV896630400.Sun.May.31_16_00_00.GMT.1998.argus02a.c0.daytimex.rect.erase.jpg
p1675
aV1009818000.Mon.Dec.31_17_00_00.GMT.2001.argus02a.c0.daytimex.rect.erase.jpg
p1676
aV1023379200.Thu.Jun.06_16_00_00.GMT.2002.argus02a.c0.daytimex.rect.erase.jpg
p1677
aV1358960400.Wed.Jan.23_17_00_00.GMT.2013.argus02a.c0.daytimex.rect.erase.jpg
p1678
aV1119801600.Sun.Jun.26_16_00_00.GMT.2005.argus02a.c0.daytimex.rect.erase.jpg
p1679
aV1115308800.Thu.May.05_16_00_00.GMT.2005.argus02a.c0.daytimex.rect.erase.jpg
p1680
aV867340800.Thu.Jun.26_16_00_00.GMT.1997.argus02.c0.daytimex.rect.erase.jpg
p1681
aV856976400.Wed.Feb.26_17_00_00.GMT.1997.argus02.c0.daytimex.rect.erase.jpg
p1682
aV738000000.Fri.May.21_16_00_00.GMT.1993.argus02.c0.daytimex.rect.erase.jpg
p1683
aV902246400.Tue.Aug.04_16_00_00.GMT.1998.argus02a.c0.daytimex.rect.erase.jpg
p1684
aV1122048000.Fri.Jul.22_16_00_00.GMT.2005.argus02a.c0.daytimex.rect.erase.jpg
p1685
aV1019836800.Fri.Apr.26_16_00_00.GMT.2002.argus02a.c0.daytimex.rect.erase.jpg
p1686
aV1335024000.Sat.Apr.21_16_00_00.GMT.2012.argus02a.c0.daytimex.rect.erase.jpg
p1687
aV1401379200.Thu.May.29_16_00_00.GMT.2014.argus02a.c0.daytimex.rect.erase.jpg
p1688
aV1339257600.Sat.Jun.09_16_00_00.GMT.2012.argus02a.c0.daytimex.rect.erase.jpg
p1689
aV1373731200.Sat.Jul.13_16_00_00.GMT.2013.argus02a.c0.daytimex.rect.erase.jpg
p1690
aV896889600.Wed.Jun.03_16_00_00.GMT.1998.argus02a.c0.daytimex.rect.erase.jpg
p1691
aV740246400.Wed.Jun.16_16_00_00.GMT.1993.argus02.c0.daytimex.rect.erase.jpg
p1692
aV1377014400.Tue.Aug.20_16_00_00.GMT.2013.argus02a.c0.daytimex.rect.erase.jpg
p1693
aV1358787600.Mon.Jan.21_17_00_00.GMT.2013.argus02a.c0.daytimex.rect.erase.jpg
p1694
aV1023465600.Fri.Jun.07_16_00_00.GMT.2002.argus02a.c0.daytimex.rect.erase.jpg
p1695
aV740332800.Thu.Jun.17_16_00_00.GMT.1993.argus02.c0.daytimex.rect.erase.jpg
p1696
aV805219200.Sat.Jul.08_16_00_00.GMT.1995.argus02.c0.daytimex.rect.erase.jpg
p1697
aV900432000.Tue.Jul.14_16_00_00.GMT.1998.argus02a.c0.daytimex.rect.erase.jpg
p1698
aV896457600.Fri.May.29_16_00_00.GMT.1998.argus02a.c0.daytimex.rect.erase.jpg
p1699
aV1379088000.Fri.Sep.13_16_00_00.GMT.2013.argus02a.c0.daytimex.rect.erase.jpg
p1700
aV958147200.Fri.May.12_16_00_00.GMT.2000.argus02a.c0.daytimex.rect.erase.jpg
p1701
aV736531200.Tue.May.04_16_00_00.GMT.1993.argus02.c0.daytimex.rect.erase.jpg
p1702
aV958665600.Thu.May.18_16_00_00.GMT.2000.argus02a.c0.daytimex.rect.erase.jpg
p1703
aV1014742800.Tue.Feb.26_17_00_00.GMT.2002.argus02a.c0.daytimex.rect.erase.jpg
p1704
aV954608400.Sat.Apr.01_17_00_00.GMT.2000.argus02a.c0.daytimex.rect.erase.jpg
p1705
aV1095523200.Sat.Sep.18_16_00_00.GMT.2004.argus02a.c0.daytimex.rect.erase.jpg
p1706
aV1113840000.Mon.Apr.18_16_00_00.GMT.2005.argus02a.c0.daytimex.rect.erase.jpg
p1707
aV1401897600.Wed.Jun.04_16_00_00.GMT.2014.argus02a.c0.daytimex.rect.erase.jpg
p1708
aV910803600.Wed.Nov.11_17_00_00.GMT.1998.argus02a.c0.daytimex.rect.erase.jpg
p1709
aV1383411600.Sat.Nov.02_17_00_00.GMT.2013.argus02a.c0.daytimex.rect.erase.jpg
p1710
aV860515200.Tue.Apr.08_16_00_00.GMT.1997.argus02.c0.daytimex.rect.erase.jpg
p1711
aV1031328000.Fri.Sep.06_16_00_00.GMT.2002.argus02a.c0.daytimex.rect.erase.jpg
p1712
aV1114012800.Wed.Apr.20_16_00_00.GMT.2005.argus02a.c0.daytimex.rect.erase.jpg
p1713
aV1382198400.Sat.Oct.19_16_00_00.GMT.2013.argus02a.c0.daytimex.rect.erase.jpg
p1714
aV1253721600.Wed.Sep.23_16_00_00.GMT.2009.argus02a.c0.daytimex.rect.erase.jpg
p1715
aV1247760000.Thu.Jul.16_16_00_00.GMT.2009.argus02a.c0.daytimex.rect.erase.jpg
p1716
aV1255276800.Sun.Oct.11_16_00_00.GMT.2009.argus02a.c0.daytimex.rect.erase.jpg
p1717
aV1080752400.Wed.Mar.31_17_00_00.GMT.2004.argus02a.c0.daytimex.rect.erase.jpg
p1718
aV1336060800.Thu.May.03_16_00_00.GMT.2012.argus02a.c0.daytimex.rect.erase.jpg
p1719
aV1008349200.Fri.Dec.14_17_00_00.GMT.2001.argus02a.c0.daytimex.rect.erase.jpg
p1720
aV1383843600.Thu.Nov.07_17_00_00.GMT.2013.argus02a.c0.daytimex.rect.erase.jpg
p1721
aV739296000.Sat.Jun.05_16_00_00.GMT.1993.argus02.c0.daytimex.rect.erase.jpg
p1722
aV1401120000.Mon.May.26_16_00_00.GMT.2014.argus02a.c0.daytimex.rect.erase.jpg
p1723
aV1400515200.Mon.May.19_16_00_00.GMT.2014.argus02a.c0.daytimex.rect.erase.jpg
p1724
aV1355590800.Sat.Dec.15_17_00_00.GMT.2012.argus02a.c0.daytimex.rect.erase.jpg
p1725
aV1226250000.Sun.Nov.09_17_00_00.GMT.2008.argus02a.c0.daytimex.rect.erase.jpg
p1726
aV796410000.Tue.Mar.28_17_00_00.GMT.1995.argus02.c0.daytimex.rect.erase.jpg
p1727
aV1226422800.Tue.Nov.11_17_00_00.GMT.2008.argus02a.c0.daytimex.rect.erase.jpg
p1728
aV1338480000.Thu.May.31_16_00_00.GMT.2012.argus02a.c0.daytimex.rect.erase.jpg
p1729
aV1337875200.Thu.May.24_16_00_00.GMT.2012.argus02a.c0.daytimex.rect.erase.jpg
p1730
aV1388509200.Tue.Dec.31_17_00_00.GMT.2013.argus02a.c0.daytimex.rect.erase.jpg
p1731
aV1101229200.Tue.Nov.23_17_00_00.GMT.2004.argus02a.c0.daytimex.rect.erase.jpg
p1732
aV1233248400.Thu.Jan.29_17_00_00.GMT.2009.argus02a.c0.daytimex.rect.erase.jpg
p1733
aV813340800.Tue.Oct.10_16_00_00.GMT.1995.argus02.c0.daytimex.rect.erase.jpg
p1734
aV1265648400.Mon.Feb.08_17_00_00.GMT.2010.argus02a.c0.daytimex.rect.erase.jpg
p1735
aV1284393600.Mon.Sep.13_16_00_00.GMT.2010.argus02a.c0.daytimex.rect.erase.jpg
p1736
aV1233421200.Sat.Jan.31_17_00_00.GMT.2009.argus02a.c0.daytimex.rect.erase.jpg
p1737
aV1127318400.Wed.Sep.21_16_00_00.GMT.2005.argus02a.c0.daytimex.rect.erase.jpg
p1738
aV1396972800.Tue.Apr.08_16_00_00.GMT.2014.argus02a.c0.daytimex.rect.erase.jpg
p1739
aV1272297600.Mon.Apr.26_16_00_00.GMT.2010.argus02a.c0.daytimex.rect.erase.jpg
p1740
aV1305561600.Mon.May.16_16_00_00.GMT.2011.argus02a.c0.daytimex.rect.erase.jpg
p1741
aV1294160400.Tue.Jan.04_17_00_00.GMT.2011.argus02a.c0.daytimex.rect.erase.jpg
p1742
aV1226163600.Sat.Nov.08_17_00_00.GMT.2008.argus02a.c0.daytimex.rect.erase.jpg
p1743
aV1023897600.Wed.Jun.12_16_00_00.GMT.2002.argus02a.c0.daytimex.rect.erase.jpg
p1744
aV1395594000.Sun.Mar.23_17_00_00.GMT.2014.argus02a.c0.daytimex.rect.erase.jpg
p1745
aV1338566400.Fri.Jun.01_16_00_00.GMT.2012.argus02a.c0.daytimex.rect.erase.jpg
p1746
aV1293642000.Wed.Dec.29_17_00_00.GMT.2010.argus02a.c0.daytimex.rect.erase.jpg
p1747
aV1397577600.Tue.Apr.15_16_00_00.GMT.2014.argus02a.c0.daytimex.rect.erase.jpg
p1748
aV1139677200.Sat.Feb.11_17_00_00.GMT.2006.argus02a.c0.daytimex.rect.erase.jpg
p1749
aV1391274000.Sat.Feb.01_17_00_00.GMT.2014.argus02a.c0.daytimex.rect.erase.jpg
p1750
aV1235235600.Sat.Feb.21_17_00_00.GMT.2009.argus02a.c0.daytimex.rect.erase.jpg
p1751
aV1256576400.Mon.Oct.26_17_00_00.GMT.2009.argus02a.c0.daytimex.rect.erase.jpg
p1752
aV1175360400.Sat.Mar.31_17_00_00.GMT.2007.argus02a.c0.daytimex.rect.erase.jpg
p1753
aV799084800.Fri.Apr.28_16_00_00.GMT.1995.argus02.c0.daytimex.rect.erase.jpg
p1754
aV1307116800.Fri.Jun.03_16_00_00.GMT.2011.argus02a.c0.daytimex.rect.erase.jpg
p1755
aV1015693200.Sat.Mar.09_17_00_00.GMT.2002.argus02a.c0.daytimex.rect.erase.jpg
p1756
aV1291741200.Tue.Dec.07_17_00_00.GMT.2010.argus02a.c0.daytimex.rect.erase.jpg
p1757
aV1411142400.Fri.Sep.19_16_00_00.GMT.2014.argus02a.c0.daytimex.rect.erase.jpg
p1758
aV1014310800.Thu.Feb.21_17_00_00.GMT.2002.argus02a.c0.daytimex.rect.erase.jpg
p1759
aV1396198800.Sun.Mar.30_17_00_00.GMT.2014.argus02a.c0.daytimex.rect.erase.jpg
p1760
aV1385139600.Fri.Nov.22_17_00_00.GMT.2013.argus02a.c0.daytimex.rect.erase.jpg
p1761
aV1068570000.Tue.Nov.11_17_00_00.GMT.2003.argus02a.c0.daytimex.rect.erase.jpg
p1762
aV1233421200.Sat.Jan.31_17_00_00.GMT.2009.argus02a.c0.daytimex.rect.erase.jpg
p1763
aV1135702800.Tue.Dec.27_17_00_00.GMT.2005.argus02a.c0.daytimex.rect.erase.jpg
p1764
aV1256054400.Tue.Oct.20_16_00_00.GMT.2009.argus02a.c0.daytimex.rect.erase.jpg
p1765
aV1072026000.Sun.Dec.21_17_00_00.GMT.2003.argus02a.c0.daytimex.rect.erase.jpg
p1766
aV1103043600.Tue.Dec.14_17_00_00.GMT.2004.argus02a.c0.daytimex.rect.erase.jpg
p1767
aV1252771200.Sat.Sep.12_16_00_00.GMT.2009.argus02a.c0.daytimex.rect.erase.jpg
p1768
aV1285603200.Mon.Sep.27_16_00_00.GMT.2010.argus02a.c0.daytimex.rect.erase.jpg
p1769
aV809798400.Wed.Aug.30_16_00_00.GMT.1995.argus02.c0.daytimex.rect.erase.jpg
p1770
aV1243526400.Thu.May.28_16_00_00.GMT.2009.argus02a.c0.daytimex.rect.erase.jpg
p1771
aV1234285200.Tue.Feb.10_17_00_00.GMT.2009.argus02a.c0.daytimex.rect.erase.jpg
p1772
aV1226336400.Mon.Nov.10_17_00_00.GMT.2008.argus02a.c0.daytimex.rect.erase.jpg
p1773
aV1393347600.Tue.Feb.25_17_00_00.GMT.2014.argus02a.c0.daytimex.rect.erase.jpg
p1774
aV920134800.Sat.Feb.27_17_00_00.GMT.1999.argus02a.c0.daytimex.rect.erase.jpg
p1775
aV788893200.Sat.Dec.31_17_00_00.GMT.1994.argus02.c0.daytimex.rect.erase.jpg
p1776
aV924451200.Sun.Apr.18_16_00_00.GMT.1999.argus02a.c0.daytimex.rect.erase.jpg
p1777
aV905097600.Sun.Sep.06_16_00_00.GMT.1998.argus02a.c0.daytimex.rect.erase.jpg
p1778
aV1409068800.Tue.Aug.26_16_00_00.GMT.2014.argus02a.c0.daytimex.rect.erase.jpg
p1779
aV1385917200.Sun.Dec.01_17_00_00.GMT.2013.argus02a.c0.daytimex.rect.erase.jpg
p1780
aV1235235600.Sat.Feb.21_17_00_00.GMT.2009.argus02a.c0.daytimex.rect.erase.jpg
p1781
aV1255449600.Tue.Oct.13_16_00_00.GMT.2009.argus02a.c0.daytimex.rect.erase.jpg
p1782
aV809539200.Sun.Aug.27_16_00_00.GMT.1995.argus02.c0.daytimex.rect.erase.jpg
p1783
aV1337616000.Mon.May.21_16_00_00.GMT.2012.argus02a.c0.daytimex.rect.erase.jpg
p1784
aV1177344000.Mon.Apr.23_16_00_00.GMT.2007.argus02a.c0.daytimex.rect.erase.jpg
p1785
aV809366400.Fri.Aug.25_16_00_00.GMT.1995.argus02.c0.daytimex.rect.erase.jpg
p1786
aV1359306000.Sun.Jan.27_17_00_00.GMT.2013.argus02a.c0.daytimex.rect.erase.jpg
p1787
aV1072630800.Sun.Dec.28_17_00_00.GMT.2003.argus02a.c0.daytimex.rect.erase.jpg
p1788
aV1233248400.Thu.Jan.29_17_00_00.GMT.2009.argus02a.c0.daytimex.rect.erase.jpg
p1789
aV1416157200.Sun.Nov.16_17_00_00.GMT.2014.argus02a.c0.daytimex.rect.erase.jpg
p1790
aV1386176400.Wed.Dec.04_17_00_00.GMT.2013.argus02a.c0.daytimex.rect.erase.jpg
p1791
aV1032624000.Sat.Sep.21_16_00_00.GMT.2002.argus02a.c0.daytimex.rect.erase.jpg
p1792
aV1036170000.Fri.Nov.01_17_00_00.GMT.2002.argus02a.c0.daytimex.rect.erase.jpg
p1793
aV1385226000.Sat.Nov.23_17_00_00.GMT.2013.argus02a.c0.daytimex.rect.erase.jpg
p1794
aV1100710800.Wed.Nov.17_17_00_00.GMT.2004.argus02a.c0.daytimex.rect.erase.jpg
p1795
aV1293814800.Fri.Dec.31_17_00_00.GMT.2010.argus02a.c0.daytimex.rect.erase.jpg
p1796
aV1024070400.Fri.Jun.14_16_00_00.GMT.2002.argus02a.c0.daytimex.rect.erase.jpg
p1797
aV796064400.Fri.Mar.24_17_00_00.GMT.1995.argus02.c0.daytimex.rect.erase.jpg
p1798
aV1118073600.Mon.Jun.06_16_00_00.GMT.2005.argus02a.c0.daytimex.rect.erase.jpg
p1799
aV1178294400.Fri.May.04_16_00_00.GMT.2007.argus02a.c0.daytimex.rect.erase.jpg
p1800
aV780249600.Thu.Sep.22_16_00_00.GMT.1994.argus02.c0.daytimex.rect.erase.jpg
p1801
aV755888400.Tue.Dec.14_17_00_00.GMT.1993.argus02.c0.daytimex.rect.erase.jpg
p1802
aV1308067200.Tue.Jun.14_16_00_00.GMT.2011.argus02a.c0.daytimex.rect.erase.jpg
p1803
aV1181836800.Thu.Jun.14_16_00_00.GMT.2007.argus02a.c0.daytimex.rect.erase.jpg
p1804
aV1387645200.Sat.Dec.21_17_00_00.GMT.2013.argus02a.c0.daytimex.rect.erase.jpg
p1805
aV1038416400.Wed.Nov.27_17_00_00.GMT.2002.argus02a.c0.daytimex.rect.erase.jpg
p1806
aV1029513600.Fri.Aug.16_16_00_00.GMT.2002.argus02a.c0.daytimex.rect.erase.jpg
p1807
aV873475200.Fri.Sep.05_16_00_00.GMT.1997.argus02.c0.daytimex.rect.erase.jpg
p1808
aV1350057600.Fri.Oct.12_16_00_00.GMT.2012.argus02a.c0.daytimex.rect.erase.jpg
p1809
aV1298394000.Tue.Feb.22_17_00_00.GMT.2011.argus02a.c0.daytimex.rect.erase.jpg
p1810
aV755974800.Wed.Dec.15_17_00_00.GMT.1993.argus02.c0.daytimex.rect.erase.jpg
p1811
aV1169312400.Sat.Jan.20_17_00_00.GMT.2007.argus02a.c0.daytimex.rect.erase.jpg
p1812
aV769190400.Tue.May.17_16_00_00.GMT.1994.argus02.c0.daytimex.rect.erase.jpg
p1813
aV1285689600.Tue.Sep.28_16_00_00.GMT.2010.argus02a.c0.daytimex.rect.erase.jpg
p1814
aV1293210000.Fri.Dec.24_17_00_00.GMT.2010.argus02a.c0.daytimex.rect.erase.jpg
p1815
aV793213200.Sun.Feb.19_17_00_00.GMT.1995.argus02.c0.daytimex.rect.erase.jpg
p1816
aV819738000.Sat.Dec.23_17_00_00.GMT.1995.argus02.c0.daytimex.rect.erase.jpg
p1817
aV1304611200.Thu.May.05_16_00_00.GMT.2011.argus02a.c0.daytimex.rect.erase.jpg
p1818
aV1071248400.Fri.Dec.12_17_00_00.GMT.2003.argus02a.c0.daytimex.rect.erase.jpg
p1819
aV1232816400.Sat.Jan.24_17_00_00.GMT.2009.argus02a.c0.daytimex.rect.erase.jpg
p1820
aV1409587200.Mon.Sep.01_16_00_00.GMT.2014.argus02a.c0.daytimex.rect.erase.jpg
p1821
aV923328000.Mon.Apr.05_16_00_00.GMT.1999.argus02a.c0.daytimex.rect.erase.jpg
p1822
aV1137690000.Thu.Jan.19_17_00_00.GMT.2006.argus02a.c0.daytimex.rect.erase.jpg
p1823
aV1132160400.Wed.Nov.16_17_00_00.GMT.2005.argus02a.c0.daytimex.rect.erase.jpg
p1824
aV1251820800.Tue.Sep.01_16_00_00.GMT.2009.argus02a.c0.daytimex.rect.erase.jpg
p1825
aV1166547600.Tue.Dec.19_17_00_00.GMT.2006.argus02a.c0.daytimex.rect.erase.jpg
p1826
aV817923600.Sat.Dec.02_17_00_00.GMT.1995.argus02.c0.daytimex.rect.erase.jpg
p1827
aV966182400.Sun.Aug.13_16_00_00.GMT.2000.argus02a.c0.daytimex.rect.erase.jpg
p1828
aV1072285200.Wed.Dec.24_17_00_00.GMT.2003.argus02a.c0.daytimex.rect.erase.jpg
p1829
aV1169485200.Mon.Jan.22_17_00_00.GMT.2007.argus02a.c0.daytimex.rect.erase.jpg
p1830
aV847386000.Thu.Nov.07_17_00_00.GMT.1996.argus02.c0.daytimex.rect.erase.jpg
p1831
aV1413820800.Mon.Oct.20_16_00_00.GMT.2014.argus02a.c0.daytimex.rect.erase.jpg
p1832
aV817059600.Wed.Nov.22_17_00_00.GMT.1995.argus02.c0.daytimex.rect.erase.jpg
p1833
aV791139600.Thu.Jan.26_17_00_00.GMT.1995.argus02.c0.daytimex.rect.erase.jpg
p1834
aV769708800.Mon.May.23_16_00_00.GMT.1994.argus02.c0.daytimex.rect.erase.jpg
p1835
aV1197565200.Thu.Dec.13_17_00_00.GMT.2007.argus02a.c0.daytimex.rect.erase.jpg
p1836
aV768844800.Fri.May.13_16_00_00.GMT.1994.argus02.c0.daytimex.rect.erase.jpg
p1837
aV1193500800.Sat.Oct.27_16_00_00.GMT.2007.argus02a.c0.daytimex.rect.erase.jpg
p1838
aV1141405200.Fri.Mar.03_17_00_00.GMT.2006.argus02a.c0.daytimex.rect.erase.jpg
p1839
aV1075914000.Wed.Feb.04_17_00_00.GMT.2004.argus02a.c0.daytimex.rect.erase.jpg
p1840
aV1103821200.Thu.Dec.23_17_00_00.GMT.2004.argus02a.c0.daytimex.rect.erase.jpg
p1841
aV1298307600.Mon.Feb.21_17_00_00.GMT.2011.argus02a.c0.daytimex.rect.erase.jpg
p1842
aV807984000.Wed.Aug.09_16_00_00.GMT.1995.argus02.c0.daytimex.rect.erase.jpg
p1843
aV915642000.Wed.Jan.06_17_00_00.GMT.1999.argus02a.c0.daytimex.rect.erase.jpg
p1844
aV778176000.Mon.Aug.29_16_00_00.GMT.1994.argus02.c0.daytimex.rect.erase.jpg
p1845
aV1304438400.Tue.May.03_16_00_00.GMT.2011.argus02a.c0.daytimex.rect.erase.jpg
p1846
aV889722000.Thu.Mar.12_17_00_00.GMT.1998.argus02a.c0.daytimex.rect.erase.jpg
p1847
aV820774800.Thu.Jan.04_17_00_00.GMT.1996.argus02.c0.daytimex.rect.erase.jpg
p1848
aV1076259600.Sun.Feb.08_17_00_00.GMT.2004.argus02a.c0.daytimex.rect.erase.jpg
p1849
aV781632000.Sat.Oct.08_16_00_00.GMT.1994.argus02.c0.daytimex.rect.erase.jpg
p1850
aV1172250000.Fri.Feb.23_17_00_00.GMT.2007.argus02a.c0.daytimex.rect.erase.jpg
p1851
aV916419600.Fri.Jan.15_17_00_00.GMT.1999.argus02a.c0.daytimex.rect.erase.jpg
p1852
aV820256400.Fri.Dec.29_17_00_00.GMT.1995.argus02.c0.daytimex.rect.erase.jpg
p1853
aV1041008400.Fri.Dec.27_17_00_00.GMT.2002.argus02a.c0.daytimex.rect.erase.jpg
p1854
aV1303660800.Sun.Apr.24_16_00_00.GMT.2011.argus02a.c0.daytimex.rect.erase.jpg
p1855
aV913309200.Thu.Dec.10_17_00_00.GMT.1998.argus02a.c0.daytimex.rect.erase.jpg
p1856
aV1175014800.Tue.Mar.27_17_00_00.GMT.2007.argus02a.c0.daytimex.rect.erase.jpg
p1857
aV1104339600.Wed.Dec.29_17_00_00.GMT.2004.argus02a.c0.daytimex.rect.erase.jpg
p1858
aV1133197200.Mon.Nov.28_17_00_00.GMT.2005.argus02a.c0.daytimex.rect.erase.jpg
p1859
aV1288630800.Mon.Nov.01_17_00_00.GMT.2010.argus02a.c0.daytimex.rect.erase.jpg
p1860
aV1195750800.Thu.Nov.22_17_00_00.GMT.2007.argus02a.c0.daytimex.rect.erase.jpg
p1861
aV1165165200.Sun.Dec.03_17_00_00.GMT.2006.argus02a.c0.daytimex.rect.erase.jpg
p1862
aV798912000.Wed.Apr.26_16_00_00.GMT.1995.argus02.c0.daytimex.rect.erase.jpg
p1863
aV1163782800.Fri.Nov.17_17_00_00.GMT.2006.argus02a.c0.daytimex.rect.erase.jpg
p1864
aV1385053200.Thu.Nov.21_17_00_00.GMT.2013.argus02a.c0.daytimex.rect.erase.jpg
p1865
aV764701200.Sat.Mar.26_17_00_00.GMT.1994.argus02.c0.daytimex.rect.erase.jpg
p1866
aV1390323600.Tue.Jan.21_17_00_00.GMT.2014.argus02a.c0.daytimex.rect.erase.jpg
p1867
aV1234890000.Tue.Feb.17_17_00_00.GMT.2009.argus02a.c0.daytimex.rect.erase.jpg
p1868
aV817318800.Sat.Nov.25_17_00_00.GMT.1995.argus02.c0.daytimex.rect.erase.jpg
p1869
aV1181923200.Fri.Jun.15_16_00_00.GMT.2007.argus02a.c0.daytimex.rect.erase.jpg
p1870
aV1299862800.Fri.Mar.11_17_00_00.GMT.2011.argus02a.c0.daytimex.rect.erase.jpg
p1871
aV874166400.Sat.Sep.13_16_00_00.GMT.1997.argus02.c0.daytimex.rect.erase.jpg
p1872
aV875808000.Thu.Oct.02_16_00_00.GMT.1997.argus02.c0.daytimex.rect.erase.jpg
p1873
aV907344000.Fri.Oct.02_16_00_00.GMT.1998.argus02a.c0.daytimex.rect.erase.jpg
p1874
aV1317398400.Fri.Sep.30_16_00_00.GMT.2011.argus02a.c0.daytimex.rect.erase.jpg
p1875
aV775584000.Sat.Jul.30_16_00_00.GMT.1994.argus02.c0.daytimex.rect.gamma.jpg
p1876
aV1310572800.Wed.Jul.13_16_00_00.GMT.2011.argus02a.c0.daytimex.rect.gamma.jpg
p1877
aV963331200.Tue.Jul.11_16_00_00.GMT.2000.argus02a.c0.daytimex.rect.gamma.jpg
p1878
aV1263661200.Sat.Jan.16_17_00_00.GMT.2010.argus02a.c0.daytimex.rect.gamma.jpg
p1879
aV1260896400.Tue.Dec.15_17_00_00.GMT.2009.argus02a.c0.daytimex.rect.gamma.jpg
p1880
aV741283200.Mon.Jun.28_16_00_00.GMT.1993.argus02.c0.daytimex.rect.gamma.jpg
p1881
aV1330966800.Mon.Mar.05_17_00_00.GMT.2012.argus02a.c0.daytimex.rect.gamma.jpg
p1882
aV1192464000.Mon.Oct.15_16_00_00.GMT.2007.argus02a.c0.daytimex.rect.gamma.jpg
p1883
aV1076518800.Wed.Feb.11_17_00_00.GMT.2004.argus02a.c0.daytimex.rect.gamma.jpg
p1884
aV1215100800.Thu.Jul.03_16_00_00.GMT.2008.argus02a.c0.daytimex.rect.gamma.jpg
p1885
aV1321462800.Wed.Nov.16_17_00_00.GMT.2011.argus02a.c0.daytimex.rect.gamma.jpg
p1886
aV1326560400.Sat.Jan.14_17_00_00.GMT.2012.argus02a.c0.daytimex.rect.gamma.jpg
p1887
aV757011600.Mon.Dec.27_17_00_00.GMT.1993.argus02.c0.daytimex.rect.gamma.jpg
p1888
aV1329325200.Wed.Feb.15_17_00_00.GMT.2012.argus02a.c0.daytimex.rect.gamma.jpg
p1889
aV1322413200.Sun.Nov.27_17_00_00.GMT.2011.argus02a.c0.daytimex.rect.gamma.jpg
p1890
aV775152000.Mon.Jul.25_16_00_00.GMT.1994.argus02.c0.daytimex.rect.gamma.jpg
p1891
aV1184169600.Wed.Jul.11_16_00_00.GMT.2007.argus02a.c0.daytimex.rect.gamma.jpg
p1892
aV1184342400.Fri.Jul.13_16_00_00.GMT.2007.argus02a.c0.daytimex.rect.gamma.jpg
p1893
aV1084291200.Tue.May.11_16_00_00.GMT.2004.argus02a.c0.daytimex.rect.gamma.jpg
p1894
aV992793600.Sun.Jun.17_16_00_00.GMT.2001.argus02a.c0.daytimex.rect.gamma.jpg
p1895
aV992448000.Wed.Jun.13_16_00_00.GMT.2001.argus02a.c0.daytimex.rect.gamma.jpg
p1896
aV1165856400.Mon.Dec.11_17_00_00.GMT.2006.argus02a.c0.daytimex.rect.gamma.jpg
p1897
aV1189440000.Mon.Sep.10_16_00_00.GMT.2007.argus02a.c0.daytimex.rect.gamma.jpg
p1898
aV1310313600.Sun.Jul.10_16_00_00.GMT.2011.argus02a.c0.daytimex.rect.gamma.jpg
p1899
aV1061222400.Mon.Aug.18_16_00_00.GMT.2003.argus02a.c0.daytimex.rect.gamma.jpg
p1900
aV1180281600.Sun.May.27_16_00_00.GMT.2007.argus02a.c0.daytimex.rect.gamma.jpg
p1901
aV994003200.Sun.Jul.01_16_00_00.GMT.2001.argus02a.c0.daytimex.rect.gamma.jpg
p1902
aV880045200.Thu.Nov.20_17_00_00.GMT.1997.argus02a.c0.daytimex.rect.gamma.jpg
p1903
aV1153238400.Tue.Jul.18_16_00_00.GMT.2006.argus02a.c0.daytimex.rect.gamma.jpg
p1904
aV1215705600.Thu.Jul.10_16_00_00.GMT.2008.argus02a.c0.daytimex.rect.gamma.jpg
p1905
aV1330621200.Thu.Mar.01_17_00_00.GMT.2012.argus02a.c0.daytimex.rect.gamma.jpg
p1906
aV1091721600.Thu.Aug.05_16_00_00.GMT.2004.argus02a.c0.daytimex.rect.gamma.jpg
p1907
aV1312387200.Wed.Aug.03_16_00_00.GMT.2011.argus02a.c0.daytimex.rect.gamma.jpg
p1908
aV802972800.Mon.Jun.12_16_00_00.GMT.1995.argus02.c0.daytimex.rect.gamma.jpg
p1909
aV1084723200.Sun.May.16_16_00_00.GMT.2004.argus02a.c0.daytimex.rect.gamma.jpg
p1910
aV1089561600.Sun.Jul.11_16_00_00.GMT.2004.argus02a.c0.daytimex.rect.gamma.jpg
p1911
aV934387200.Wed.Aug.11_16_00_00.GMT.1999.argus02a.c0.daytimex.rect.gamma.jpg
p1912
aV1197306000.Mon.Dec.10_17_00_00.GMT.2007.argus02a.c0.daytimex.rect.gamma.jpg
p1913
aV1287417600.Mon.Oct.18_16_00_00.GMT.2010.argus02a.c0.daytimex.rect.gamma.jpg
p1914
aV1197392400.Tue.Dec.11_17_00_00.GMT.2007.argus02a.c0.daytimex.rect.gamma.jpg
p1915
aV1161360000.Fri.Oct.20_16_00_00.GMT.2006.argus02a.c0.daytimex.rect.gamma.jpg
p1916
aV927648000.Tue.May.25_16_00_00.GMT.1999.argus02a.c0.daytimex.rect.gamma.jpg
p1917
aV1190822400.Wed.Sep.26_16_00_00.GMT.2007.argus02a.c0.daytimex.rect.gamma.jpg
p1918
aV730486800.Tue.Feb.23_17_00_00.GMT.1993.argus02.c0.daytimex.rect.gamma.jpg
p1919
aV1312473600.Thu.Aug.04_16_00_00.GMT.2011.argus02a.c0.daytimex.rect.gamma.jpg
p1920
aV1272729600.Sat.May.01_16_00_00.GMT.2010.argus02a.c0.daytimex.rect.gamma.jpg
p1921
aV1084982400.Wed.May.19_16_00_00.GMT.2004.argus02a.c0.daytimex.rect.gamma.jpg
p1922
aV1330534800.Wed.Feb.29_17_00_00.GMT.2012.argus02a.c0.daytimex.rect.gamma.jpg
p1923
aV1091030400.Wed.Jul.28_16_00_00.GMT.2004.argus02a.c0.daytimex.rect.gamma.jpg
p1924
aV1194368400.Tue.Nov.06_17_00_00.GMT.2007.argus02a.c0.daytimex.rect.gamma.jpg
p1925
aV807724800.Sun.Aug.06_16_00_00.GMT.1995.argus02.c0.daytimex.rect.gamma.jpg
p1926
aV1193936400.Thu.Nov.01_17_00_00.GMT.2007.argus02a.c0.daytimex.rect.gamma.jpg
p1927
aV1019318400.Sat.Apr.20_16_00_00.GMT.2002.argus02a.c0.daytimex.rect.gamma.jpg
p1928
aV739555200.Tue.Jun.08_16_00_00.GMT.1993.argus02.c0.daytimex.rect.gamma.jpg
p1929
aV1264611600.Wed.Jan.27_17_00_00.GMT.2010.argus02a.c0.daytimex.rect.gamma.jpg
p1930
aV779472000.Tue.Sep.13_16_00_00.GMT.1994.argus02.c0.daytimex.rect.gamma.jpg
p1931
aV779212800.Sat.Sep.10_16_00_00.GMT.1994.argus02.c0.daytimex.rect.gamma.jpg
p1932
aV1273161600.Thu.May.06_16_00_00.GMT.2010.argus02a.c0.daytimex.rect.gamma.jpg
p1933
aV1139590800.Fri.Feb.10_17_00_00.GMT.2006.argus02a.c0.daytimex.rect.gamma.jpg
p1934
aV1190563200.Sun.Sep.23_16_00_00.GMT.2007.argus02a.c0.daytimex.rect.gamma.jpg
p1935
aV965923200.Thu.Aug.10_16_00_00.GMT.2000.argus02a.c0.daytimex.rect.gamma.jpg
p1936
aV1311523200.Sun.Jul.24_16_00_00.GMT.2011.argus02a.c0.daytimex.rect.gamma.jpg
p1937
aV1085500800.Tue.May.25_16_00_00.GMT.2004.argus02a.c0.daytimex.rect.gamma.jpg
p1938
aV932572800.Wed.Jul.21_16_00_00.GMT.1999.argus02a.c0.daytimex.rect.gamma.jpg
p1939
aV932313600.Sun.Jul.18_16_00_00.GMT.1999.argus02a.c0.daytimex.rect.gamma.jpg
p1940
aV1150819200.Tue.Jun.20_16_00_00.GMT.2006.argus02a.c0.daytimex.rect.gamma.jpg
p1941
aV838224000.Wed.Jul.24_16_00_00.GMT.1996.argus02.c0.daytimex.rect.gamma.jpg
p1942
aV1311955200.Fri.Jul.29_16_00_00.GMT.2011.argus02a.c0.daytimex.rect.gamma.jpg
p1943
aV835372800.Fri.Jun.21_16_00_00.GMT.1996.argus02.c0.daytimex.rect.gamma.jpg
p1944
aV1042131600.Thu.Jan.09_17_00_00.GMT.2003.argus02a.c0.daytimex.rect.gamma.jpg
p1945
aV738691200.Sat.May.29_16_00_00.GMT.1993.argus02.c0.daytimex.rect.gamma.jpg
p1946
aV1185984000.Wed.Aug.01_16_00_00.GMT.2007.argus02a.c0.daytimex.rect.gamma.jpg
p1947
aV1409846400.Thu.Sep.04_16_00_00.GMT.2014.argus02a.c0.daytimex.rect.gamma.jpg
p1948
aV1145116800.Sat.Apr.15_16_00_00.GMT.2006.argus02a.c0.daytimex.rect.gamma.jpg
p1949
aV1178121600.Wed.May.02_16_00_00.GMT.2007.argus02a.c0.daytimex.rect.gamma.jpg
p1950
aV1216224000.Wed.Jul.16_16_00_00.GMT.2008.argus02a.c0.daytimex.rect.gamma.jpg
p1951
aV1058803200.Mon.Jul.21_16_00_00.GMT.2003.argus02a.c0.daytimex.rect.gamma.jpg
p1952
aV868204800.Sun.Jul.06_16_00_00.GMT.1997.argus02.c0.daytimex.rect.gamma.jpg
p1953
aV1356454800.Tue.Dec.25_17_00_00.GMT.2012.argus02a.c0.daytimex.rect.gamma.jpg
p1954
aV871920000.Mon.Aug.18_16_00_00.GMT.1997.argus02.c0.daytimex.rect.gamma.jpg
p1955
aV824749200.Mon.Feb.19_17_00_00.GMT.1996.argus02.c0.daytimex.rect.gamma.jpg
p1956
aV838396800.Fri.Jul.26_16_00_00.GMT.1996.argus02.c0.daytimex.rect.gamma.jpg
p1957
aV965059200.Mon.Jul.31_16_00_00.GMT.2000.argus02a.c0.daytimex.rect.gamma.jpg
p1958
aV1065542400.Tue.Oct.07_16_00_00.GMT.2003.argus02a.c0.daytimex.rect.gamma.jpg
p1959
aV843062400.Wed.Sep.18_16_00_00.GMT.1996.argus02.c0.daytimex.rect.gamma.jpg
p1960
aV832608000.Mon.May.20_16_00_00.GMT.1996.argus02.c0.daytimex.rect.gamma.jpg
p1961
aV1122566400.Thu.Jul.28_16_00_00.GMT.2005.argus02a.c0.daytimex.rect.gamma.jpg
p1962
aV1340726400.Tue.Jun.26_16_00_00.GMT.2012.argus02a.c0.daytimex.rect.gamma.jpg
p1963
aV1216396800.Fri.Jul.18_16_00_00.GMT.2008.argus02a.c0.daytimex.rect.gamma.jpg
p1964
aV864489600.Sat.May.24_16_00_00.GMT.1997.argus02.c0.daytimex.rect.gamma.jpg
p1965
aV1336752000.Fri.May.11_16_00_00.GMT.2012.argus02a.c0.daytimex.rect.gamma.jpg
p1966
aV960566400.Fri.Jun.09_16_00_00.GMT.2000.argus02a.c0.daytimex.rect.gamma.jpg
p1967
aV1356282000.Sun.Dec.23_17_00_00.GMT.2012.argus02a.c0.daytimex.rect.gamma.jpg
p1968
aV1125590400.Thu.Sep.01_16_00_00.GMT.2005.argus02a.c0.daytimex.rect.gamma.jpg
p1969
aV1352221200.Tue.Nov.06_17_00_00.GMT.2012.argus02a.c0.daytimex.rect.gamma.jpg
p1970
aV963417600.Wed.Jul.12_16_00_00.GMT.2000.argus02a.c0.daytimex.rect.gamma.jpg
p1971
aV872611200.Tue.Aug.26_16_00_00.GMT.1997.argus02.c0.daytimex.rect.gamma.jpg
p1972
aV1345564800.Tue.Aug.21_16_00_00.GMT.2012.argus02a.c0.daytimex.rect.gamma.jpg
p1973
aV984934800.Sun.Mar.18_17_00_00.GMT.2001.argus02a.c0.daytimex.rect.gamma.jpg
p1974
aV1210176000.Wed.May.07_16_00_00.GMT.2008.argus02a.c0.daytimex.rect.gamma.jpg
p1975
aV1323882000.Wed.Dec.14_17_00_00.GMT.2011.argus02a.c0.daytimex.rect.gamma.jpg
p1976
aV898531200.Mon.Jun.22_16_00_00.GMT.1998.argus02a.c0.daytimex.rect.gamma.jpg
p1977
aV832435200.Sat.May.18_16_00_00.GMT.1996.argus02.c0.daytimex.rect.gamma.jpg
p1978
aV749750400.Mon.Oct.04_16_00_00.GMT.1993.argus02.c0.daytimex.rect.gamma.jpg
p1979
aV1006275600.Tue.Nov.20_17_00_00.GMT.2001.argus02a.c0.daytimex.rect.gamma.jpg
p1980
aV991584000.Sun.Jun.03_16_00_00.GMT.2001.argus02a.c0.daytimex.rect.gamma.jpg
p1981
aV985539600.Sun.Mar.25_17_00_00.GMT.2001.argus02a.c0.daytimex.rect.gamma.jpg
p1982
aV837446400.Mon.Jul.15_16_00_00.GMT.1996.argus02.c0.daytimex.rect.gamma.jpg
p1983
aV995385600.Tue.Jul.17_16_00_00.GMT.2001.argus02a.c0.daytimex.rect.gamma.jpg
p1984
aV1343664000.Mon.Jul.30_16_00_00.GMT.2012.argus02a.c0.daytimex.rect.gamma.jpg
p1985
aV1362502800.Tue.Mar.05_17_00_00.GMT.2013.argus02a.c0.daytimex.rect.gamma.jpg
p1986
aV1249315200.Mon.Aug.03_16_00_00.GMT.2009.argus02a.c0.daytimex.rect.gamma.jpg
p1987
aV843926400.Sat.Sep.28_16_00_00.GMT.1996.argus02.c0.daytimex.rect.gamma.jpg
p1988
aV1379260800.Sun.Sep.15_16_00_00.GMT.2013.argus02a.c0.daytimex.rect.gamma.jpg
p1989
aV980096400.Sun.Jan.21_17_00_00.GMT.2001.argus02a.c0.daytimex.rect.gamma.jpg
p1990
aV827427600.Thu.Mar.21_17_00_00.GMT.1996.argus02.c0.daytimex.rect.gamma.jpg
p1991
aV745257600.Fri.Aug.13_16_00_00.GMT.1993.argus02.c0.daytimex.rect.gamma.jpg
p1992
aV964972800.Sun.Jul.30_16_00_00.GMT.2000.argus02a.c0.daytimex.rect.gamma.jpg
p1993
aV1407945600.Wed.Aug.13_16_00_00.GMT.2014.argus02a.c0.daytimex.rect.gamma.jpg
p1994
aV1248624000.Sun.Jul.26_16_00_00.GMT.2009.argus02a.c0.daytimex.rect.gamma.jpg
p1995
aV832348800.Fri.May.17_16_00_00.GMT.1996.argus02.c0.daytimex.rect.gamma.jpg
p1996
aV1250784000.Thu.Aug.20_16_00_00.GMT.2009.argus02a.c0.daytimex.rect.gamma.jpg
p1997
aV839952000.Tue.Aug.13_16_00_00.GMT.1996.argus02.c0.daytimex.rect.gamma.jpg
p1998
aV1343750400.Tue.Jul.31_16_00_00.GMT.2012.argus02a.c0.daytimex.rect.gamma.jpg
p1999
aV1003507200.Fri.Oct.19_16_00_00.GMT.2001.argus02a.c0.daytimex.rect.gamma.jpg
p2000
aV1214755200.Sun.Jun.29_16_00_00.GMT.2008.argus02a.c0.daytimex.rect.gamma.jpg
p2001
aV1002902400.Fri.Oct.12_16_00_00.GMT.2001.argus02a.c0.daytimex.rect.gamma.jpg
p2002
aV1094227200.Fri.Sep.03_16_00_00.GMT.2004.argus02a.c0.daytimex.rect.gamma.jpg
p2003
aV842198400.Sun.Sep.08_16_00_00.GMT.1996.argus02.c0.daytimex.rect.gamma.jpg
p2004
aV746035200.Sun.Aug.22_16_00_00.GMT.1993.argus02.c0.daytimex.rect.gamma.jpg
p2005
aV840297600.Sat.Aug.17_16_00_00.GMT.1996.argus02.c0.daytimex.rect.gamma.jpg
p2006
aV1055606400.Sat.Jun.14_16_00_00.GMT.2003.argus02a.c0.daytimex.rect.gamma.jpg
p2007
aV1005325200.Fri.Nov.09_17_00_00.GMT.2001.argus02a.c0.daytimex.rect.gamma.jpg
p2008
aV1356714000.Fri.Dec.28_17_00_00.GMT.2012.argus02a.c0.daytimex.rect.gamma.jpg
p2009
aV870796800.Tue.Aug.05_16_00_00.GMT.1997.argus02.c0.daytimex.rect.gamma.jpg
p2010
aV1333468800.Tue.Apr.03_16_00_00.GMT.2012.argus02a.c0.daytimex.rect.gamma.jpg
p2011
aV965577600.Sun.Aug.06_16_00_00.GMT.2000.argus02a.c0.daytimex.rect.gamma.jpg
p2012
aV1283184000.Mon.Aug.30_16_00_00.GMT.2010.argus02a.c0.daytimex.rect.gamma.jpg
p2013
aV1343145600.Tue.Jul.24_16_00_00.GMT.2012.argus02a.c0.daytimex.rect.gamma.jpg
p2014
aV842976000.Tue.Sep.17_16_00_00.GMT.1996.argus02.c0.daytimex.rect.gamma.jpg
p2015
aV871747200.Sat.Aug.16_16_00_00.GMT.1997.argus02.c0.daytimex.rect.gamma.jpg
p2016
aV1333126800.Fri.Mar.30_17_00_00.GMT.2012.argus02a.c0.daytimex.rect.gamma.jpg
p2017
aV1354899600.Fri.Dec.07_17_00_00.GMT.2012.argus02a.c0.daytimex.rect.gamma.jpg
p2018
aV784746000.Sun.Nov.13_17_00_00.GMT.1994.argus02.c0.daytimex.rect.gamma.jpg
p2019
aV1354813200.Thu.Dec.06_17_00_00.GMT.2012.argus02a.c0.daytimex.rect.gamma.jpg
p2020
aV1164819600.Wed.Nov.29_17_00_00.GMT.2006.argus02a.c0.daytimex.rect.gamma.jpg
p2021
aV1156867200.Tue.Aug.29_16_00_00.GMT.2006.argus02a.c0.daytimex.rect.gamma.jpg
p2022
aV966873600.Mon.Aug.21_16_00_00.GMT.2000.argus02a.c0.daytimex.rect.gamma.jpg
p2023
aV1049216400.Tue.Apr.01_17_00_00.GMT.2003.argus02a.c0.daytimex.rect.gamma.jpg
p2024
aV1334160000.Wed.Apr.11_16_00_00.GMT.2012.argus02a.c0.daytimex.rect.gamma.jpg
p2025
aV1381593600.Sat.Oct.12_16_00_00.GMT.2013.argus02a.c0.daytimex.rect.gamma.jpg
p2026
aV1401552000.Sat.May.31_16_00_00.GMT.2014.argus02a.c0.daytimex.rect.gamma.jpg
p2027
aV1098892800.Wed.Oct.27_16_00_00.GMT.2004.argus02a.c0.daytimex.rect.gamma.jpg
p2028
aV1373644800.Fri.Jul.12_16_00_00.GMT.2013.argus02a.c0.daytimex.rect.gamma.jpg
p2029
aV1337616000.Mon.May.21_16_00_00.GMT.2012.argus02a.c0.daytimex.rect.gamma.jpg
p2030
aV1030809600.Sat.Aug.31_16_00_00.GMT.2002.argus02a.c0.daytimex.rect.gamma.jpg
p2031
aV1096646400.Fri.Oct.01_16_00_00.GMT.2004.argus02a.c0.daytimex.rect.gamma.jpg
p2032
aV888166800.Sun.Feb.22_17_00_00.GMT.1998.argus02a.c0.daytimex.rect.gamma.jpg
p2033
aV1069693200.Mon.Nov.24_17_00_00.GMT.2003.argus02a.c0.daytimex.rect.gamma.jpg
p2034
aV1031414400.Sat.Sep.07_16_00_00.GMT.2002.argus02a.c0.daytimex.rect.gamma.jpg
p2035
aV1378483200.Fri.Sep.06_16_00_00.GMT.2013.argus02a.c0.daytimex.rect.gamma.jpg
p2036
aV1030809600.Sat.Aug.31_16_00_00.GMT.2002.argus02a.c0.daytimex.rect.gamma.jpg
p2037
aV873216000.Tue.Sep.02_16_00_00.GMT.1997.argus02.c0.daytimex.rect.gamma.jpg
p2038
aV1247068800.Wed.Jul.08_16_00_00.GMT.2009.argus02a.c0.daytimex.rect.gamma.jpg
p2039
aV801676800.Sun.May.28_16_00_00.GMT.1995.argus02.c0.daytimex.rect.gamma.jpg
p2040
aV1097596800.Tue.Oct.12_16_00_00.GMT.2004.argus02a.c0.daytimex.rect.gamma.jpg
p2041
aV1358787600.Mon.Jan.21_17_00_00.GMT.2013.argus02a.c0.daytimex.rect.gamma.jpg
p2042
aV1211040000.Sat.May.17_16_00_00.GMT.2008.argus02a.c0.daytimex.rect.gamma.jpg
p2043
aV1097337600.Sat.Oct.09_16_00_00.GMT.2004.argus02a.c0.daytimex.rect.gamma.jpg
p2044
aV1081699200.Sun.Apr.11_16_00_00.GMT.2004.argus02a.c0.daytimex.rect.gamma.jpg
p2045
aV1380643200.Tue.Oct.01_16_00_00.GMT.2013.argus02a.c0.daytimex.rect.gamma.jpg
p2046
aV1121011200.Sun.Jul.10_16_00_00.GMT.2005.argus02a.c0.daytimex.rect.gamma.jpg
p2047
aV971798400.Tue.Oct.17_16_00_00.GMT.2000.argus02a.c0.daytimex.rect.gamma.jpg
p2048
aV1404403200.Thu.Jul.03_16_00_00.GMT.2014.argus02a.c0.daytimex.rect.gamma.jpg
p2049
aV896630400.Sun.May.31_16_00_00.GMT.1998.argus02a.c0.daytimex.rect.gamma.jpg
p2050
aV1009818000.Mon.Dec.31_17_00_00.GMT.2001.argus02a.c0.daytimex.rect.gamma.jpg
p2051
aV1023379200.Thu.Jun.06_16_00_00.GMT.2002.argus02a.c0.daytimex.rect.gamma.jpg
p2052
aV1358960400.Wed.Jan.23_17_00_00.GMT.2013.argus02a.c0.daytimex.rect.gamma.jpg
p2053
aV1119801600.Sun.Jun.26_16_00_00.GMT.2005.argus02a.c0.daytimex.rect.gamma.jpg
p2054
aV1115308800.Thu.May.05_16_00_00.GMT.2005.argus02a.c0.daytimex.rect.gamma.jpg
p2055
aV867340800.Thu.Jun.26_16_00_00.GMT.1997.argus02.c0.daytimex.rect.gamma.jpg
p2056
aV856976400.Wed.Feb.26_17_00_00.GMT.1997.argus02.c0.daytimex.rect.gamma.jpg
p2057
aV738000000.Fri.May.21_16_00_00.GMT.1993.argus02.c0.daytimex.rect.gamma.jpg
p2058
aV902246400.Tue.Aug.04_16_00_00.GMT.1998.argus02a.c0.daytimex.rect.gamma.jpg
p2059
aV1122048000.Fri.Jul.22_16_00_00.GMT.2005.argus02a.c0.daytimex.rect.gamma.jpg
p2060
aV1019836800.Fri.Apr.26_16_00_00.GMT.2002.argus02a.c0.daytimex.rect.gamma.jpg
p2061
aV1335024000.Sat.Apr.21_16_00_00.GMT.2012.argus02a.c0.daytimex.rect.gamma.jpg
p2062
aV1401379200.Thu.May.29_16_00_00.GMT.2014.argus02a.c0.daytimex.rect.gamma.jpg
p2063
aV1339257600.Sat.Jun.09_16_00_00.GMT.2012.argus02a.c0.daytimex.rect.gamma.jpg
p2064
aV1373731200.Sat.Jul.13_16_00_00.GMT.2013.argus02a.c0.daytimex.rect.gamma.jpg
p2065
aV896889600.Wed.Jun.03_16_00_00.GMT.1998.argus02a.c0.daytimex.rect.gamma.jpg
p2066
aV740246400.Wed.Jun.16_16_00_00.GMT.1993.argus02.c0.daytimex.rect.gamma.jpg
p2067
aV1377014400.Tue.Aug.20_16_00_00.GMT.2013.argus02a.c0.daytimex.rect.gamma.jpg
p2068
aV1358787600.Mon.Jan.21_17_00_00.GMT.2013.argus02a.c0.daytimex.rect.gamma.jpg
p2069
aV1023465600.Fri.Jun.07_16_00_00.GMT.2002.argus02a.c0.daytimex.rect.gamma.jpg
p2070
aV740332800.Thu.Jun.17_16_00_00.GMT.1993.argus02.c0.daytimex.rect.gamma.jpg
p2071
aV805219200.Sat.Jul.08_16_00_00.GMT.1995.argus02.c0.daytimex.rect.gamma.jpg
p2072
aV900432000.Tue.Jul.14_16_00_00.GMT.1998.argus02a.c0.daytimex.rect.gamma.jpg
p2073
aV896457600.Fri.May.29_16_00_00.GMT.1998.argus02a.c0.daytimex.rect.gamma.jpg
p2074
aV1379088000.Fri.Sep.13_16_00_00.GMT.2013.argus02a.c0.daytimex.rect.gamma.jpg
p2075
aV958147200.Fri.May.12_16_00_00.GMT.2000.argus02a.c0.daytimex.rect.gamma.jpg
p2076
aV736531200.Tue.May.04_16_00_00.GMT.1993.argus02.c0.daytimex.rect.gamma.jpg
p2077
aV958665600.Thu.May.18_16_00_00.GMT.2000.argus02a.c0.daytimex.rect.gamma.jpg
p2078
aV1014742800.Tue.Feb.26_17_00_00.GMT.2002.argus02a.c0.daytimex.rect.gamma.jpg
p2079
aV954608400.Sat.Apr.01_17_00_00.GMT.2000.argus02a.c0.daytimex.rect.gamma.jpg
p2080
aV1095523200.Sat.Sep.18_16_00_00.GMT.2004.argus02a.c0.daytimex.rect.gamma.jpg
p2081
aV1113840000.Mon.Apr.18_16_00_00.GMT.2005.argus02a.c0.daytimex.rect.gamma.jpg
p2082
aV1401897600.Wed.Jun.04_16_00_00.GMT.2014.argus02a.c0.daytimex.rect.gamma.jpg
p2083
aV910803600.Wed.Nov.11_17_00_00.GMT.1998.argus02a.c0.daytimex.rect.gamma.jpg
p2084
aV1383411600.Sat.Nov.02_17_00_00.GMT.2013.argus02a.c0.daytimex.rect.gamma.jpg
p2085
aV860515200.Tue.Apr.08_16_00_00.GMT.1997.argus02.c0.daytimex.rect.gamma.jpg
p2086
aV1031328000.Fri.Sep.06_16_00_00.GMT.2002.argus02a.c0.daytimex.rect.gamma.jpg
p2087
aV1114012800.Wed.Apr.20_16_00_00.GMT.2005.argus02a.c0.daytimex.rect.gamma.jpg
p2088
aV1382198400.Sat.Oct.19_16_00_00.GMT.2013.argus02a.c0.daytimex.rect.gamma.jpg
p2089
aV1253721600.Wed.Sep.23_16_00_00.GMT.2009.argus02a.c0.daytimex.rect.gamma.jpg
p2090
aV1247760000.Thu.Jul.16_16_00_00.GMT.2009.argus02a.c0.daytimex.rect.gamma.jpg
p2091
aV1255276800.Sun.Oct.11_16_00_00.GMT.2009.argus02a.c0.daytimex.rect.gamma.jpg
p2092
aV1080752400.Wed.Mar.31_17_00_00.GMT.2004.argus02a.c0.daytimex.rect.gamma.jpg
p2093
aV1336060800.Thu.May.03_16_00_00.GMT.2012.argus02a.c0.daytimex.rect.gamma.jpg
p2094
aV1008349200.Fri.Dec.14_17_00_00.GMT.2001.argus02a.c0.daytimex.rect.gamma.jpg
p2095
aV1383843600.Thu.Nov.07_17_00_00.GMT.2013.argus02a.c0.daytimex.rect.gamma.jpg
p2096
aV739296000.Sat.Jun.05_16_00_00.GMT.1993.argus02.c0.daytimex.rect.gamma.jpg
p2097
aV1401120000.Mon.May.26_16_00_00.GMT.2014.argus02a.c0.daytimex.rect.gamma.jpg
p2098
aV1400515200.Mon.May.19_16_00_00.GMT.2014.argus02a.c0.daytimex.rect.gamma.jpg
p2099
aV1355590800.Sat.Dec.15_17_00_00.GMT.2012.argus02a.c0.daytimex.rect.gamma.jpg
p2100
aV1226250000.Sun.Nov.09_17_00_00.GMT.2008.argus02a.c0.daytimex.rect.gamma.jpg
p2101
aV796410000.Tue.Mar.28_17_00_00.GMT.1995.argus02.c0.daytimex.rect.gamma.jpg
p2102
aV1226422800.Tue.Nov.11_17_00_00.GMT.2008.argus02a.c0.daytimex.rect.gamma.jpg
p2103
aV1338480000.Thu.May.31_16_00_00.GMT.2012.argus02a.c0.daytimex.rect.gamma.jpg
p2104
aV1337875200.Thu.May.24_16_00_00.GMT.2012.argus02a.c0.daytimex.rect.gamma.jpg
p2105
aV1388509200.Tue.Dec.31_17_00_00.GMT.2013.argus02a.c0.daytimex.rect.gamma.jpg
p2106
aV1101229200.Tue.Nov.23_17_00_00.GMT.2004.argus02a.c0.daytimex.rect.gamma.jpg
p2107
aV1233248400.Thu.Jan.29_17_00_00.GMT.2009.argus02a.c0.daytimex.rect.gamma.jpg
p2108
aV813340800.Tue.Oct.10_16_00_00.GMT.1995.argus02.c0.daytimex.rect.gamma.jpg
p2109
aV1265648400.Mon.Feb.08_17_00_00.GMT.2010.argus02a.c0.daytimex.rect.gamma.jpg
p2110
aV1284393600.Mon.Sep.13_16_00_00.GMT.2010.argus02a.c0.daytimex.rect.gamma.jpg
p2111
aV1233421200.Sat.Jan.31_17_00_00.GMT.2009.argus02a.c0.daytimex.rect.gamma.jpg
p2112
aV1127318400.Wed.Sep.21_16_00_00.GMT.2005.argus02a.c0.daytimex.rect.gamma.jpg
p2113
aV1396972800.Tue.Apr.08_16_00_00.GMT.2014.argus02a.c0.daytimex.rect.gamma.jpg
p2114
aV1272297600.Mon.Apr.26_16_00_00.GMT.2010.argus02a.c0.daytimex.rect.gamma.jpg
p2115
aV1305561600.Mon.May.16_16_00_00.GMT.2011.argus02a.c0.daytimex.rect.gamma.jpg
p2116
aV1294160400.Tue.Jan.04_17_00_00.GMT.2011.argus02a.c0.daytimex.rect.gamma.jpg
p2117
aV1226163600.Sat.Nov.08_17_00_00.GMT.2008.argus02a.c0.daytimex.rect.gamma.jpg
p2118
aV1023897600.Wed.Jun.12_16_00_00.GMT.2002.argus02a.c0.daytimex.rect.gamma.jpg
p2119
aV1395594000.Sun.Mar.23_17_00_00.GMT.2014.argus02a.c0.daytimex.rect.gamma.jpg
p2120
aV1338566400.Fri.Jun.01_16_00_00.GMT.2012.argus02a.c0.daytimex.rect.gamma.jpg
p2121
aV1293642000.Wed.Dec.29_17_00_00.GMT.2010.argus02a.c0.daytimex.rect.gamma.jpg
p2122
aV1397577600.Tue.Apr.15_16_00_00.GMT.2014.argus02a.c0.daytimex.rect.gamma.jpg
p2123
aV1139677200.Sat.Feb.11_17_00_00.GMT.2006.argus02a.c0.daytimex.rect.gamma.jpg
p2124
aV1391274000.Sat.Feb.01_17_00_00.GMT.2014.argus02a.c0.daytimex.rect.gamma.jpg
p2125
aV1235235600.Sat.Feb.21_17_00_00.GMT.2009.argus02a.c0.daytimex.rect.gamma.jpg
p2126
aV1256576400.Mon.Oct.26_17_00_00.GMT.2009.argus02a.c0.daytimex.rect.gamma.jpg
p2127
aV1175360400.Sat.Mar.31_17_00_00.GMT.2007.argus02a.c0.daytimex.rect.gamma.jpg
p2128
aV799084800.Fri.Apr.28_16_00_00.GMT.1995.argus02.c0.daytimex.rect.gamma.jpg
p2129
aV1307116800.Fri.Jun.03_16_00_00.GMT.2011.argus02a.c0.daytimex.rect.gamma.jpg
p2130
aV1015693200.Sat.Mar.09_17_00_00.GMT.2002.argus02a.c0.daytimex.rect.gamma.jpg
p2131
aV1291741200.Tue.Dec.07_17_00_00.GMT.2010.argus02a.c0.daytimex.rect.gamma.jpg
p2132
aV1411142400.Fri.Sep.19_16_00_00.GMT.2014.argus02a.c0.daytimex.rect.gamma.jpg
p2133
aV1014310800.Thu.Feb.21_17_00_00.GMT.2002.argus02a.c0.daytimex.rect.gamma.jpg
p2134
aV1396198800.Sun.Mar.30_17_00_00.GMT.2014.argus02a.c0.daytimex.rect.gamma.jpg
p2135
aV1385139600.Fri.Nov.22_17_00_00.GMT.2013.argus02a.c0.daytimex.rect.gamma.jpg
p2136
aV1068570000.Tue.Nov.11_17_00_00.GMT.2003.argus02a.c0.daytimex.rect.gamma.jpg
p2137
aV1233421200.Sat.Jan.31_17_00_00.GMT.2009.argus02a.c0.daytimex.rect.gamma.jpg
p2138
aV1135702800.Tue.Dec.27_17_00_00.GMT.2005.argus02a.c0.daytimex.rect.gamma.jpg
p2139
aV1256054400.Tue.Oct.20_16_00_00.GMT.2009.argus02a.c0.daytimex.rect.gamma.jpg
p2140
aV1072026000.Sun.Dec.21_17_00_00.GMT.2003.argus02a.c0.daytimex.rect.gamma.jpg
p2141
aV1103043600.Tue.Dec.14_17_00_00.GMT.2004.argus02a.c0.daytimex.rect.gamma.jpg
p2142
aV1252771200.Sat.Sep.12_16_00_00.GMT.2009.argus02a.c0.daytimex.rect.gamma.jpg
p2143
aV1285603200.Mon.Sep.27_16_00_00.GMT.2010.argus02a.c0.daytimex.rect.gamma.jpg
p2144
aV809798400.Wed.Aug.30_16_00_00.GMT.1995.argus02.c0.daytimex.rect.gamma.jpg
p2145
aV1243526400.Thu.May.28_16_00_00.GMT.2009.argus02a.c0.daytimex.rect.gamma.jpg
p2146
aV1234285200.Tue.Feb.10_17_00_00.GMT.2009.argus02a.c0.daytimex.rect.gamma.jpg
p2147
aV1226336400.Mon.Nov.10_17_00_00.GMT.2008.argus02a.c0.daytimex.rect.gamma.jpg
p2148
aV1393347600.Tue.Feb.25_17_00_00.GMT.2014.argus02a.c0.daytimex.rect.gamma.jpg
p2149
aV920134800.Sat.Feb.27_17_00_00.GMT.1999.argus02a.c0.daytimex.rect.gamma.jpg
p2150
aV788893200.Sat.Dec.31_17_00_00.GMT.1994.argus02.c0.daytimex.rect.gamma.jpg
p2151
aV924451200.Sun.Apr.18_16_00_00.GMT.1999.argus02a.c0.daytimex.rect.gamma.jpg
p2152
aV905097600.Sun.Sep.06_16_00_00.GMT.1998.argus02a.c0.daytimex.rect.gamma.jpg
p2153
aV1409068800.Tue.Aug.26_16_00_00.GMT.2014.argus02a.c0.daytimex.rect.gamma.jpg
p2154
aV1385917200.Sun.Dec.01_17_00_00.GMT.2013.argus02a.c0.daytimex.rect.gamma.jpg
p2155
aV1235235600.Sat.Feb.21_17_00_00.GMT.2009.argus02a.c0.daytimex.rect.gamma.jpg
p2156
aV1255449600.Tue.Oct.13_16_00_00.GMT.2009.argus02a.c0.daytimex.rect.gamma.jpg
p2157
aV809539200.Sun.Aug.27_16_00_00.GMT.1995.argus02.c0.daytimex.rect.gamma.jpg
p2158
aV1337616000.Mon.May.21_16_00_00.GMT.2012.argus02a.c0.daytimex.rect.gamma.jpg
p2159
aV1177344000.Mon.Apr.23_16_00_00.GMT.2007.argus02a.c0.daytimex.rect.gamma.jpg
p2160
aV809366400.Fri.Aug.25_16_00_00.GMT.1995.argus02.c0.daytimex.rect.gamma.jpg
p2161
aV1359306000.Sun.Jan.27_17_00_00.GMT.2013.argus02a.c0.daytimex.rect.gamma.jpg
p2162
aV1072630800.Sun.Dec.28_17_00_00.GMT.2003.argus02a.c0.daytimex.rect.gamma.jpg
p2163
aV1233248400.Thu.Jan.29_17_00_00.GMT.2009.argus02a.c0.daytimex.rect.gamma.jpg
p2164
aV1416157200.Sun.Nov.16_17_00_00.GMT.2014.argus02a.c0.daytimex.rect.gamma.jpg
p2165
aV1386176400.Wed.Dec.04_17_00_00.GMT.2013.argus02a.c0.daytimex.rect.gamma.jpg
p2166
aV1032624000.Sat.Sep.21_16_00_00.GMT.2002.argus02a.c0.daytimex.rect.gamma.jpg
p2167
aV1036170000.Fri.Nov.01_17_00_00.GMT.2002.argus02a.c0.daytimex.rect.gamma.jpg
p2168
aV1385226000.Sat.Nov.23_17_00_00.GMT.2013.argus02a.c0.daytimex.rect.gamma.jpg
p2169
aV1100710800.Wed.Nov.17_17_00_00.GMT.2004.argus02a.c0.daytimex.rect.gamma.jpg
p2170
aV1293814800.Fri.Dec.31_17_00_00.GMT.2010.argus02a.c0.daytimex.rect.gamma.jpg
p2171
aV1024070400.Fri.Jun.14_16_00_00.GMT.2002.argus02a.c0.daytimex.rect.gamma.jpg
p2172
aV796064400.Fri.Mar.24_17_00_00.GMT.1995.argus02.c0.daytimex.rect.gamma.jpg
p2173
aV1118073600.Mon.Jun.06_16_00_00.GMT.2005.argus02a.c0.daytimex.rect.gamma.jpg
p2174
aV1178294400.Fri.May.04_16_00_00.GMT.2007.argus02a.c0.daytimex.rect.gamma.jpg
p2175
aV780249600.Thu.Sep.22_16_00_00.GMT.1994.argus02.c0.daytimex.rect.gamma.jpg
p2176
aV755888400.Tue.Dec.14_17_00_00.GMT.1993.argus02.c0.daytimex.rect.gamma.jpg
p2177
aV1308067200.Tue.Jun.14_16_00_00.GMT.2011.argus02a.c0.daytimex.rect.gamma.jpg
p2178
aV1181836800.Thu.Jun.14_16_00_00.GMT.2007.argus02a.c0.daytimex.rect.gamma.jpg
p2179
aV1387645200.Sat.Dec.21_17_00_00.GMT.2013.argus02a.c0.daytimex.rect.gamma.jpg
p2180
aV1038416400.Wed.Nov.27_17_00_00.GMT.2002.argus02a.c0.daytimex.rect.gamma.jpg
p2181
aV1029513600.Fri.Aug.16_16_00_00.GMT.2002.argus02a.c0.daytimex.rect.gamma.jpg
p2182
aV873475200.Fri.Sep.05_16_00_00.GMT.1997.argus02.c0.daytimex.rect.gamma.jpg
p2183
aV1350057600.Fri.Oct.12_16_00_00.GMT.2012.argus02a.c0.daytimex.rect.gamma.jpg
p2184
aV1298394000.Tue.Feb.22_17_00_00.GMT.2011.argus02a.c0.daytimex.rect.gamma.jpg
p2185
aV755974800.Wed.Dec.15_17_00_00.GMT.1993.argus02.c0.daytimex.rect.gamma.jpg
p2186
aV1169312400.Sat.Jan.20_17_00_00.GMT.2007.argus02a.c0.daytimex.rect.gamma.jpg
p2187
aV769190400.Tue.May.17_16_00_00.GMT.1994.argus02.c0.daytimex.rect.gamma.jpg
p2188
aV1285689600.Tue.Sep.28_16_00_00.GMT.2010.argus02a.c0.daytimex.rect.gamma.jpg
p2189
aV1293210000.Fri.Dec.24_17_00_00.GMT.2010.argus02a.c0.daytimex.rect.gamma.jpg
p2190
aV793213200.Sun.Feb.19_17_00_00.GMT.1995.argus02.c0.daytimex.rect.gamma.jpg
p2191
aV819738000.Sat.Dec.23_17_00_00.GMT.1995.argus02.c0.daytimex.rect.gamma.jpg
p2192
aV1304611200.Thu.May.05_16_00_00.GMT.2011.argus02a.c0.daytimex.rect.gamma.jpg
p2193
aV1071248400.Fri.Dec.12_17_00_00.GMT.2003.argus02a.c0.daytimex.rect.gamma.jpg
p2194
aV1232816400.Sat.Jan.24_17_00_00.GMT.2009.argus02a.c0.daytimex.rect.gamma.jpg
p2195
aV1409587200.Mon.Sep.01_16_00_00.GMT.2014.argus02a.c0.daytimex.rect.gamma.jpg
p2196
aV923328000.Mon.Apr.05_16_00_00.GMT.1999.argus02a.c0.daytimex.rect.gamma.jpg
p2197
aV1137690000.Thu.Jan.19_17_00_00.GMT.2006.argus02a.c0.daytimex.rect.gamma.jpg
p2198
aV1132160400.Wed.Nov.16_17_00_00.GMT.2005.argus02a.c0.daytimex.rect.gamma.jpg
p2199
aV1251820800.Tue.Sep.01_16_00_00.GMT.2009.argus02a.c0.daytimex.rect.gamma.jpg
p2200
aV1166547600.Tue.Dec.19_17_00_00.GMT.2006.argus02a.c0.daytimex.rect.gamma.jpg
p2201
aV817923600.Sat.Dec.02_17_00_00.GMT.1995.argus02.c0.daytimex.rect.gamma.jpg
p2202
aV966182400.Sun.Aug.13_16_00_00.GMT.2000.argus02a.c0.daytimex.rect.gamma.jpg
p2203
aV1072285200.Wed.Dec.24_17_00_00.GMT.2003.argus02a.c0.daytimex.rect.gamma.jpg
p2204
aV1169485200.Mon.Jan.22_17_00_00.GMT.2007.argus02a.c0.daytimex.rect.gamma.jpg
p2205
aV847386000.Thu.Nov.07_17_00_00.GMT.1996.argus02.c0.daytimex.rect.gamma.jpg
p2206
aV1413820800.Mon.Oct.20_16_00_00.GMT.2014.argus02a.c0.daytimex.rect.gamma.jpg
p2207
aV817059600.Wed.Nov.22_17_00_00.GMT.1995.argus02.c0.daytimex.rect.gamma.jpg
p2208
aV791139600.Thu.Jan.26_17_00_00.GMT.1995.argus02.c0.daytimex.rect.gamma.jpg
p2209
aV769708800.Mon.May.23_16_00_00.GMT.1994.argus02.c0.daytimex.rect.gamma.jpg
p2210
aV1197565200.Thu.Dec.13_17_00_00.GMT.2007.argus02a.c0.daytimex.rect.gamma.jpg
p2211
aV768844800.Fri.May.13_16_00_00.GMT.1994.argus02.c0.daytimex.rect.gamma.jpg
p2212
aV1193500800.Sat.Oct.27_16_00_00.GMT.2007.argus02a.c0.daytimex.rect.gamma.jpg
p2213
aV1141405200.Fri.Mar.03_17_00_00.GMT.2006.argus02a.c0.daytimex.rect.gamma.jpg
p2214
aV1075914000.Wed.Feb.04_17_00_00.GMT.2004.argus02a.c0.daytimex.rect.gamma.jpg
p2215
aV1103821200.Thu.Dec.23_17_00_00.GMT.2004.argus02a.c0.daytimex.rect.gamma.jpg
p2216
aV1298307600.Mon.Feb.21_17_00_00.GMT.2011.argus02a.c0.daytimex.rect.gamma.jpg
p2217
aV807984000.Wed.Aug.09_16_00_00.GMT.1995.argus02.c0.daytimex.rect.gamma.jpg
p2218
aV915642000.Wed.Jan.06_17_00_00.GMT.1999.argus02a.c0.daytimex.rect.gamma.jpg
p2219
aV778176000.Mon.Aug.29_16_00_00.GMT.1994.argus02.c0.daytimex.rect.gamma.jpg
p2220
aV1304438400.Tue.May.03_16_00_00.GMT.2011.argus02a.c0.daytimex.rect.gamma.jpg
p2221
aV889722000.Thu.Mar.12_17_00_00.GMT.1998.argus02a.c0.daytimex.rect.gamma.jpg
p2222
aV820774800.Thu.Jan.04_17_00_00.GMT.1996.argus02.c0.daytimex.rect.gamma.jpg
p2223
aV1076259600.Sun.Feb.08_17_00_00.GMT.2004.argus02a.c0.daytimex.rect.gamma.jpg
p2224
aV781632000.Sat.Oct.08_16_00_00.GMT.1994.argus02.c0.daytimex.rect.gamma.jpg
p2225
aV1172250000.Fri.Feb.23_17_00_00.GMT.2007.argus02a.c0.daytimex.rect.gamma.jpg
p2226
aV916419600.Fri.Jan.15_17_00_00.GMT.1999.argus02a.c0.daytimex.rect.gamma.jpg
p2227
aV820256400.Fri.Dec.29_17_00_00.GMT.1995.argus02.c0.daytimex.rect.gamma.jpg
p2228
aV1041008400.Fri.Dec.27_17_00_00.GMT.2002.argus02a.c0.daytimex.rect.gamma.jpg
p2229
aV1303660800.Sun.Apr.24_16_00_00.GMT.2011.argus02a.c0.daytimex.rect.gamma.jpg
p2230
aV913309200.Thu.Dec.10_17_00_00.GMT.1998.argus02a.c0.daytimex.rect.gamma.jpg
p2231
aV1175014800.Tue.Mar.27_17_00_00.GMT.2007.argus02a.c0.daytimex.rect.gamma.jpg
p2232
aV1104339600.Wed.Dec.29_17_00_00.GMT.2004.argus02a.c0.daytimex.rect.gamma.jpg
p2233
aV1133197200.Mon.Nov.28_17_00_00.GMT.2005.argus02a.c0.daytimex.rect.gamma.jpg
p2234
aV1288630800.Mon.Nov.01_17_00_00.GMT.2010.argus02a.c0.daytimex.rect.gamma.jpg
p2235
aV1195750800.Thu.Nov.22_17_00_00.GMT.2007.argus02a.c0.daytimex.rect.gamma.jpg
p2236
aV1165165200.Sun.Dec.03_17_00_00.GMT.2006.argus02a.c0.daytimex.rect.gamma.jpg
p2237
aV798912000.Wed.Apr.26_16_00_00.GMT.1995.argus02.c0.daytimex.rect.gamma.jpg
p2238
aV1163782800.Fri.Nov.17_17_00_00.GMT.2006.argus02a.c0.daytimex.rect.gamma.jpg
p2239
aV1385053200.Thu.Nov.21_17_00_00.GMT.2013.argus02a.c0.daytimex.rect.gamma.jpg
p2240
aV764701200.Sat.Mar.26_17_00_00.GMT.1994.argus02.c0.daytimex.rect.gamma.jpg
p2241
aV1390323600.Tue.Jan.21_17_00_00.GMT.2014.argus02a.c0.daytimex.rect.gamma.jpg
p2242
aV1234890000.Tue.Feb.17_17_00_00.GMT.2009.argus02a.c0.daytimex.rect.gamma.jpg
p2243
aV817318800.Sat.Nov.25_17_00_00.GMT.1995.argus02.c0.daytimex.rect.gamma.jpg
p2244
aV1181923200.Fri.Jun.15_16_00_00.GMT.2007.argus02a.c0.daytimex.rect.gamma.jpg
p2245
aV1299862800.Fri.Mar.11_17_00_00.GMT.2011.argus02a.c0.daytimex.rect.gamma.jpg
p2246
aV874166400.Sat.Sep.13_16_00_00.GMT.1997.argus02.c0.daytimex.rect.gamma.jpg
p2247
aV875808000.Thu.Oct.02_16_00_00.GMT.1997.argus02.c0.daytimex.rect.gamma.jpg
p2248
aV907344000.Fri.Oct.02_16_00_00.GMT.1998.argus02a.c0.daytimex.rect.gamma.jpg
p2249
aV1317398400.Fri.Sep.30_16_00_00.GMT.2011.argus02a.c0.daytimex.rect.gamma.jpg
p2250
a.