(lp0
S'daytimex_1115758827.Wed.May.11_07_00_27.AEST.2005.narrabn.c5.jpg'
p1
aS'daytimex_1115067628.Tue.May.03_07_00_28.AEST.2005.narrabn.c5.jpg'
p2
aS'daytimex_1362776427.Sat.Mar.09_07_00_27.AEST.2013.narrabn.c5.jpg'
p3
aS'daytimex_1152478828.Mon.Jul.10_07_00_28.AEST.2006.narrabn.c5.jpg'
p4
aS'daytimex_1244840427.Sat.Jun.13_07_00_27.AEST.2009.narrabn.c5.jpg'
p5
aS'daytimex_1179608427.Sun.May.20_07_00_27.AEST.2007.narrabn.c5.jpg'
p6
aS'daytimex_1391115627.Fri.Jan.31_07_00_27.AEST.2014.narrabn.c5.jpg'
p7
aS'daytimex_1151614827.Fri.Jun.30_07_00_27.AEST.2006.narrabn.c5.jpg'
p8
aS'daytimex_1168808428.Mon.Jan.15_07_00_28.AEST.2007.narrabn.c5.jpg'
p9
aS'daytimex_1178226028.Fri.May.04_07_00_28.AEST.2007.narrabn.c5.jpg'
p10
aS'daytimex_1199307628.Thu.Jan.03_07_00_28.AEST.2008.narrabn.c5.jpg'
p11
aS'daytimex_1179522028.Sat.May.19_07_00_28.AEST.2007.narrabn.c5.jpg'
p12
aS'daytimex_1115586027.Mon.May.09_07_00_27.AEST.2005.narrabn.c5.jpg'
p13
aS'daytimex_1092432044.Sat.Aug.14_07_20_44.AEST.2004.narrabn.c5.jpg'
p14
aS'daytimex_1377205228.Fri.Aug.23_07_00_28.AEST.2013.narrabn.c5.jpg'
p15
aS'daytimex_1114722027.Fri.Apr.29_07_00_27.AEST.2005.narrabn.c5.jpg'
p16
aS'daytimex_1356382827.Tue.Dec.25_07_00_27.AEST.2012.narrabn.c5.jpg'
p17
aS'daytimex_1183410028.Tue.Jul.03_07_00_28.AEST.2007.narrabn.c5.jpg'
p18
aS'daytimex_1244667628.Thu.Jun.11_07_00_28.AEST.2009.narrabn.c5.jpg'
p19
aS'daytimex_1216414828.Sat.Jul.19_07_00_28.AEST.2008.narrabn.c5.jpg'
p20
aS'daytimex_1180904428.Mon.Jun.04_07_00_28.AEST.2007.narrabn.c5.jpg'
p21
aS'daytimex_1216328427.Fri.Jul.18_07_00_27.AEST.2008.narrabn.c5.jpg'
p22
aS'daytimex_1179262828.Wed.May.16_07_00_28.AEST.2007.narrabn.c5.jpg'
p23
aS'daytimex_1233003628.Tue.Jan.27_07_00_28.AEST.2009.narrabn.c5.jpg'
p24
aS'daytimex_1115413227.Sat.May.07_07_00_27.AEST.2005.narrabn.c5.jpg'
p25
aS'daytimex_1122843628.Mon.Aug.01_07_00_28.AEST.2005.narrabn.c5.jpg'
p26
aS'daytimex_1218747627.Fri.Aug.15_07_00_27.AEST.2008.narrabn.c5.jpg'
p27
aS'daytimex_1191877228.Tue.Oct.09_07_00_28.AEST.2007.narrabn.c5.jpg'
p28
aS'daytimex_1189458027.Tue.Sep.11_07_00_27.AEST.2007.narrabn.c5.jpg'
p29
aS'daytimex_1192568427.Wed.Oct.17_07_00_27.AEST.2007.narrabn.c5.jpg'
p30
aS'daytimex_1210366827.Sat.May.10_07_00_27.AEST.2008.narrabn.c5.jpg'
p31
aS'daytimex_1366664426.Tue.Apr.23_07_00_26.AEST.2013.narrabn.c5.jpg'
p32
aS'daytimex_1176498028.Sat.Apr.14_07_00_28.AEST.2007.narrabn.c5.jpg'
p33
aS'daytimex_1199739627.Tue.Jan.08_07_00_27.AEST.2008.narrabn.c5.jpg'
p34
aS'daytimex_1192395627.Mon.Oct.15_07_00_27.AEST.2007.narrabn.c5.jpg'
p35
aS'daytimex_1367701227.Sun.May.05_07_00_27.AEST.2013.narrabn.c5.jpg'
p36
aS'daytimex_1095542444.Sun.Sep.19_07_20_44.AEST.2004.narrabn.c5.jpg'
p37
aS'daytimex_1300482028.Sat.Mar.19_07_00_28.AEST.2011.narrabn.c5.jpg'
p38
aS'daytimex_1176584427.Sun.Apr.15_07_00_27.AEST.2007.narrabn.c5.jpg'
p39
aS'daytimex_1107032427.Sun.Jan.30_07_00_27.AEST.2005.narrabn.c5.jpg'
p40
ag22
aS'daytimex_1113944427.Wed.Apr.20_07_00_27.AEST.2005.narrabn.c5.jpg'
p41
aS'daytimex_1393707627.Sun.Mar.02_07_00_27.AEST.2014.narrabn.c5.jpg'
p42
aS'daytimex_1177880427.Mon.Apr.30_07_00_27.AEST.2007.narrabn.c5.jpg'
p43
aS'daytimex_1285448428.Sun.Sep.26_07_00_28.AEST.2010.narrabn.c5.jpg'
p44
aS'daytimex_1110229228.Tue.Mar.08_07_00_28.AEST.2005.narrabn.c5.jpg'
p45
aS'daytimex_1296421228.Mon.Jan.31_07_00_28.AEST.2011.narrabn.c5.jpg'
p46
aS'daytimex_1160082028.Fri.Oct.06_07_00_28.AEST.2006.narrabn.c5.jpg'
p47
aS'daytimex_1325019628.Wed.Dec.28_07_00_28.AEST.2011.narrabn.c5.jpg'
p48
aS'daytimex_1364504427.Fri.Mar.29_07_00_27.AEST.2013.narrabn.c5.jpg'
p49
aS'daytimex_1395867628.Thu.Mar.27_07_00_28.AEST.2014.narrabn.c5.jpg'
p50
aS'daytimex_1280091628.Mon.Jul.26_07_00_28.AEST.2010.narrabn.c5.jpg'
p51
aS'daytimex_1278882027.Mon.Jul.12_07_00_27.AEST.2010.narrabn.c5.jpg'
p52
aS'daytimex_1110315628.Wed.Mar.09_07_00_28.AEST.2005.narrabn.c5.jpg'
p53
aS'daytimex_1324760428.Sun.Dec.25_07_00_28.AEST.2011.narrabn.c5.jpg'
p54
aS'daytimex_1396818028.Mon.Apr.07_07_00_28.AEST.2014.narrabn.c5.jpg'
p55
aS'daytimex_1110661227.Sun.Mar.13_07_00_27.AEST.2005.narrabn.c5.jpg'
p56
aS'daytimex_1174683628.Sat.Mar.24_07_00_28.AEST.2007.narrabn.c5.jpg'
p57
aS'daytimex_1302123627.Thu.Apr.07_07_00_27.AEST.2011.narrabn.c5.jpg'
p58
aS'daytimex_1394830828.Sat.Mar.15_07_00_28.AEST.2014.narrabn.c5.jpg'
p59
aS'daytimex_1115154028.Wed.May.04_07_00_28.AEST.2005.narrabn.c5.jpg'
p60
aS'daytimex_1397077227.Thu.Apr.10_07_00_27.AEST.2014.narrabn.c5.jpg'
p61
aS'daytimex_1165611628.Sat.Dec.09_07_00_28.AEST.2006.narrabn.c5.jpg'
p62
aS'daytimex_1118264428.Thu.Jun.09_07_00_28.AEST.2005.narrabn.c5.jpg'
p63
aS'daytimex_1095196845.Wed.Sep.15_07_20_45.AEST.2004.narrabn.c5.jpg'
p64
aS'daytimex_1115326827.Fri.May.06_07_00_27.AEST.2005.narrabn.c5.jpg'
p65
aS'daytimex_1348779627.Fri.Sep.28_07_00_27.AEST.2012.narrabn.c5.jpg'
p66
aS'daytimex_1192136427.Fri.Oct.12_07_00_27.AEST.2007.narrabn.c5.jpg'
p67
aS'daytimex_1091568045.Wed.Aug.04_07_20_45.AEST.2004.narrabn.c5.jpg'
p68
aS'daytimex_1298062827.Sat.Feb.19_07_00_27.AEST.2011.narrabn.c5.jpg'
p69
aS'daytimex_1383339628.Sat.Nov.02_07_00_28.AEST.2013.narrabn.c5.jpg'
p70
aS'daytimex_1338670828.Sun.Jun.03_07_00_28.AEST.2012.narrabn.c5.jpg'
p71
aS'daytimex_1383166828.Thu.Oct.31_07_00_28.AEST.2013.narrabn.c5.jpg'
p72
ag72
aS'daytimex_1170968427.Fri.Feb.09_07_00_27.AEST.2007.narrabn.c5.jpg'
p73
aS'daytimex_1158613228.Tue.Sep.19_07_00_28.AEST.2006.narrabn.c5.jpg'
p74
aS'daytimex_1113339627.Wed.Apr.13_07_00_27.AEST.2005.narrabn.c5.jpg'
p75
ag70
aS'daytimex_1231707628.Mon.Jan.12_07_00_28.AEST.2009.narrabn.c5.jpg'
p76
aS'daytimex_1193346027.Fri.Oct.26_07_00_27.AEST.2007.narrabn.c5.jpg'
p77
aS'daytimex_1392930028.Fri.Feb.21_07_00_28.AEST.2014.narrabn.c5.jpg'
p78
aS'daytimex_1132347628.Sat.Nov.19_07_00_28.AEST.2005.narrabn.c5.jpg'
p79
aS'daytimex_1276635628.Wed.Jun.16_07_00_28.AEST.2010.narrabn.c5.jpg'
p80
aS'daytimex_1309554027.Sat.Jul.02_07_00_27.AEST.2011.narrabn.c5.jpg'
p81
aS'daytimex_1277845228.Wed.Jun.30_07_00_28.AEST.2010.narrabn.c5.jpg'
p82
aS'daytimex_1200949228.Tue.Jan.22_07_00_28.AEST.2008.narrabn.c5.jpg'
p83
aS'daytimex_1390078828.Sun.Jan.19_07_00_28.AEST.2014.narrabn.c5.jpg'
p84
aS'daytimex_1175547628.Tue.Apr.03_07_00_28.AEST.2007.narrabn.c5.jpg'
p85
ag71
aS'daytimex_1150318827.Thu.Jun.15_07_00_27.AEST.2006.narrabn.c5.jpg'
p86
aS'daytimex_1296248427.Sat.Jan.29_07_00_27.AEST.2011.narrabn.c5.jpg'
p87
ag24
aS'daytimex_1170104428.Tue.Jan.30_07_00_28.AEST.2007.narrabn.c5.jpg'
p88
aS'daytimex_1297026028.Mon.Feb.07_07_00_28.AEST.2011.narrabn.c5.jpg'
p89
aS'daytimex_1237323627.Wed.Mar.18_07_00_27.AEST.2009.narrabn.c5.jpg'
p90
aS'daytimex_1210021227.Tue.May.06_07_00_27.AEST.2008.narrabn.c5.jpg'
p91
ag82
aS'daytimex_1096752044.Sun.Oct.03_07_20_44.AEST.2004.narrabn.c5.jpg'
p92
aS'daytimex_1130878828.Wed.Nov.02_07_00_28.AEST.2005.narrabn.c5.jpg'
p93
aS'daytimex_1104267628.Wed.Dec.29_07_00_28.AEST.2004.narrabn.c5.jpg'
p94
aS'daytimex_1184706028.Wed.Jul.18_07_00_28.AEST.2007.narrabn.c5.jpg'
p95
aS'daytimex_1339448428.Tue.Jun.12_07_00_28.AEST.2012.narrabn.c5.jpg'
p96
aS'daytimex_1113771628.Mon.Apr.18_07_00_28.AEST.2005.narrabn.c5.jpg'
p97
aS'daytimex_1118523628.Sun.Jun.12_07_00_28.AEST.2005.narrabn.c5.jpg'
p98
aS'daytimex_1304715627.Sat.May.07_07_00_27.AEST.2011.narrabn.c5.jpg'
p99
aS'daytimex_1295643628.Sat.Jan.22_07_00_28.AEST.2011.narrabn.c5.jpg'
p100
aS'daytimex_1356123626.Sat.Dec.22_07_00_26.AEST.2012.narrabn.c5.jpg'
p101
aS'daytimex_1258837227.Sun.Nov.22_07_00_27.AEST.2009.narrabn.c5.jpg'
p102
aS'daytimex_1278018028.Fri.Jul.02_07_00_28.AEST.2010.narrabn.c5.jpg'
p103
aS'daytimex_1355259627.Wed.Dec.12_07_00_27.AEST.2012.narrabn.c5.jpg'
p104
aS'daytimex_1164229228.Thu.Nov.23_07_00_28.AEST.2006.narrabn.c5.jpg'
p105
aS'daytimex_1205614828.Sun.Mar.16_07_00_28.AEST.2008.narrabn.c5.jpg'
p106
ag66
aS'daytimex_1230757227.Thu.Jan.01_07_00_27.AEST.2009.narrabn.c5.jpg'
p107
aS'daytimex_1239138028.Wed.Apr.08_07_00_28.AEST.2009.narrabn.c5.jpg'
p108
aS'daytimex_1168981228.Wed.Jan.17_07_00_28.AEST.2007.narrabn.c5.jpg'
p109
aS'daytimex_1211058028.Sun.May.18_07_00_28.AEST.2008.narrabn.c5.jpg'
p110
aS'daytimex_1327179628.Sun.Jan.22_07_00_28.AEST.2012.narrabn.c5.jpg'
p111
aS'daytimex_1106514027.Mon.Jan.24_07_00_27.AEST.2005.narrabn.c5.jpg'
p112
aS'daytimex_1133470828.Fri.Dec.02_07_00_28.AEST.2005.narrabn.c5.jpg'
p113
aS'daytimex_1162674028.Sun.Nov.05_07_00_28.AEST.2006.narrabn.c5.jpg'
p114
aS'daytimex_1199998828.Fri.Jan.11_07_00_28.AEST.2008.narrabn.c5.jpg'
p115
ag9
ag40
aS'daytimex_1275080427.Sat.May.29_07_00_27.AEST.2010.narrabn.c5.jpg'
p116
aS'daytimex_1131915627.Mon.Nov.14_07_00_27.AEST.2005.narrabn.c5.jpg'
p117
ag17
aS'daytimex_1289336428.Wed.Nov.10_07_00_28.AEST.2010.narrabn.c5.jpg'
p118
aS'daytimex_1181854827.Fri.Jun.15_07_00_27.AEST.2007.narrabn.c5.jpg'
p119
aS'daytimex_1194469228.Thu.Nov.08_07_00_28.AEST.2007.narrabn.c5.jpg'
p120
aS'daytimex_1168722027.Sun.Jan.14_07_00_27.AEST.2007.narrabn.c5.jpg'
p121
aS'daytimex_1319749225.Fri.Oct.28_07_00_25.AEST.2011.narrabn.c5.jpg'
p122
ag105
aS'daytimex_1263070827.Sun.Jan.10_07_00_27.AEST.2010.narrabn.c5.jpg'
p123
aS'daytimex_1365109227.Fri.Apr.05_07_00_27.AEST.2013.narrabn.c5.jpg'
p124
aS'daytimex_1103058027.Wed.Dec.15_07_00_27.AEST.2004.narrabn.c5.jpg'
p125
aS'daytimex_1103403628.Sun.Dec.19_07_00_28.AEST.2004.narrabn.c5.jpg'
p126
ag13
aS'daytimex_1355518826.Sat.Dec.15_07_00_26.AEST.2012.narrabn.c5.jpg'
p127
aS'daytimex_1364331627.Wed.Mar.27_07_00_27.AEST.2013.narrabn.c5.jpg'
p128
aS'daytimex_1110920428.Wed.Mar.16_07_00_28.AEST.2005.narrabn.c5.jpg'
p129
aS'daytimex_1102539628.Thu.Dec.09_07_00_28.AEST.2004.narrabn.c5.jpg'
p130
aS'daytimex_1363294826.Fri.Mar.15_07_00_26.AEST.2013.narrabn.c5.jpg'
p131
ag102
aS'daytimex_1102712427.Sat.Dec.11_07_00_27.AEST.2004.narrabn.c5.jpg'
p132
aS'daytimex_1390165228.Mon.Jan.20_07_00_28.AEST.2014.narrabn.c5.jpg'
p133
aS'daytimex_1137013242.Thu.Jan.12_07_00_42.AEST.2006.narrabn.c5.jpg'
p134
aS'daytimex_1363381227.Sat.Mar.16_07_00_27.AEST.2013.narrabn.c5.jpg'
p135
aS'daytimex_1366059626.Tue.Apr.16_07_00_26.AEST.2013.narrabn.c5.jpg'
p136
aS'daytimex_1272315628.Tue.Apr.27_07_00_28.AEST.2010.narrabn.c5.jpg'
p137
aS'daytimex_1141506027.Sun.Mar.05_07_00_27.AEST.2006.narrabn.c5.jpg'
p138
aS'daytimex_1202331628.Thu.Feb.07_07_00_28.AEST.2008.narrabn.c5.jpg'
p139
ag92
aS'daytimex_1365714027.Fri.Apr.12_07_00_27.AEST.2013.narrabn.c5.jpg'
p140
ag34
aS'daytimex_1238014828.Thu.Mar.26_07_00_28.AEST.2009.narrabn.c5.jpg'
p141
aS'daytimex_1102453228.Wed.Dec.08_07_00_28.AEST.2004.narrabn.c5.jpg'
p142
aS'daytimex_1200258027.Mon.Jan.14_07_00_27.AEST.2008.narrabn.c5.jpg'
p143
aS'daytimex_1366837226.Thu.Apr.25_07_00_26.AEST.2013.narrabn.c5.jpg'
p144
aS'daytimex_1252270827.Mon.Sep.07_07_00_27.AEST.2009.narrabn.c5.jpg'
p145
aS'daytimex_1379624427.Fri.Sep.20_07_00_27.AEST.2013.narrabn.c5.jpg'
p146
aS'daytimex_1144616428.Mon.Apr.10_07_00_28.AEST.2006.narrabn.c5.jpg'
p147
aS'daytimex_1115758827.Wed.May.11_07_00_27.AEST.2005.narrabn.c5.hflip.jpg'
p148
aS'daytimex_1115067628.Tue.May.03_07_00_28.AEST.2005.narrabn.c5.hflip.jpg'
p149
aS'daytimex_1362776427.Sat.Mar.09_07_00_27.AEST.2013.narrabn.c5.hflip.jpg'
p150
aS'daytimex_1152478828.Mon.Jul.10_07_00_28.AEST.2006.narrabn.c5.hflip.jpg'
p151
aS'daytimex_1244840427.Sat.Jun.13_07_00_27.AEST.2009.narrabn.c5.hflip.jpg'
p152
aS'daytimex_1179608427.Sun.May.20_07_00_27.AEST.2007.narrabn.c5.hflip.jpg'
p153
aS'daytimex_1391115627.Fri.Jan.31_07_00_27.AEST.2014.narrabn.c5.hflip.jpg'
p154
aS'daytimex_1151614827.Fri.Jun.30_07_00_27.AEST.2006.narrabn.c5.hflip.jpg'
p155
aS'daytimex_1168808428.Mon.Jan.15_07_00_28.AEST.2007.narrabn.c5.hflip.jpg'
p156
aS'daytimex_1178226028.Fri.May.04_07_00_28.AEST.2007.narrabn.c5.hflip.jpg'
p157
aS'daytimex_1199307628.Thu.Jan.03_07_00_28.AEST.2008.narrabn.c5.hflip.jpg'
p158
aS'daytimex_1179522028.Sat.May.19_07_00_28.AEST.2007.narrabn.c5.hflip.jpg'
p159
aS'daytimex_1115586027.Mon.May.09_07_00_27.AEST.2005.narrabn.c5.hflip.jpg'
p160
aS'daytimex_1092432044.Sat.Aug.14_07_20_44.AEST.2004.narrabn.c5.hflip.jpg'
p161
aS'daytimex_1377205228.Fri.Aug.23_07_00_28.AEST.2013.narrabn.c5.hflip.jpg'
p162
aS'daytimex_1114722027.Fri.Apr.29_07_00_27.AEST.2005.narrabn.c5.hflip.jpg'
p163
aS'daytimex_1356382827.Tue.Dec.25_07_00_27.AEST.2012.narrabn.c5.hflip.jpg'
p164
aS'daytimex_1183410028.Tue.Jul.03_07_00_28.AEST.2007.narrabn.c5.hflip.jpg'
p165
aS'daytimex_1244667628.Thu.Jun.11_07_00_28.AEST.2009.narrabn.c5.hflip.jpg'
p166
aS'daytimex_1216414828.Sat.Jul.19_07_00_28.AEST.2008.narrabn.c5.hflip.jpg'
p167
aS'daytimex_1180904428.Mon.Jun.04_07_00_28.AEST.2007.narrabn.c5.hflip.jpg'
p168
aS'daytimex_1216328427.Fri.Jul.18_07_00_27.AEST.2008.narrabn.c5.hflip.jpg'
p169
aS'daytimex_1179262828.Wed.May.16_07_00_28.AEST.2007.narrabn.c5.hflip.jpg'
p170
aS'daytimex_1233003628.Tue.Jan.27_07_00_28.AEST.2009.narrabn.c5.hflip.jpg'
p171
aS'daytimex_1115413227.Sat.May.07_07_00_27.AEST.2005.narrabn.c5.hflip.jpg'
p172
aS'daytimex_1122843628.Mon.Aug.01_07_00_28.AEST.2005.narrabn.c5.hflip.jpg'
p173
aS'daytimex_1218747627.Fri.Aug.15_07_00_27.AEST.2008.narrabn.c5.hflip.jpg'
p174
aS'daytimex_1191877228.Tue.Oct.09_07_00_28.AEST.2007.narrabn.c5.hflip.jpg'
p175
aS'daytimex_1189458027.Tue.Sep.11_07_00_27.AEST.2007.narrabn.c5.hflip.jpg'
p176
aS'daytimex_1192568427.Wed.Oct.17_07_00_27.AEST.2007.narrabn.c5.hflip.jpg'
p177
aS'daytimex_1210366827.Sat.May.10_07_00_27.AEST.2008.narrabn.c5.hflip.jpg'
p178
aS'daytimex_1366664426.Tue.Apr.23_07_00_26.AEST.2013.narrabn.c5.hflip.jpg'
p179
aS'daytimex_1176498028.Sat.Apr.14_07_00_28.AEST.2007.narrabn.c5.hflip.jpg'
p180
aS'daytimex_1199739627.Tue.Jan.08_07_00_27.AEST.2008.narrabn.c5.hflip.jpg'
p181
aS'daytimex_1192395627.Mon.Oct.15_07_00_27.AEST.2007.narrabn.c5.hflip.jpg'
p182
aS'daytimex_1367701227.Sun.May.05_07_00_27.AEST.2013.narrabn.c5.hflip.jpg'
p183
aS'daytimex_1095542444.Sun.Sep.19_07_20_44.AEST.2004.narrabn.c5.hflip.jpg'
p184
aS'daytimex_1300482028.Sat.Mar.19_07_00_28.AEST.2011.narrabn.c5.hflip.jpg'
p185
aS'daytimex_1176584427.Sun.Apr.15_07_00_27.AEST.2007.narrabn.c5.hflip.jpg'
p186
aS'daytimex_1107032427.Sun.Jan.30_07_00_27.AEST.2005.narrabn.c5.hflip.jpg'
p187
aS'daytimex_1216328427.Fri.Jul.18_07_00_27.AEST.2008.narrabn.c5.hflip.jpg'
p188
aS'daytimex_1113944427.Wed.Apr.20_07_00_27.AEST.2005.narrabn.c5.hflip.jpg'
p189
aS'daytimex_1393707627.Sun.Mar.02_07_00_27.AEST.2014.narrabn.c5.hflip.jpg'
p190
aS'daytimex_1177880427.Mon.Apr.30_07_00_27.AEST.2007.narrabn.c5.hflip.jpg'
p191
aS'daytimex_1285448428.Sun.Sep.26_07_00_28.AEST.2010.narrabn.c5.hflip.jpg'
p192
aS'daytimex_1110229228.Tue.Mar.08_07_00_28.AEST.2005.narrabn.c5.hflip.jpg'
p193
aS'daytimex_1296421228.Mon.Jan.31_07_00_28.AEST.2011.narrabn.c5.hflip.jpg'
p194
aS'daytimex_1160082028.Fri.Oct.06_07_00_28.AEST.2006.narrabn.c5.hflip.jpg'
p195
aS'daytimex_1325019628.Wed.Dec.28_07_00_28.AEST.2011.narrabn.c5.hflip.jpg'
p196
aS'daytimex_1364504427.Fri.Mar.29_07_00_27.AEST.2013.narrabn.c5.hflip.jpg'
p197
aS'daytimex_1395867628.Thu.Mar.27_07_00_28.AEST.2014.narrabn.c5.hflip.jpg'
p198
aS'daytimex_1280091628.Mon.Jul.26_07_00_28.AEST.2010.narrabn.c5.hflip.jpg'
p199
aS'daytimex_1278882027.Mon.Jul.12_07_00_27.AEST.2010.narrabn.c5.hflip.jpg'
p200
aS'daytimex_1110315628.Wed.Mar.09_07_00_28.AEST.2005.narrabn.c5.hflip.jpg'
p201
aS'daytimex_1324760428.Sun.Dec.25_07_00_28.AEST.2011.narrabn.c5.hflip.jpg'
p202
aS'daytimex_1396818028.Mon.Apr.07_07_00_28.AEST.2014.narrabn.c5.hflip.jpg'
p203
aS'daytimex_1110661227.Sun.Mar.13_07_00_27.AEST.2005.narrabn.c5.hflip.jpg'
p204
aS'daytimex_1174683628.Sat.Mar.24_07_00_28.AEST.2007.narrabn.c5.hflip.jpg'
p205
aS'daytimex_1302123627.Thu.Apr.07_07_00_27.AEST.2011.narrabn.c5.hflip.jpg'
p206
aS'daytimex_1394830828.Sat.Mar.15_07_00_28.AEST.2014.narrabn.c5.hflip.jpg'
p207
aS'daytimex_1115154028.Wed.May.04_07_00_28.AEST.2005.narrabn.c5.hflip.jpg'
p208
aS'daytimex_1397077227.Thu.Apr.10_07_00_27.AEST.2014.narrabn.c5.hflip.jpg'
p209
aS'daytimex_1165611628.Sat.Dec.09_07_00_28.AEST.2006.narrabn.c5.hflip.jpg'
p210
aS'daytimex_1118264428.Thu.Jun.09_07_00_28.AEST.2005.narrabn.c5.hflip.jpg'
p211
aS'daytimex_1095196845.Wed.Sep.15_07_20_45.AEST.2004.narrabn.c5.hflip.jpg'
p212
aS'daytimex_1115326827.Fri.May.06_07_00_27.AEST.2005.narrabn.c5.hflip.jpg'
p213
aS'daytimex_1348779627.Fri.Sep.28_07_00_27.AEST.2012.narrabn.c5.hflip.jpg'
p214
aS'daytimex_1192136427.Fri.Oct.12_07_00_27.AEST.2007.narrabn.c5.hflip.jpg'
p215
aS'daytimex_1091568045.Wed.Aug.04_07_20_45.AEST.2004.narrabn.c5.hflip.jpg'
p216
aS'daytimex_1298062827.Sat.Feb.19_07_00_27.AEST.2011.narrabn.c5.hflip.jpg'
p217
aS'daytimex_1383339628.Sat.Nov.02_07_00_28.AEST.2013.narrabn.c5.hflip.jpg'
p218
aS'daytimex_1338670828.Sun.Jun.03_07_00_28.AEST.2012.narrabn.c5.hflip.jpg'
p219
aS'daytimex_1383166828.Thu.Oct.31_07_00_28.AEST.2013.narrabn.c5.hflip.jpg'
p220
aS'daytimex_1383166828.Thu.Oct.31_07_00_28.AEST.2013.narrabn.c5.hflip.jpg'
p221
aS'daytimex_1170968427.Fri.Feb.09_07_00_27.AEST.2007.narrabn.c5.hflip.jpg'
p222
aS'daytimex_1158613228.Tue.Sep.19_07_00_28.AEST.2006.narrabn.c5.hflip.jpg'
p223
aS'daytimex_1113339627.Wed.Apr.13_07_00_27.AEST.2005.narrabn.c5.hflip.jpg'
p224
aS'daytimex_1383339628.Sat.Nov.02_07_00_28.AEST.2013.narrabn.c5.hflip.jpg'
p225
aS'daytimex_1231707628.Mon.Jan.12_07_00_28.AEST.2009.narrabn.c5.hflip.jpg'
p226
aS'daytimex_1193346027.Fri.Oct.26_07_00_27.AEST.2007.narrabn.c5.hflip.jpg'
p227
aS'daytimex_1392930028.Fri.Feb.21_07_00_28.AEST.2014.narrabn.c5.hflip.jpg'
p228
aS'daytimex_1132347628.Sat.Nov.19_07_00_28.AEST.2005.narrabn.c5.hflip.jpg'
p229
aS'daytimex_1276635628.Wed.Jun.16_07_00_28.AEST.2010.narrabn.c5.hflip.jpg'
p230
aS'daytimex_1309554027.Sat.Jul.02_07_00_27.AEST.2011.narrabn.c5.hflip.jpg'
p231
aS'daytimex_1277845228.Wed.Jun.30_07_00_28.AEST.2010.narrabn.c5.hflip.jpg'
p232
aS'daytimex_1200949228.Tue.Jan.22_07_00_28.AEST.2008.narrabn.c5.hflip.jpg'
p233
aS'daytimex_1390078828.Sun.Jan.19_07_00_28.AEST.2014.narrabn.c5.hflip.jpg'
p234
aS'daytimex_1175547628.Tue.Apr.03_07_00_28.AEST.2007.narrabn.c5.hflip.jpg'
p235
aS'daytimex_1338670828.Sun.Jun.03_07_00_28.AEST.2012.narrabn.c5.hflip.jpg'
p236
aS'daytimex_1150318827.Thu.Jun.15_07_00_27.AEST.2006.narrabn.c5.hflip.jpg'
p237
aS'daytimex_1296248427.Sat.Jan.29_07_00_27.AEST.2011.narrabn.c5.hflip.jpg'
p238
aS'daytimex_1233003628.Tue.Jan.27_07_00_28.AEST.2009.narrabn.c5.hflip.jpg'
p239
aS'daytimex_1170104428.Tue.Jan.30_07_00_28.AEST.2007.narrabn.c5.hflip.jpg'
p240
aS'daytimex_1297026028.Mon.Feb.07_07_00_28.AEST.2011.narrabn.c5.hflip.jpg'
p241
aS'daytimex_1237323627.Wed.Mar.18_07_00_27.AEST.2009.narrabn.c5.hflip.jpg'
p242
aS'daytimex_1210021227.Tue.May.06_07_00_27.AEST.2008.narrabn.c5.hflip.jpg'
p243
aS'daytimex_1277845228.Wed.Jun.30_07_00_28.AEST.2010.narrabn.c5.hflip.jpg'
p244
aS'daytimex_1096752044.Sun.Oct.03_07_20_44.AEST.2004.narrabn.c5.hflip.jpg'
p245
aS'daytimex_1130878828.Wed.Nov.02_07_00_28.AEST.2005.narrabn.c5.hflip.jpg'
p246
aS'daytimex_1104267628.Wed.Dec.29_07_00_28.AEST.2004.narrabn.c5.hflip.jpg'
p247
aS'daytimex_1184706028.Wed.Jul.18_07_00_28.AEST.2007.narrabn.c5.hflip.jpg'
p248
aS'daytimex_1339448428.Tue.Jun.12_07_00_28.AEST.2012.narrabn.c5.hflip.jpg'
p249
aS'daytimex_1113771628.Mon.Apr.18_07_00_28.AEST.2005.narrabn.c5.hflip.jpg'
p250
aS'daytimex_1118523628.Sun.Jun.12_07_00_28.AEST.2005.narrabn.c5.hflip.jpg'
p251
aS'daytimex_1304715627.Sat.May.07_07_00_27.AEST.2011.narrabn.c5.hflip.jpg'
p252
aS'daytimex_1295643628.Sat.Jan.22_07_00_28.AEST.2011.narrabn.c5.hflip.jpg'
p253
aS'daytimex_1356123626.Sat.Dec.22_07_00_26.AEST.2012.narrabn.c5.hflip.jpg'
p254
aS'daytimex_1258837227.Sun.Nov.22_07_00_27.AEST.2009.narrabn.c5.hflip.jpg'
p255
aS'daytimex_1278018028.Fri.Jul.02_07_00_28.AEST.2010.narrabn.c5.hflip.jpg'
p256
aS'daytimex_1355259627.Wed.Dec.12_07_00_27.AEST.2012.narrabn.c5.hflip.jpg'
p257
aS'daytimex_1164229228.Thu.Nov.23_07_00_28.AEST.2006.narrabn.c5.hflip.jpg'
p258
aS'daytimex_1205614828.Sun.Mar.16_07_00_28.AEST.2008.narrabn.c5.hflip.jpg'
p259
aS'daytimex_1348779627.Fri.Sep.28_07_00_27.AEST.2012.narrabn.c5.hflip.jpg'
p260
aS'daytimex_1230757227.Thu.Jan.01_07_00_27.AEST.2009.narrabn.c5.hflip.jpg'
p261
aS'daytimex_1239138028.Wed.Apr.08_07_00_28.AEST.2009.narrabn.c5.hflip.jpg'
p262
aS'daytimex_1168981228.Wed.Jan.17_07_00_28.AEST.2007.narrabn.c5.hflip.jpg'
p263
aS'daytimex_1211058028.Sun.May.18_07_00_28.AEST.2008.narrabn.c5.hflip.jpg'
p264
aS'daytimex_1327179628.Sun.Jan.22_07_00_28.AEST.2012.narrabn.c5.hflip.jpg'
p265
aS'daytimex_1106514027.Mon.Jan.24_07_00_27.AEST.2005.narrabn.c5.hflip.jpg'
p266
aS'daytimex_1133470828.Fri.Dec.02_07_00_28.AEST.2005.narrabn.c5.hflip.jpg'
p267
aS'daytimex_1162674028.Sun.Nov.05_07_00_28.AEST.2006.narrabn.c5.hflip.jpg'
p268
aS'daytimex_1199998828.Fri.Jan.11_07_00_28.AEST.2008.narrabn.c5.hflip.jpg'
p269
aS'daytimex_1168808428.Mon.Jan.15_07_00_28.AEST.2007.narrabn.c5.hflip.jpg'
p270
aS'daytimex_1107032427.Sun.Jan.30_07_00_27.AEST.2005.narrabn.c5.hflip.jpg'
p271
aS'daytimex_1275080427.Sat.May.29_07_00_27.AEST.2010.narrabn.c5.hflip.jpg'
p272
aS'daytimex_1131915627.Mon.Nov.14_07_00_27.AEST.2005.narrabn.c5.hflip.jpg'
p273
aS'daytimex_1356382827.Tue.Dec.25_07_00_27.AEST.2012.narrabn.c5.hflip.jpg'
p274
aS'daytimex_1289336428.Wed.Nov.10_07_00_28.AEST.2010.narrabn.c5.hflip.jpg'
p275
aS'daytimex_1181854827.Fri.Jun.15_07_00_27.AEST.2007.narrabn.c5.hflip.jpg'
p276
aS'daytimex_1194469228.Thu.Nov.08_07_00_28.AEST.2007.narrabn.c5.hflip.jpg'
p277
aS'daytimex_1168722027.Sun.Jan.14_07_00_27.AEST.2007.narrabn.c5.hflip.jpg'
p278
aS'daytimex_1319749225.Fri.Oct.28_07_00_25.AEST.2011.narrabn.c5.hflip.jpg'
p279
aS'daytimex_1164229228.Thu.Nov.23_07_00_28.AEST.2006.narrabn.c5.hflip.jpg'
p280
aS'daytimex_1263070827.Sun.Jan.10_07_00_27.AEST.2010.narrabn.c5.hflip.jpg'
p281
aS'daytimex_1365109227.Fri.Apr.05_07_00_27.AEST.2013.narrabn.c5.hflip.jpg'
p282
aS'daytimex_1103058027.Wed.Dec.15_07_00_27.AEST.2004.narrabn.c5.hflip.jpg'
p283
aS'daytimex_1103403628.Sun.Dec.19_07_00_28.AEST.2004.narrabn.c5.hflip.jpg'
p284
aS'daytimex_1115586027.Mon.May.09_07_00_27.AEST.2005.narrabn.c5.hflip.jpg'
p285
aS'daytimex_1355518826.Sat.Dec.15_07_00_26.AEST.2012.narrabn.c5.hflip.jpg'
p286
aS'daytimex_1364331627.Wed.Mar.27_07_00_27.AEST.2013.narrabn.c5.hflip.jpg'
p287
aS'daytimex_1110920428.Wed.Mar.16_07_00_28.AEST.2005.narrabn.c5.hflip.jpg'
p288
aS'daytimex_1102539628.Thu.Dec.09_07_00_28.AEST.2004.narrabn.c5.hflip.jpg'
p289
aS'daytimex_1363294826.Fri.Mar.15_07_00_26.AEST.2013.narrabn.c5.hflip.jpg'
p290
aS'daytimex_1258837227.Sun.Nov.22_07_00_27.AEST.2009.narrabn.c5.hflip.jpg'
p291
aS'daytimex_1102712427.Sat.Dec.11_07_00_27.AEST.2004.narrabn.c5.hflip.jpg'
p292
aS'daytimex_1390165228.Mon.Jan.20_07_00_28.AEST.2014.narrabn.c5.hflip.jpg'
p293
aS'daytimex_1137013242.Thu.Jan.12_07_00_42.AEST.2006.narrabn.c5.hflip.jpg'
p294
aS'daytimex_1363381227.Sat.Mar.16_07_00_27.AEST.2013.narrabn.c5.hflip.jpg'
p295
aS'daytimex_1366059626.Tue.Apr.16_07_00_26.AEST.2013.narrabn.c5.hflip.jpg'
p296
aS'daytimex_1272315628.Tue.Apr.27_07_00_28.AEST.2010.narrabn.c5.hflip.jpg'
p297
aS'daytimex_1141506027.Sun.Mar.05_07_00_27.AEST.2006.narrabn.c5.hflip.jpg'
p298
aS'daytimex_1202331628.Thu.Feb.07_07_00_28.AEST.2008.narrabn.c5.hflip.jpg'
p299
aS'daytimex_1096752044.Sun.Oct.03_07_20_44.AEST.2004.narrabn.c5.hflip.jpg'
p300
aS'daytimex_1365714027.Fri.Apr.12_07_00_27.AEST.2013.narrabn.c5.hflip.jpg'
p301
aS'daytimex_1199739627.Tue.Jan.08_07_00_27.AEST.2008.narrabn.c5.hflip.jpg'
p302
aS'daytimex_1238014828.Thu.Mar.26_07_00_28.AEST.2009.narrabn.c5.hflip.jpg'
p303
aS'daytimex_1102453228.Wed.Dec.08_07_00_28.AEST.2004.narrabn.c5.hflip.jpg'
p304
aS'daytimex_1200258027.Mon.Jan.14_07_00_27.AEST.2008.narrabn.c5.hflip.jpg'
p305
aS'daytimex_1366837226.Thu.Apr.25_07_00_26.AEST.2013.narrabn.c5.hflip.jpg'
p306
aS'daytimex_1252270827.Mon.Sep.07_07_00_27.AEST.2009.narrabn.c5.hflip.jpg'
p307
aS'daytimex_1379624427.Fri.Sep.20_07_00_27.AEST.2013.narrabn.c5.hflip.jpg'
p308
aS'daytimex_1144616428.Mon.Apr.10_07_00_28.AEST.2006.narrabn.c5.hflip.jpg'
p309
aS'daytimex_1115758827.Wed.May.11_07_00_27.AEST.2005.narrabn.c5.vflip.jpg'
p310
aS'daytimex_1115067628.Tue.May.03_07_00_28.AEST.2005.narrabn.c5.vflip.jpg'
p311
aS'daytimex_1362776427.Sat.Mar.09_07_00_27.AEST.2013.narrabn.c5.vflip.jpg'
p312
aS'daytimex_1152478828.Mon.Jul.10_07_00_28.AEST.2006.narrabn.c5.vflip.jpg'
p313
aS'daytimex_1244840427.Sat.Jun.13_07_00_27.AEST.2009.narrabn.c5.vflip.jpg'
p314
aS'daytimex_1179608427.Sun.May.20_07_00_27.AEST.2007.narrabn.c5.vflip.jpg'
p315
aS'daytimex_1391115627.Fri.Jan.31_07_00_27.AEST.2014.narrabn.c5.vflip.jpg'
p316
aS'daytimex_1151614827.Fri.Jun.30_07_00_27.AEST.2006.narrabn.c5.vflip.jpg'
p317
aS'daytimex_1168808428.Mon.Jan.15_07_00_28.AEST.2007.narrabn.c5.vflip.jpg'
p318
aS'daytimex_1178226028.Fri.May.04_07_00_28.AEST.2007.narrabn.c5.vflip.jpg'
p319
aS'daytimex_1199307628.Thu.Jan.03_07_00_28.AEST.2008.narrabn.c5.vflip.jpg'
p320
aS'daytimex_1179522028.Sat.May.19_07_00_28.AEST.2007.narrabn.c5.vflip.jpg'
p321
aS'daytimex_1115586027.Mon.May.09_07_00_27.AEST.2005.narrabn.c5.vflip.jpg'
p322
aS'daytimex_1092432044.Sat.Aug.14_07_20_44.AEST.2004.narrabn.c5.vflip.jpg'
p323
aS'daytimex_1377205228.Fri.Aug.23_07_00_28.AEST.2013.narrabn.c5.vflip.jpg'
p324
aS'daytimex_1114722027.Fri.Apr.29_07_00_27.AEST.2005.narrabn.c5.vflip.jpg'
p325
aS'daytimex_1356382827.Tue.Dec.25_07_00_27.AEST.2012.narrabn.c5.vflip.jpg'
p326
aS'daytimex_1183410028.Tue.Jul.03_07_00_28.AEST.2007.narrabn.c5.vflip.jpg'
p327
aS'daytimex_1244667628.Thu.Jun.11_07_00_28.AEST.2009.narrabn.c5.vflip.jpg'
p328
aS'daytimex_1216414828.Sat.Jul.19_07_00_28.AEST.2008.narrabn.c5.vflip.jpg'
p329
aS'daytimex_1180904428.Mon.Jun.04_07_00_28.AEST.2007.narrabn.c5.vflip.jpg'
p330
aS'daytimex_1216328427.Fri.Jul.18_07_00_27.AEST.2008.narrabn.c5.vflip.jpg'
p331
aS'daytimex_1179262828.Wed.May.16_07_00_28.AEST.2007.narrabn.c5.vflip.jpg'
p332
aS'daytimex_1233003628.Tue.Jan.27_07_00_28.AEST.2009.narrabn.c5.vflip.jpg'
p333
aS'daytimex_1115413227.Sat.May.07_07_00_27.AEST.2005.narrabn.c5.vflip.jpg'
p334
aS'daytimex_1122843628.Mon.Aug.01_07_00_28.AEST.2005.narrabn.c5.vflip.jpg'
p335
aS'daytimex_1218747627.Fri.Aug.15_07_00_27.AEST.2008.narrabn.c5.vflip.jpg'
p336
aS'daytimex_1191877228.Tue.Oct.09_07_00_28.AEST.2007.narrabn.c5.vflip.jpg'
p337
aS'daytimex_1189458027.Tue.Sep.11_07_00_27.AEST.2007.narrabn.c5.vflip.jpg'
p338
aS'daytimex_1192568427.Wed.Oct.17_07_00_27.AEST.2007.narrabn.c5.vflip.jpg'
p339
aS'daytimex_1210366827.Sat.May.10_07_00_27.AEST.2008.narrabn.c5.vflip.jpg'
p340
aS'daytimex_1366664426.Tue.Apr.23_07_00_26.AEST.2013.narrabn.c5.vflip.jpg'
p341
aS'daytimex_1176498028.Sat.Apr.14_07_00_28.AEST.2007.narrabn.c5.vflip.jpg'
p342
aS'daytimex_1199739627.Tue.Jan.08_07_00_27.AEST.2008.narrabn.c5.vflip.jpg'
p343
aS'daytimex_1192395627.Mon.Oct.15_07_00_27.AEST.2007.narrabn.c5.vflip.jpg'
p344
aS'daytimex_1367701227.Sun.May.05_07_00_27.AEST.2013.narrabn.c5.vflip.jpg'
p345
aS'daytimex_1095542444.Sun.Sep.19_07_20_44.AEST.2004.narrabn.c5.vflip.jpg'
p346
aS'daytimex_1300482028.Sat.Mar.19_07_00_28.AEST.2011.narrabn.c5.vflip.jpg'
p347
aS'daytimex_1176584427.Sun.Apr.15_07_00_27.AEST.2007.narrabn.c5.vflip.jpg'
p348
aS'daytimex_1107032427.Sun.Jan.30_07_00_27.AEST.2005.narrabn.c5.vflip.jpg'
p349
aS'daytimex_1216328427.Fri.Jul.18_07_00_27.AEST.2008.narrabn.c5.vflip.jpg'
p350
aS'daytimex_1113944427.Wed.Apr.20_07_00_27.AEST.2005.narrabn.c5.vflip.jpg'
p351
aS'daytimex_1393707627.Sun.Mar.02_07_00_27.AEST.2014.narrabn.c5.vflip.jpg'
p352
aS'daytimex_1177880427.Mon.Apr.30_07_00_27.AEST.2007.narrabn.c5.vflip.jpg'
p353
aS'daytimex_1285448428.Sun.Sep.26_07_00_28.AEST.2010.narrabn.c5.vflip.jpg'
p354
aS'daytimex_1110229228.Tue.Mar.08_07_00_28.AEST.2005.narrabn.c5.vflip.jpg'
p355
aS'daytimex_1296421228.Mon.Jan.31_07_00_28.AEST.2011.narrabn.c5.vflip.jpg'
p356
aS'daytimex_1160082028.Fri.Oct.06_07_00_28.AEST.2006.narrabn.c5.vflip.jpg'
p357
aS'daytimex_1325019628.Wed.Dec.28_07_00_28.AEST.2011.narrabn.c5.vflip.jpg'
p358
aS'daytimex_1364504427.Fri.Mar.29_07_00_27.AEST.2013.narrabn.c5.vflip.jpg'
p359
aS'daytimex_1395867628.Thu.Mar.27_07_00_28.AEST.2014.narrabn.c5.vflip.jpg'
p360
aS'daytimex_1280091628.Mon.Jul.26_07_00_28.AEST.2010.narrabn.c5.vflip.jpg'
p361
aS'daytimex_1278882027.Mon.Jul.12_07_00_27.AEST.2010.narrabn.c5.vflip.jpg'
p362
aS'daytimex_1110315628.Wed.Mar.09_07_00_28.AEST.2005.narrabn.c5.vflip.jpg'
p363
aS'daytimex_1324760428.Sun.Dec.25_07_00_28.AEST.2011.narrabn.c5.vflip.jpg'
p364
aS'daytimex_1396818028.Mon.Apr.07_07_00_28.AEST.2014.narrabn.c5.vflip.jpg'
p365
aS'daytimex_1110661227.Sun.Mar.13_07_00_27.AEST.2005.narrabn.c5.vflip.jpg'
p366
aS'daytimex_1174683628.Sat.Mar.24_07_00_28.AEST.2007.narrabn.c5.vflip.jpg'
p367
aS'daytimex_1302123627.Thu.Apr.07_07_00_27.AEST.2011.narrabn.c5.vflip.jpg'
p368
aS'daytimex_1394830828.Sat.Mar.15_07_00_28.AEST.2014.narrabn.c5.vflip.jpg'
p369
aS'daytimex_1115154028.Wed.May.04_07_00_28.AEST.2005.narrabn.c5.vflip.jpg'
p370
aS'daytimex_1397077227.Thu.Apr.10_07_00_27.AEST.2014.narrabn.c5.vflip.jpg'
p371
aS'daytimex_1165611628.Sat.Dec.09_07_00_28.AEST.2006.narrabn.c5.vflip.jpg'
p372
aS'daytimex_1118264428.Thu.Jun.09_07_00_28.AEST.2005.narrabn.c5.vflip.jpg'
p373
aS'daytimex_1095196845.Wed.Sep.15_07_20_45.AEST.2004.narrabn.c5.vflip.jpg'
p374
aS'daytimex_1115326827.Fri.May.06_07_00_27.AEST.2005.narrabn.c5.vflip.jpg'
p375
aS'daytimex_1348779627.Fri.Sep.28_07_00_27.AEST.2012.narrabn.c5.vflip.jpg'
p376
aS'daytimex_1192136427.Fri.Oct.12_07_00_27.AEST.2007.narrabn.c5.vflip.jpg'
p377
aS'daytimex_1091568045.Wed.Aug.04_07_20_45.AEST.2004.narrabn.c5.vflip.jpg'
p378
aS'daytimex_1298062827.Sat.Feb.19_07_00_27.AEST.2011.narrabn.c5.vflip.jpg'
p379
aS'daytimex_1383339628.Sat.Nov.02_07_00_28.AEST.2013.narrabn.c5.vflip.jpg'
p380
aS'daytimex_1338670828.Sun.Jun.03_07_00_28.AEST.2012.narrabn.c5.vflip.jpg'
p381
aS'daytimex_1383166828.Thu.Oct.31_07_00_28.AEST.2013.narrabn.c5.vflip.jpg'
p382
aS'daytimex_1383166828.Thu.Oct.31_07_00_28.AEST.2013.narrabn.c5.vflip.jpg'
p383
aS'daytimex_1170968427.Fri.Feb.09_07_00_27.AEST.2007.narrabn.c5.vflip.jpg'
p384
aS'daytimex_1158613228.Tue.Sep.19_07_00_28.AEST.2006.narrabn.c5.vflip.jpg'
p385
aS'daytimex_1113339627.Wed.Apr.13_07_00_27.AEST.2005.narrabn.c5.vflip.jpg'
p386
aS'daytimex_1383339628.Sat.Nov.02_07_00_28.AEST.2013.narrabn.c5.vflip.jpg'
p387
aS'daytimex_1231707628.Mon.Jan.12_07_00_28.AEST.2009.narrabn.c5.vflip.jpg'
p388
aS'daytimex_1193346027.Fri.Oct.26_07_00_27.AEST.2007.narrabn.c5.vflip.jpg'
p389
aS'daytimex_1392930028.Fri.Feb.21_07_00_28.AEST.2014.narrabn.c5.vflip.jpg'
p390
aS'daytimex_1132347628.Sat.Nov.19_07_00_28.AEST.2005.narrabn.c5.vflip.jpg'
p391
aS'daytimex_1276635628.Wed.Jun.16_07_00_28.AEST.2010.narrabn.c5.vflip.jpg'
p392
aS'daytimex_1309554027.Sat.Jul.02_07_00_27.AEST.2011.narrabn.c5.vflip.jpg'
p393
aS'daytimex_1277845228.Wed.Jun.30_07_00_28.AEST.2010.narrabn.c5.vflip.jpg'
p394
aS'daytimex_1200949228.Tue.Jan.22_07_00_28.AEST.2008.narrabn.c5.vflip.jpg'
p395
aS'daytimex_1390078828.Sun.Jan.19_07_00_28.AEST.2014.narrabn.c5.vflip.jpg'
p396
aS'daytimex_1175547628.Tue.Apr.03_07_00_28.AEST.2007.narrabn.c5.vflip.jpg'
p397
aS'daytimex_1338670828.Sun.Jun.03_07_00_28.AEST.2012.narrabn.c5.vflip.jpg'
p398
aS'daytimex_1150318827.Thu.Jun.15_07_00_27.AEST.2006.narrabn.c5.vflip.jpg'
p399
aS'daytimex_1296248427.Sat.Jan.29_07_00_27.AEST.2011.narrabn.c5.vflip.jpg'
p400
aS'daytimex_1233003628.Tue.Jan.27_07_00_28.AEST.2009.narrabn.c5.vflip.jpg'
p401
aS'daytimex_1170104428.Tue.Jan.30_07_00_28.AEST.2007.narrabn.c5.vflip.jpg'
p402
aS'daytimex_1297026028.Mon.Feb.07_07_00_28.AEST.2011.narrabn.c5.vflip.jpg'
p403
aS'daytimex_1237323627.Wed.Mar.18_07_00_27.AEST.2009.narrabn.c5.vflip.jpg'
p404
aS'daytimex_1210021227.Tue.May.06_07_00_27.AEST.2008.narrabn.c5.vflip.jpg'
p405
aS'daytimex_1277845228.Wed.Jun.30_07_00_28.AEST.2010.narrabn.c5.vflip.jpg'
p406
aS'daytimex_1096752044.Sun.Oct.03_07_20_44.AEST.2004.narrabn.c5.vflip.jpg'
p407
aS'daytimex_1130878828.Wed.Nov.02_07_00_28.AEST.2005.narrabn.c5.vflip.jpg'
p408
aS'daytimex_1104267628.Wed.Dec.29_07_00_28.AEST.2004.narrabn.c5.vflip.jpg'
p409
aS'daytimex_1184706028.Wed.Jul.18_07_00_28.AEST.2007.narrabn.c5.vflip.jpg'
p410
aS'daytimex_1339448428.Tue.Jun.12_07_00_28.AEST.2012.narrabn.c5.vflip.jpg'
p411
aS'daytimex_1113771628.Mon.Apr.18_07_00_28.AEST.2005.narrabn.c5.vflip.jpg'
p412
aS'daytimex_1118523628.Sun.Jun.12_07_00_28.AEST.2005.narrabn.c5.vflip.jpg'
p413
aS'daytimex_1304715627.Sat.May.07_07_00_27.AEST.2011.narrabn.c5.vflip.jpg'
p414
aS'daytimex_1295643628.Sat.Jan.22_07_00_28.AEST.2011.narrabn.c5.vflip.jpg'
p415
aS'daytimex_1356123626.Sat.Dec.22_07_00_26.AEST.2012.narrabn.c5.vflip.jpg'
p416
aS'daytimex_1258837227.Sun.Nov.22_07_00_27.AEST.2009.narrabn.c5.vflip.jpg'
p417
aS'daytimex_1278018028.Fri.Jul.02_07_00_28.AEST.2010.narrabn.c5.vflip.jpg'
p418
aS'daytimex_1355259627.Wed.Dec.12_07_00_27.AEST.2012.narrabn.c5.vflip.jpg'
p419
aS'daytimex_1164229228.Thu.Nov.23_07_00_28.AEST.2006.narrabn.c5.vflip.jpg'
p420
aS'daytimex_1205614828.Sun.Mar.16_07_00_28.AEST.2008.narrabn.c5.vflip.jpg'
p421
aS'daytimex_1348779627.Fri.Sep.28_07_00_27.AEST.2012.narrabn.c5.vflip.jpg'
p422
aS'daytimex_1230757227.Thu.Jan.01_07_00_27.AEST.2009.narrabn.c5.vflip.jpg'
p423
aS'daytimex_1239138028.Wed.Apr.08_07_00_28.AEST.2009.narrabn.c5.vflip.jpg'
p424
aS'daytimex_1168981228.Wed.Jan.17_07_00_28.AEST.2007.narrabn.c5.vflip.jpg'
p425
aS'daytimex_1211058028.Sun.May.18_07_00_28.AEST.2008.narrabn.c5.vflip.jpg'
p426
aS'daytimex_1327179628.Sun.Jan.22_07_00_28.AEST.2012.narrabn.c5.vflip.jpg'
p427
aS'daytimex_1106514027.Mon.Jan.24_07_00_27.AEST.2005.narrabn.c5.vflip.jpg'
p428
aS'daytimex_1133470828.Fri.Dec.02_07_00_28.AEST.2005.narrabn.c5.vflip.jpg'
p429
aS'daytimex_1162674028.Sun.Nov.05_07_00_28.AEST.2006.narrabn.c5.vflip.jpg'
p430
aS'daytimex_1199998828.Fri.Jan.11_07_00_28.AEST.2008.narrabn.c5.vflip.jpg'
p431
aS'daytimex_1168808428.Mon.Jan.15_07_00_28.AEST.2007.narrabn.c5.vflip.jpg'
p432
aS'daytimex_1107032427.Sun.Jan.30_07_00_27.AEST.2005.narrabn.c5.vflip.jpg'
p433
aS'daytimex_1275080427.Sat.May.29_07_00_27.AEST.2010.narrabn.c5.vflip.jpg'
p434
aS'daytimex_1131915627.Mon.Nov.14_07_00_27.AEST.2005.narrabn.c5.vflip.jpg'
p435
aS'daytimex_1356382827.Tue.Dec.25_07_00_27.AEST.2012.narrabn.c5.vflip.jpg'
p436
aS'daytimex_1289336428.Wed.Nov.10_07_00_28.AEST.2010.narrabn.c5.vflip.jpg'
p437
aS'daytimex_1181854827.Fri.Jun.15_07_00_27.AEST.2007.narrabn.c5.vflip.jpg'
p438
aS'daytimex_1194469228.Thu.Nov.08_07_00_28.AEST.2007.narrabn.c5.vflip.jpg'
p439
aS'daytimex_1168722027.Sun.Jan.14_07_00_27.AEST.2007.narrabn.c5.vflip.jpg'
p440
aS'daytimex_1319749225.Fri.Oct.28_07_00_25.AEST.2011.narrabn.c5.vflip.jpg'
p441
aS'daytimex_1164229228.Thu.Nov.23_07_00_28.AEST.2006.narrabn.c5.vflip.jpg'
p442
aS'daytimex_1263070827.Sun.Jan.10_07_00_27.AEST.2010.narrabn.c5.vflip.jpg'
p443
aS'daytimex_1365109227.Fri.Apr.05_07_00_27.AEST.2013.narrabn.c5.vflip.jpg'
p444
aS'daytimex_1103058027.Wed.Dec.15_07_00_27.AEST.2004.narrabn.c5.vflip.jpg'
p445
aS'daytimex_1103403628.Sun.Dec.19_07_00_28.AEST.2004.narrabn.c5.vflip.jpg'
p446
aS'daytimex_1115586027.Mon.May.09_07_00_27.AEST.2005.narrabn.c5.vflip.jpg'
p447
aS'daytimex_1355518826.Sat.Dec.15_07_00_26.AEST.2012.narrabn.c5.vflip.jpg'
p448
aS'daytimex_1364331627.Wed.Mar.27_07_00_27.AEST.2013.narrabn.c5.vflip.jpg'
p449
aS'daytimex_1110920428.Wed.Mar.16_07_00_28.AEST.2005.narrabn.c5.vflip.jpg'
p450
aS'daytimex_1102539628.Thu.Dec.09_07_00_28.AEST.2004.narrabn.c5.vflip.jpg'
p451
aS'daytimex_1363294826.Fri.Mar.15_07_00_26.AEST.2013.narrabn.c5.vflip.jpg'
p452
aS'daytimex_1258837227.Sun.Nov.22_07_00_27.AEST.2009.narrabn.c5.vflip.jpg'
p453
aS'daytimex_1102712427.Sat.Dec.11_07_00_27.AEST.2004.narrabn.c5.vflip.jpg'
p454
aS'daytimex_1390165228.Mon.Jan.20_07_00_28.AEST.2014.narrabn.c5.vflip.jpg'
p455
aS'daytimex_1137013242.Thu.Jan.12_07_00_42.AEST.2006.narrabn.c5.vflip.jpg'
p456
aS'daytimex_1363381227.Sat.Mar.16_07_00_27.AEST.2013.narrabn.c5.vflip.jpg'
p457
aS'daytimex_1366059626.Tue.Apr.16_07_00_26.AEST.2013.narrabn.c5.vflip.jpg'
p458
aS'daytimex_1272315628.Tue.Apr.27_07_00_28.AEST.2010.narrabn.c5.vflip.jpg'
p459
aS'daytimex_1141506027.Sun.Mar.05_07_00_27.AEST.2006.narrabn.c5.vflip.jpg'
p460
aS'daytimex_1202331628.Thu.Feb.07_07_00_28.AEST.2008.narrabn.c5.vflip.jpg'
p461
aS'daytimex_1096752044.Sun.Oct.03_07_20_44.AEST.2004.narrabn.c5.vflip.jpg'
p462
aS'daytimex_1365714027.Fri.Apr.12_07_00_27.AEST.2013.narrabn.c5.vflip.jpg'
p463
aS'daytimex_1199739627.Tue.Jan.08_07_00_27.AEST.2008.narrabn.c5.vflip.jpg'
p464
aS'daytimex_1238014828.Thu.Mar.26_07_00_28.AEST.2009.narrabn.c5.vflip.jpg'
p465
aS'daytimex_1102453228.Wed.Dec.08_07_00_28.AEST.2004.narrabn.c5.vflip.jpg'
p466
aS'daytimex_1200258027.Mon.Jan.14_07_00_27.AEST.2008.narrabn.c5.vflip.jpg'
p467
aS'daytimex_1366837226.Thu.Apr.25_07_00_26.AEST.2013.narrabn.c5.vflip.jpg'
p468
aS'daytimex_1252270827.Mon.Sep.07_07_00_27.AEST.2009.narrabn.c5.vflip.jpg'
p469
aS'daytimex_1379624427.Fri.Sep.20_07_00_27.AEST.2013.narrabn.c5.vflip.jpg'
p470
aS'daytimex_1144616428.Mon.Apr.10_07_00_28.AEST.2006.narrabn.c5.vflip.jpg'
p471
aS'daytimex_1115758827.Wed.May.11_07_00_27.AEST.2005.narrabn.c5.rot.jpg'
p472
aS'daytimex_1115067628.Tue.May.03_07_00_28.AEST.2005.narrabn.c5.rot.jpg'
p473
aS'daytimex_1362776427.Sat.Mar.09_07_00_27.AEST.2013.narrabn.c5.rot.jpg'
p474
aS'daytimex_1152478828.Mon.Jul.10_07_00_28.AEST.2006.narrabn.c5.rot.jpg'
p475
aS'daytimex_1244840427.Sat.Jun.13_07_00_27.AEST.2009.narrabn.c5.rot.jpg'
p476
aS'daytimex_1179608427.Sun.May.20_07_00_27.AEST.2007.narrabn.c5.rot.jpg'
p477
aS'daytimex_1391115627.Fri.Jan.31_07_00_27.AEST.2014.narrabn.c5.rot.jpg'
p478
aS'daytimex_1151614827.Fri.Jun.30_07_00_27.AEST.2006.narrabn.c5.rot.jpg'
p479
aS'daytimex_1168808428.Mon.Jan.15_07_00_28.AEST.2007.narrabn.c5.rot.jpg'
p480
aS'daytimex_1178226028.Fri.May.04_07_00_28.AEST.2007.narrabn.c5.rot.jpg'
p481
aS'daytimex_1199307628.Thu.Jan.03_07_00_28.AEST.2008.narrabn.c5.rot.jpg'
p482
aS'daytimex_1179522028.Sat.May.19_07_00_28.AEST.2007.narrabn.c5.rot.jpg'
p483
aS'daytimex_1115586027.Mon.May.09_07_00_27.AEST.2005.narrabn.c5.rot.jpg'
p484
aS'daytimex_1092432044.Sat.Aug.14_07_20_44.AEST.2004.narrabn.c5.rot.jpg'
p485
aS'daytimex_1377205228.Fri.Aug.23_07_00_28.AEST.2013.narrabn.c5.rot.jpg'
p486
aS'daytimex_1114722027.Fri.Apr.29_07_00_27.AEST.2005.narrabn.c5.rot.jpg'
p487
aS'daytimex_1356382827.Tue.Dec.25_07_00_27.AEST.2012.narrabn.c5.rot.jpg'
p488
aS'daytimex_1183410028.Tue.Jul.03_07_00_28.AEST.2007.narrabn.c5.rot.jpg'
p489
aS'daytimex_1244667628.Thu.Jun.11_07_00_28.AEST.2009.narrabn.c5.rot.jpg'
p490
aS'daytimex_1216414828.Sat.Jul.19_07_00_28.AEST.2008.narrabn.c5.rot.jpg'
p491
aS'daytimex_1180904428.Mon.Jun.04_07_00_28.AEST.2007.narrabn.c5.rot.jpg'
p492
aS'daytimex_1216328427.Fri.Jul.18_07_00_27.AEST.2008.narrabn.c5.rot.jpg'
p493
aS'daytimex_1179262828.Wed.May.16_07_00_28.AEST.2007.narrabn.c5.rot.jpg'
p494
aS'daytimex_1233003628.Tue.Jan.27_07_00_28.AEST.2009.narrabn.c5.rot.jpg'
p495
aS'daytimex_1115413227.Sat.May.07_07_00_27.AEST.2005.narrabn.c5.rot.jpg'
p496
aS'daytimex_1122843628.Mon.Aug.01_07_00_28.AEST.2005.narrabn.c5.rot.jpg'
p497
aS'daytimex_1218747627.Fri.Aug.15_07_00_27.AEST.2008.narrabn.c5.rot.jpg'
p498
aS'daytimex_1191877228.Tue.Oct.09_07_00_28.AEST.2007.narrabn.c5.rot.jpg'
p499
aS'daytimex_1189458027.Tue.Sep.11_07_00_27.AEST.2007.narrabn.c5.rot.jpg'
p500
aS'daytimex_1192568427.Wed.Oct.17_07_00_27.AEST.2007.narrabn.c5.rot.jpg'
p501
aS'daytimex_1210366827.Sat.May.10_07_00_27.AEST.2008.narrabn.c5.rot.jpg'
p502
aS'daytimex_1366664426.Tue.Apr.23_07_00_26.AEST.2013.narrabn.c5.rot.jpg'
p503
aS'daytimex_1176498028.Sat.Apr.14_07_00_28.AEST.2007.narrabn.c5.rot.jpg'
p504
aS'daytimex_1199739627.Tue.Jan.08_07_00_27.AEST.2008.narrabn.c5.rot.jpg'
p505
aS'daytimex_1192395627.Mon.Oct.15_07_00_27.AEST.2007.narrabn.c5.rot.jpg'
p506
aS'daytimex_1367701227.Sun.May.05_07_00_27.AEST.2013.narrabn.c5.rot.jpg'
p507
aS'daytimex_1095542444.Sun.Sep.19_07_20_44.AEST.2004.narrabn.c5.rot.jpg'
p508
aS'daytimex_1300482028.Sat.Mar.19_07_00_28.AEST.2011.narrabn.c5.rot.jpg'
p509
aS'daytimex_1176584427.Sun.Apr.15_07_00_27.AEST.2007.narrabn.c5.rot.jpg'
p510
aS'daytimex_1107032427.Sun.Jan.30_07_00_27.AEST.2005.narrabn.c5.rot.jpg'
p511
aS'daytimex_1216328427.Fri.Jul.18_07_00_27.AEST.2008.narrabn.c5.rot.jpg'
p512
aS'daytimex_1113944427.Wed.Apr.20_07_00_27.AEST.2005.narrabn.c5.rot.jpg'
p513
aS'daytimex_1393707627.Sun.Mar.02_07_00_27.AEST.2014.narrabn.c5.rot.jpg'
p514
aS'daytimex_1177880427.Mon.Apr.30_07_00_27.AEST.2007.narrabn.c5.rot.jpg'
p515
aS'daytimex_1285448428.Sun.Sep.26_07_00_28.AEST.2010.narrabn.c5.rot.jpg'
p516
aS'daytimex_1110229228.Tue.Mar.08_07_00_28.AEST.2005.narrabn.c5.rot.jpg'
p517
aS'daytimex_1296421228.Mon.Jan.31_07_00_28.AEST.2011.narrabn.c5.rot.jpg'
p518
aS'daytimex_1160082028.Fri.Oct.06_07_00_28.AEST.2006.narrabn.c5.rot.jpg'
p519
aS'daytimex_1325019628.Wed.Dec.28_07_00_28.AEST.2011.narrabn.c5.rot.jpg'
p520
aS'daytimex_1364504427.Fri.Mar.29_07_00_27.AEST.2013.narrabn.c5.rot.jpg'
p521
aS'daytimex_1395867628.Thu.Mar.27_07_00_28.AEST.2014.narrabn.c5.rot.jpg'
p522
aS'daytimex_1280091628.Mon.Jul.26_07_00_28.AEST.2010.narrabn.c5.rot.jpg'
p523
aS'daytimex_1278882027.Mon.Jul.12_07_00_27.AEST.2010.narrabn.c5.rot.jpg'
p524
aS'daytimex_1110315628.Wed.Mar.09_07_00_28.AEST.2005.narrabn.c5.rot.jpg'
p525
aS'daytimex_1324760428.Sun.Dec.25_07_00_28.AEST.2011.narrabn.c5.rot.jpg'
p526
aS'daytimex_1396818028.Mon.Apr.07_07_00_28.AEST.2014.narrabn.c5.rot.jpg'
p527
aS'daytimex_1110661227.Sun.Mar.13_07_00_27.AEST.2005.narrabn.c5.rot.jpg'
p528
aS'daytimex_1174683628.Sat.Mar.24_07_00_28.AEST.2007.narrabn.c5.rot.jpg'
p529
aS'daytimex_1302123627.Thu.Apr.07_07_00_27.AEST.2011.narrabn.c5.rot.jpg'
p530
aS'daytimex_1394830828.Sat.Mar.15_07_00_28.AEST.2014.narrabn.c5.rot.jpg'
p531
aS'daytimex_1115154028.Wed.May.04_07_00_28.AEST.2005.narrabn.c5.rot.jpg'
p532
aS'daytimex_1397077227.Thu.Apr.10_07_00_27.AEST.2014.narrabn.c5.rot.jpg'
p533
aS'daytimex_1165611628.Sat.Dec.09_07_00_28.AEST.2006.narrabn.c5.rot.jpg'
p534
aS'daytimex_1118264428.Thu.Jun.09_07_00_28.AEST.2005.narrabn.c5.rot.jpg'
p535
aS'daytimex_1095196845.Wed.Sep.15_07_20_45.AEST.2004.narrabn.c5.rot.jpg'
p536
aS'daytimex_1115326827.Fri.May.06_07_00_27.AEST.2005.narrabn.c5.rot.jpg'
p537
aS'daytimex_1348779627.Fri.Sep.28_07_00_27.AEST.2012.narrabn.c5.rot.jpg'
p538
aS'daytimex_1192136427.Fri.Oct.12_07_00_27.AEST.2007.narrabn.c5.rot.jpg'
p539
aS'daytimex_1091568045.Wed.Aug.04_07_20_45.AEST.2004.narrabn.c5.rot.jpg'
p540
aS'daytimex_1298062827.Sat.Feb.19_07_00_27.AEST.2011.narrabn.c5.rot.jpg'
p541
aS'daytimex_1383339628.Sat.Nov.02_07_00_28.AEST.2013.narrabn.c5.rot.jpg'
p542
aS'daytimex_1338670828.Sun.Jun.03_07_00_28.AEST.2012.narrabn.c5.rot.jpg'
p543
aS'daytimex_1383166828.Thu.Oct.31_07_00_28.AEST.2013.narrabn.c5.rot.jpg'
p544
aS'daytimex_1383166828.Thu.Oct.31_07_00_28.AEST.2013.narrabn.c5.rot.jpg'
p545
aS'daytimex_1170968427.Fri.Feb.09_07_00_27.AEST.2007.narrabn.c5.rot.jpg'
p546
aS'daytimex_1158613228.Tue.Sep.19_07_00_28.AEST.2006.narrabn.c5.rot.jpg'
p547
aS'daytimex_1113339627.Wed.Apr.13_07_00_27.AEST.2005.narrabn.c5.rot.jpg'
p548
aS'daytimex_1383339628.Sat.Nov.02_07_00_28.AEST.2013.narrabn.c5.rot.jpg'
p549
aS'daytimex_1231707628.Mon.Jan.12_07_00_28.AEST.2009.narrabn.c5.rot.jpg'
p550
aS'daytimex_1193346027.Fri.Oct.26_07_00_27.AEST.2007.narrabn.c5.rot.jpg'
p551
aS'daytimex_1392930028.Fri.Feb.21_07_00_28.AEST.2014.narrabn.c5.rot.jpg'
p552
aS'daytimex_1132347628.Sat.Nov.19_07_00_28.AEST.2005.narrabn.c5.rot.jpg'
p553
aS'daytimex_1276635628.Wed.Jun.16_07_00_28.AEST.2010.narrabn.c5.rot.jpg'
p554
aS'daytimex_1309554027.Sat.Jul.02_07_00_27.AEST.2011.narrabn.c5.rot.jpg'
p555
aS'daytimex_1277845228.Wed.Jun.30_07_00_28.AEST.2010.narrabn.c5.rot.jpg'
p556
aS'daytimex_1200949228.Tue.Jan.22_07_00_28.AEST.2008.narrabn.c5.rot.jpg'
p557
aS'daytimex_1390078828.Sun.Jan.19_07_00_28.AEST.2014.narrabn.c5.rot.jpg'
p558
aS'daytimex_1175547628.Tue.Apr.03_07_00_28.AEST.2007.narrabn.c5.rot.jpg'
p559
aS'daytimex_1338670828.Sun.Jun.03_07_00_28.AEST.2012.narrabn.c5.rot.jpg'
p560
aS'daytimex_1150318827.Thu.Jun.15_07_00_27.AEST.2006.narrabn.c5.rot.jpg'
p561
aS'daytimex_1296248427.Sat.Jan.29_07_00_27.AEST.2011.narrabn.c5.rot.jpg'
p562
aS'daytimex_1233003628.Tue.Jan.27_07_00_28.AEST.2009.narrabn.c5.rot.jpg'
p563
aS'daytimex_1170104428.Tue.Jan.30_07_00_28.AEST.2007.narrabn.c5.rot.jpg'
p564
aS'daytimex_1297026028.Mon.Feb.07_07_00_28.AEST.2011.narrabn.c5.rot.jpg'
p565
aS'daytimex_1237323627.Wed.Mar.18_07_00_27.AEST.2009.narrabn.c5.rot.jpg'
p566
aS'daytimex_1210021227.Tue.May.06_07_00_27.AEST.2008.narrabn.c5.rot.jpg'
p567
aS'daytimex_1277845228.Wed.Jun.30_07_00_28.AEST.2010.narrabn.c5.rot.jpg'
p568
aS'daytimex_1096752044.Sun.Oct.03_07_20_44.AEST.2004.narrabn.c5.rot.jpg'
p569
aS'daytimex_1130878828.Wed.Nov.02_07_00_28.AEST.2005.narrabn.c5.rot.jpg'
p570
aS'daytimex_1104267628.Wed.Dec.29_07_00_28.AEST.2004.narrabn.c5.rot.jpg'
p571
aS'daytimex_1184706028.Wed.Jul.18_07_00_28.AEST.2007.narrabn.c5.rot.jpg'
p572
aS'daytimex_1339448428.Tue.Jun.12_07_00_28.AEST.2012.narrabn.c5.rot.jpg'
p573
aS'daytimex_1113771628.Mon.Apr.18_07_00_28.AEST.2005.narrabn.c5.rot.jpg'
p574
aS'daytimex_1118523628.Sun.Jun.12_07_00_28.AEST.2005.narrabn.c5.rot.jpg'
p575
aS'daytimex_1304715627.Sat.May.07_07_00_27.AEST.2011.narrabn.c5.rot.jpg'
p576
aS'daytimex_1295643628.Sat.Jan.22_07_00_28.AEST.2011.narrabn.c5.rot.jpg'
p577
aS'daytimex_1356123626.Sat.Dec.22_07_00_26.AEST.2012.narrabn.c5.rot.jpg'
p578
aS'daytimex_1258837227.Sun.Nov.22_07_00_27.AEST.2009.narrabn.c5.rot.jpg'
p579
aS'daytimex_1278018028.Fri.Jul.02_07_00_28.AEST.2010.narrabn.c5.rot.jpg'
p580
aS'daytimex_1355259627.Wed.Dec.12_07_00_27.AEST.2012.narrabn.c5.rot.jpg'
p581
aS'daytimex_1164229228.Thu.Nov.23_07_00_28.AEST.2006.narrabn.c5.rot.jpg'
p582
aS'daytimex_1205614828.Sun.Mar.16_07_00_28.AEST.2008.narrabn.c5.rot.jpg'
p583
aS'daytimex_1348779627.Fri.Sep.28_07_00_27.AEST.2012.narrabn.c5.rot.jpg'
p584
aS'daytimex_1230757227.Thu.Jan.01_07_00_27.AEST.2009.narrabn.c5.rot.jpg'
p585
aS'daytimex_1239138028.Wed.Apr.08_07_00_28.AEST.2009.narrabn.c5.rot.jpg'
p586
aS'daytimex_1168981228.Wed.Jan.17_07_00_28.AEST.2007.narrabn.c5.rot.jpg'
p587
aS'daytimex_1211058028.Sun.May.18_07_00_28.AEST.2008.narrabn.c5.rot.jpg'
p588
aS'daytimex_1327179628.Sun.Jan.22_07_00_28.AEST.2012.narrabn.c5.rot.jpg'
p589
aS'daytimex_1106514027.Mon.Jan.24_07_00_27.AEST.2005.narrabn.c5.rot.jpg'
p590
aS'daytimex_1133470828.Fri.Dec.02_07_00_28.AEST.2005.narrabn.c5.rot.jpg'
p591
aS'daytimex_1162674028.Sun.Nov.05_07_00_28.AEST.2006.narrabn.c5.rot.jpg'
p592
aS'daytimex_1199998828.Fri.Jan.11_07_00_28.AEST.2008.narrabn.c5.rot.jpg'
p593
aS'daytimex_1168808428.Mon.Jan.15_07_00_28.AEST.2007.narrabn.c5.rot.jpg'
p594
aS'daytimex_1107032427.Sun.Jan.30_07_00_27.AEST.2005.narrabn.c5.rot.jpg'
p595
aS'daytimex_1275080427.Sat.May.29_07_00_27.AEST.2010.narrabn.c5.rot.jpg'
p596
aS'daytimex_1131915627.Mon.Nov.14_07_00_27.AEST.2005.narrabn.c5.rot.jpg'
p597
aS'daytimex_1356382827.Tue.Dec.25_07_00_27.AEST.2012.narrabn.c5.rot.jpg'
p598
aS'daytimex_1289336428.Wed.Nov.10_07_00_28.AEST.2010.narrabn.c5.rot.jpg'
p599
aS'daytimex_1181854827.Fri.Jun.15_07_00_27.AEST.2007.narrabn.c5.rot.jpg'
p600
aS'daytimex_1194469228.Thu.Nov.08_07_00_28.AEST.2007.narrabn.c5.rot.jpg'
p601
aS'daytimex_1168722027.Sun.Jan.14_07_00_27.AEST.2007.narrabn.c5.rot.jpg'
p602
aS'daytimex_1319749225.Fri.Oct.28_07_00_25.AEST.2011.narrabn.c5.rot.jpg'
p603
aS'daytimex_1164229228.Thu.Nov.23_07_00_28.AEST.2006.narrabn.c5.rot.jpg'
p604
aS'daytimex_1263070827.Sun.Jan.10_07_00_27.AEST.2010.narrabn.c5.rot.jpg'
p605
aS'daytimex_1365109227.Fri.Apr.05_07_00_27.AEST.2013.narrabn.c5.rot.jpg'
p606
aS'daytimex_1103058027.Wed.Dec.15_07_00_27.AEST.2004.narrabn.c5.rot.jpg'
p607
aS'daytimex_1103403628.Sun.Dec.19_07_00_28.AEST.2004.narrabn.c5.rot.jpg'
p608
aS'daytimex_1115586027.Mon.May.09_07_00_27.AEST.2005.narrabn.c5.rot.jpg'
p609
aS'daytimex_1355518826.Sat.Dec.15_07_00_26.AEST.2012.narrabn.c5.rot.jpg'
p610
aS'daytimex_1364331627.Wed.Mar.27_07_00_27.AEST.2013.narrabn.c5.rot.jpg'
p611
aS'daytimex_1110920428.Wed.Mar.16_07_00_28.AEST.2005.narrabn.c5.rot.jpg'
p612
aS'daytimex_1102539628.Thu.Dec.09_07_00_28.AEST.2004.narrabn.c5.rot.jpg'
p613
aS'daytimex_1363294826.Fri.Mar.15_07_00_26.AEST.2013.narrabn.c5.rot.jpg'
p614
aS'daytimex_1258837227.Sun.Nov.22_07_00_27.AEST.2009.narrabn.c5.rot.jpg'
p615
aS'daytimex_1102712427.Sat.Dec.11_07_00_27.AEST.2004.narrabn.c5.rot.jpg'
p616
aS'daytimex_1390165228.Mon.Jan.20_07_00_28.AEST.2014.narrabn.c5.rot.jpg'
p617
aS'daytimex_1137013242.Thu.Jan.12_07_00_42.AEST.2006.narrabn.c5.rot.jpg'
p618
aS'daytimex_1363381227.Sat.Mar.16_07_00_27.AEST.2013.narrabn.c5.rot.jpg'
p619
aS'daytimex_1366059626.Tue.Apr.16_07_00_26.AEST.2013.narrabn.c5.rot.jpg'
p620
aS'daytimex_1272315628.Tue.Apr.27_07_00_28.AEST.2010.narrabn.c5.rot.jpg'
p621
aS'daytimex_1141506027.Sun.Mar.05_07_00_27.AEST.2006.narrabn.c5.rot.jpg'
p622
aS'daytimex_1202331628.Thu.Feb.07_07_00_28.AEST.2008.narrabn.c5.rot.jpg'
p623
aS'daytimex_1096752044.Sun.Oct.03_07_20_44.AEST.2004.narrabn.c5.rot.jpg'
p624
aS'daytimex_1365714027.Fri.Apr.12_07_00_27.AEST.2013.narrabn.c5.rot.jpg'
p625
aS'daytimex_1199739627.Tue.Jan.08_07_00_27.AEST.2008.narrabn.c5.rot.jpg'
p626
aS'daytimex_1238014828.Thu.Mar.26_07_00_28.AEST.2009.narrabn.c5.rot.jpg'
p627
aS'daytimex_1102453228.Wed.Dec.08_07_00_28.AEST.2004.narrabn.c5.rot.jpg'
p628
aS'daytimex_1200258027.Mon.Jan.14_07_00_27.AEST.2008.narrabn.c5.rot.jpg'
p629
aS'daytimex_1366837226.Thu.Apr.25_07_00_26.AEST.2013.narrabn.c5.rot.jpg'
p630
aS'daytimex_1252270827.Mon.Sep.07_07_00_27.AEST.2009.narrabn.c5.rot.jpg'
p631
aS'daytimex_1379624427.Fri.Sep.20_07_00_27.AEST.2013.narrabn.c5.rot.jpg'
p632
aS'daytimex_1144616428.Mon.Apr.10_07_00_28.AEST.2006.narrabn.c5.rot.jpg'
p633
aS'daytimex_1115758827.Wed.May.11_07_00_27.AEST.2005.narrabn.c5.erase.jpg'
p634
aS'daytimex_1115067628.Tue.May.03_07_00_28.AEST.2005.narrabn.c5.erase.jpg'
p635
aS'daytimex_1362776427.Sat.Mar.09_07_00_27.AEST.2013.narrabn.c5.erase.jpg'
p636
aS'daytimex_1152478828.Mon.Jul.10_07_00_28.AEST.2006.narrabn.c5.erase.jpg'
p637
aS'daytimex_1244840427.Sat.Jun.13_07_00_27.AEST.2009.narrabn.c5.erase.jpg'
p638
aS'daytimex_1179608427.Sun.May.20_07_00_27.AEST.2007.narrabn.c5.erase.jpg'
p639
aS'daytimex_1391115627.Fri.Jan.31_07_00_27.AEST.2014.narrabn.c5.erase.jpg'
p640
aS'daytimex_1151614827.Fri.Jun.30_07_00_27.AEST.2006.narrabn.c5.erase.jpg'
p641
aS'daytimex_1168808428.Mon.Jan.15_07_00_28.AEST.2007.narrabn.c5.erase.jpg'
p642
aS'daytimex_1178226028.Fri.May.04_07_00_28.AEST.2007.narrabn.c5.erase.jpg'
p643
aS'daytimex_1199307628.Thu.Jan.03_07_00_28.AEST.2008.narrabn.c5.erase.jpg'
p644
aS'daytimex_1179522028.Sat.May.19_07_00_28.AEST.2007.narrabn.c5.erase.jpg'
p645
aS'daytimex_1115586027.Mon.May.09_07_00_27.AEST.2005.narrabn.c5.erase.jpg'
p646
aS'daytimex_1092432044.Sat.Aug.14_07_20_44.AEST.2004.narrabn.c5.erase.jpg'
p647
aS'daytimex_1377205228.Fri.Aug.23_07_00_28.AEST.2013.narrabn.c5.erase.jpg'
p648
aS'daytimex_1114722027.Fri.Apr.29_07_00_27.AEST.2005.narrabn.c5.erase.jpg'
p649
aS'daytimex_1356382827.Tue.Dec.25_07_00_27.AEST.2012.narrabn.c5.erase.jpg'
p650
aS'daytimex_1183410028.Tue.Jul.03_07_00_28.AEST.2007.narrabn.c5.erase.jpg'
p651
aS'daytimex_1244667628.Thu.Jun.11_07_00_28.AEST.2009.narrabn.c5.erase.jpg'
p652
aS'daytimex_1216414828.Sat.Jul.19_07_00_28.AEST.2008.narrabn.c5.erase.jpg'
p653
aS'daytimex_1180904428.Mon.Jun.04_07_00_28.AEST.2007.narrabn.c5.erase.jpg'
p654
aS'daytimex_1216328427.Fri.Jul.18_07_00_27.AEST.2008.narrabn.c5.erase.jpg'
p655
aS'daytimex_1179262828.Wed.May.16_07_00_28.AEST.2007.narrabn.c5.erase.jpg'
p656
aS'daytimex_1233003628.Tue.Jan.27_07_00_28.AEST.2009.narrabn.c5.erase.jpg'
p657
aS'daytimex_1115413227.Sat.May.07_07_00_27.AEST.2005.narrabn.c5.erase.jpg'
p658
aS'daytimex_1122843628.Mon.Aug.01_07_00_28.AEST.2005.narrabn.c5.erase.jpg'
p659
aS'daytimex_1218747627.Fri.Aug.15_07_00_27.AEST.2008.narrabn.c5.erase.jpg'
p660
aS'daytimex_1191877228.Tue.Oct.09_07_00_28.AEST.2007.narrabn.c5.erase.jpg'
p661
aS'daytimex_1189458027.Tue.Sep.11_07_00_27.AEST.2007.narrabn.c5.erase.jpg'
p662
aS'daytimex_1192568427.Wed.Oct.17_07_00_27.AEST.2007.narrabn.c5.erase.jpg'
p663
aS'daytimex_1210366827.Sat.May.10_07_00_27.AEST.2008.narrabn.c5.erase.jpg'
p664
aS'daytimex_1366664426.Tue.Apr.23_07_00_26.AEST.2013.narrabn.c5.erase.jpg'
p665
aS'daytimex_1176498028.Sat.Apr.14_07_00_28.AEST.2007.narrabn.c5.erase.jpg'
p666
aS'daytimex_1199739627.Tue.Jan.08_07_00_27.AEST.2008.narrabn.c5.erase.jpg'
p667
aS'daytimex_1192395627.Mon.Oct.15_07_00_27.AEST.2007.narrabn.c5.erase.jpg'
p668
aS'daytimex_1367701227.Sun.May.05_07_00_27.AEST.2013.narrabn.c5.erase.jpg'
p669
aS'daytimex_1095542444.Sun.Sep.19_07_20_44.AEST.2004.narrabn.c5.erase.jpg'
p670
aS'daytimex_1300482028.Sat.Mar.19_07_00_28.AEST.2011.narrabn.c5.erase.jpg'
p671
aS'daytimex_1176584427.Sun.Apr.15_07_00_27.AEST.2007.narrabn.c5.erase.jpg'
p672
aS'daytimex_1107032427.Sun.Jan.30_07_00_27.AEST.2005.narrabn.c5.erase.jpg'
p673
aS'daytimex_1216328427.Fri.Jul.18_07_00_27.AEST.2008.narrabn.c5.erase.jpg'
p674
aS'daytimex_1113944427.Wed.Apr.20_07_00_27.AEST.2005.narrabn.c5.erase.jpg'
p675
aS'daytimex_1393707627.Sun.Mar.02_07_00_27.AEST.2014.narrabn.c5.erase.jpg'
p676
aS'daytimex_1177880427.Mon.Apr.30_07_00_27.AEST.2007.narrabn.c5.erase.jpg'
p677
aS'daytimex_1285448428.Sun.Sep.26_07_00_28.AEST.2010.narrabn.c5.erase.jpg'
p678
aS'daytimex_1110229228.Tue.Mar.08_07_00_28.AEST.2005.narrabn.c5.erase.jpg'
p679
aS'daytimex_1296421228.Mon.Jan.31_07_00_28.AEST.2011.narrabn.c5.erase.jpg'
p680
aS'daytimex_1160082028.Fri.Oct.06_07_00_28.AEST.2006.narrabn.c5.erase.jpg'
p681
aS'daytimex_1325019628.Wed.Dec.28_07_00_28.AEST.2011.narrabn.c5.erase.jpg'
p682
aS'daytimex_1364504427.Fri.Mar.29_07_00_27.AEST.2013.narrabn.c5.erase.jpg'
p683
aS'daytimex_1395867628.Thu.Mar.27_07_00_28.AEST.2014.narrabn.c5.erase.jpg'
p684
aS'daytimex_1280091628.Mon.Jul.26_07_00_28.AEST.2010.narrabn.c5.erase.jpg'
p685
aS'daytimex_1278882027.Mon.Jul.12_07_00_27.AEST.2010.narrabn.c5.erase.jpg'
p686
aS'daytimex_1110315628.Wed.Mar.09_07_00_28.AEST.2005.narrabn.c5.erase.jpg'
p687
aS'daytimex_1324760428.Sun.Dec.25_07_00_28.AEST.2011.narrabn.c5.erase.jpg'
p688
aS'daytimex_1396818028.Mon.Apr.07_07_00_28.AEST.2014.narrabn.c5.erase.jpg'
p689
aS'daytimex_1110661227.Sun.Mar.13_07_00_27.AEST.2005.narrabn.c5.erase.jpg'
p690
aS'daytimex_1174683628.Sat.Mar.24_07_00_28.AEST.2007.narrabn.c5.erase.jpg'
p691
aS'daytimex_1302123627.Thu.Apr.07_07_00_27.AEST.2011.narrabn.c5.erase.jpg'
p692
aS'daytimex_1394830828.Sat.Mar.15_07_00_28.AEST.2014.narrabn.c5.erase.jpg'
p693
aS'daytimex_1115154028.Wed.May.04_07_00_28.AEST.2005.narrabn.c5.erase.jpg'
p694
aS'daytimex_1397077227.Thu.Apr.10_07_00_27.AEST.2014.narrabn.c5.erase.jpg'
p695
aS'daytimex_1165611628.Sat.Dec.09_07_00_28.AEST.2006.narrabn.c5.erase.jpg'
p696
aS'daytimex_1118264428.Thu.Jun.09_07_00_28.AEST.2005.narrabn.c5.erase.jpg'
p697
aS'daytimex_1095196845.Wed.Sep.15_07_20_45.AEST.2004.narrabn.c5.erase.jpg'
p698
aS'daytimex_1115326827.Fri.May.06_07_00_27.AEST.2005.narrabn.c5.erase.jpg'
p699
aS'daytimex_1348779627.Fri.Sep.28_07_00_27.AEST.2012.narrabn.c5.erase.jpg'
p700
aS'daytimex_1192136427.Fri.Oct.12_07_00_27.AEST.2007.narrabn.c5.erase.jpg'
p701
aS'daytimex_1091568045.Wed.Aug.04_07_20_45.AEST.2004.narrabn.c5.erase.jpg'
p702
aS'daytimex_1298062827.Sat.Feb.19_07_00_27.AEST.2011.narrabn.c5.erase.jpg'
p703
aS'daytimex_1383339628.Sat.Nov.02_07_00_28.AEST.2013.narrabn.c5.erase.jpg'
p704
aS'daytimex_1338670828.Sun.Jun.03_07_00_28.AEST.2012.narrabn.c5.erase.jpg'
p705
aS'daytimex_1383166828.Thu.Oct.31_07_00_28.AEST.2013.narrabn.c5.erase.jpg'
p706
aS'daytimex_1383166828.Thu.Oct.31_07_00_28.AEST.2013.narrabn.c5.erase.jpg'
p707
aS'daytimex_1170968427.Fri.Feb.09_07_00_27.AEST.2007.narrabn.c5.erase.jpg'
p708
aS'daytimex_1158613228.Tue.Sep.19_07_00_28.AEST.2006.narrabn.c5.erase.jpg'
p709
aS'daytimex_1113339627.Wed.Apr.13_07_00_27.AEST.2005.narrabn.c5.erase.jpg'
p710
aS'daytimex_1383339628.Sat.Nov.02_07_00_28.AEST.2013.narrabn.c5.erase.jpg'
p711
aS'daytimex_1231707628.Mon.Jan.12_07_00_28.AEST.2009.narrabn.c5.erase.jpg'
p712
aS'daytimex_1193346027.Fri.Oct.26_07_00_27.AEST.2007.narrabn.c5.erase.jpg'
p713
aS'daytimex_1392930028.Fri.Feb.21_07_00_28.AEST.2014.narrabn.c5.erase.jpg'
p714
aS'daytimex_1132347628.Sat.Nov.19_07_00_28.AEST.2005.narrabn.c5.erase.jpg'
p715
aS'daytimex_1276635628.Wed.Jun.16_07_00_28.AEST.2010.narrabn.c5.erase.jpg'
p716
aS'daytimex_1309554027.Sat.Jul.02_07_00_27.AEST.2011.narrabn.c5.erase.jpg'
p717
aS'daytimex_1277845228.Wed.Jun.30_07_00_28.AEST.2010.narrabn.c5.erase.jpg'
p718
aS'daytimex_1200949228.Tue.Jan.22_07_00_28.AEST.2008.narrabn.c5.erase.jpg'
p719
aS'daytimex_1390078828.Sun.Jan.19_07_00_28.AEST.2014.narrabn.c5.erase.jpg'
p720
aS'daytimex_1175547628.Tue.Apr.03_07_00_28.AEST.2007.narrabn.c5.erase.jpg'
p721
aS'daytimex_1338670828.Sun.Jun.03_07_00_28.AEST.2012.narrabn.c5.erase.jpg'
p722
aS'daytimex_1150318827.Thu.Jun.15_07_00_27.AEST.2006.narrabn.c5.erase.jpg'
p723
aS'daytimex_1296248427.Sat.Jan.29_07_00_27.AEST.2011.narrabn.c5.erase.jpg'
p724
aS'daytimex_1233003628.Tue.Jan.27_07_00_28.AEST.2009.narrabn.c5.erase.jpg'
p725
aS'daytimex_1170104428.Tue.Jan.30_07_00_28.AEST.2007.narrabn.c5.erase.jpg'
p726
aS'daytimex_1297026028.Mon.Feb.07_07_00_28.AEST.2011.narrabn.c5.erase.jpg'
p727
aS'daytimex_1237323627.Wed.Mar.18_07_00_27.AEST.2009.narrabn.c5.erase.jpg'
p728
aS'daytimex_1210021227.Tue.May.06_07_00_27.AEST.2008.narrabn.c5.erase.jpg'
p729
aS'daytimex_1277845228.Wed.Jun.30_07_00_28.AEST.2010.narrabn.c5.erase.jpg'
p730
aS'daytimex_1096752044.Sun.Oct.03_07_20_44.AEST.2004.narrabn.c5.erase.jpg'
p731
aS'daytimex_1130878828.Wed.Nov.02_07_00_28.AEST.2005.narrabn.c5.erase.jpg'
p732
aS'daytimex_1104267628.Wed.Dec.29_07_00_28.AEST.2004.narrabn.c5.erase.jpg'
p733
aS'daytimex_1184706028.Wed.Jul.18_07_00_28.AEST.2007.narrabn.c5.erase.jpg'
p734
aS'daytimex_1339448428.Tue.Jun.12_07_00_28.AEST.2012.narrabn.c5.erase.jpg'
p735
aS'daytimex_1113771628.Mon.Apr.18_07_00_28.AEST.2005.narrabn.c5.erase.jpg'
p736
aS'daytimex_1118523628.Sun.Jun.12_07_00_28.AEST.2005.narrabn.c5.erase.jpg'
p737
aS'daytimex_1304715627.Sat.May.07_07_00_27.AEST.2011.narrabn.c5.erase.jpg'
p738
aS'daytimex_1295643628.Sat.Jan.22_07_00_28.AEST.2011.narrabn.c5.erase.jpg'
p739
aS'daytimex_1356123626.Sat.Dec.22_07_00_26.AEST.2012.narrabn.c5.erase.jpg'
p740
aS'daytimex_1258837227.Sun.Nov.22_07_00_27.AEST.2009.narrabn.c5.erase.jpg'
p741
aS'daytimex_1278018028.Fri.Jul.02_07_00_28.AEST.2010.narrabn.c5.erase.jpg'
p742
aS'daytimex_1355259627.Wed.Dec.12_07_00_27.AEST.2012.narrabn.c5.erase.jpg'
p743
aS'daytimex_1164229228.Thu.Nov.23_07_00_28.AEST.2006.narrabn.c5.erase.jpg'
p744
aS'daytimex_1205614828.Sun.Mar.16_07_00_28.AEST.2008.narrabn.c5.erase.jpg'
p745
aS'daytimex_1348779627.Fri.Sep.28_07_00_27.AEST.2012.narrabn.c5.erase.jpg'
p746
aS'daytimex_1230757227.Thu.Jan.01_07_00_27.AEST.2009.narrabn.c5.erase.jpg'
p747
aS'daytimex_1239138028.Wed.Apr.08_07_00_28.AEST.2009.narrabn.c5.erase.jpg'
p748
aS'daytimex_1168981228.Wed.Jan.17_07_00_28.AEST.2007.narrabn.c5.erase.jpg'
p749
aS'daytimex_1211058028.Sun.May.18_07_00_28.AEST.2008.narrabn.c5.erase.jpg'
p750
aS'daytimex_1327179628.Sun.Jan.22_07_00_28.AEST.2012.narrabn.c5.erase.jpg'
p751
aS'daytimex_1106514027.Mon.Jan.24_07_00_27.AEST.2005.narrabn.c5.erase.jpg'
p752
aS'daytimex_1133470828.Fri.Dec.02_07_00_28.AEST.2005.narrabn.c5.erase.jpg'
p753
aS'daytimex_1162674028.Sun.Nov.05_07_00_28.AEST.2006.narrabn.c5.erase.jpg'
p754
aS'daytimex_1199998828.Fri.Jan.11_07_00_28.AEST.2008.narrabn.c5.erase.jpg'
p755
aS'daytimex_1168808428.Mon.Jan.15_07_00_28.AEST.2007.narrabn.c5.erase.jpg'
p756
aS'daytimex_1107032427.Sun.Jan.30_07_00_27.AEST.2005.narrabn.c5.erase.jpg'
p757
aS'daytimex_1275080427.Sat.May.29_07_00_27.AEST.2010.narrabn.c5.erase.jpg'
p758
aS'daytimex_1131915627.Mon.Nov.14_07_00_27.AEST.2005.narrabn.c5.erase.jpg'
p759
aS'daytimex_1356382827.Tue.Dec.25_07_00_27.AEST.2012.narrabn.c5.erase.jpg'
p760
aS'daytimex_1289336428.Wed.Nov.10_07_00_28.AEST.2010.narrabn.c5.erase.jpg'
p761
aS'daytimex_1181854827.Fri.Jun.15_07_00_27.AEST.2007.narrabn.c5.erase.jpg'
p762
aS'daytimex_1194469228.Thu.Nov.08_07_00_28.AEST.2007.narrabn.c5.erase.jpg'
p763
aS'daytimex_1168722027.Sun.Jan.14_07_00_27.AEST.2007.narrabn.c5.erase.jpg'
p764
aS'daytimex_1319749225.Fri.Oct.28_07_00_25.AEST.2011.narrabn.c5.erase.jpg'
p765
aS'daytimex_1164229228.Thu.Nov.23_07_00_28.AEST.2006.narrabn.c5.erase.jpg'
p766
aS'daytimex_1263070827.Sun.Jan.10_07_00_27.AEST.2010.narrabn.c5.erase.jpg'
p767
aS'daytimex_1365109227.Fri.Apr.05_07_00_27.AEST.2013.narrabn.c5.erase.jpg'
p768
aS'daytimex_1103058027.Wed.Dec.15_07_00_27.AEST.2004.narrabn.c5.erase.jpg'
p769
aS'daytimex_1103403628.Sun.Dec.19_07_00_28.AEST.2004.narrabn.c5.erase.jpg'
p770
aS'daytimex_1115586027.Mon.May.09_07_00_27.AEST.2005.narrabn.c5.erase.jpg'
p771
aS'daytimex_1355518826.Sat.Dec.15_07_00_26.AEST.2012.narrabn.c5.erase.jpg'
p772
aS'daytimex_1364331627.Wed.Mar.27_07_00_27.AEST.2013.narrabn.c5.erase.jpg'
p773
aS'daytimex_1110920428.Wed.Mar.16_07_00_28.AEST.2005.narrabn.c5.erase.jpg'
p774
aS'daytimex_1102539628.Thu.Dec.09_07_00_28.AEST.2004.narrabn.c5.erase.jpg'
p775
aS'daytimex_1363294826.Fri.Mar.15_07_00_26.AEST.2013.narrabn.c5.erase.jpg'
p776
aS'daytimex_1258837227.Sun.Nov.22_07_00_27.AEST.2009.narrabn.c5.erase.jpg'
p777
aS'daytimex_1102712427.Sat.Dec.11_07_00_27.AEST.2004.narrabn.c5.erase.jpg'
p778
aS'daytimex_1390165228.Mon.Jan.20_07_00_28.AEST.2014.narrabn.c5.erase.jpg'
p779
aS'daytimex_1137013242.Thu.Jan.12_07_00_42.AEST.2006.narrabn.c5.erase.jpg'
p780
aS'daytimex_1363381227.Sat.Mar.16_07_00_27.AEST.2013.narrabn.c5.erase.jpg'
p781
aS'daytimex_1366059626.Tue.Apr.16_07_00_26.AEST.2013.narrabn.c5.erase.jpg'
p782
aS'daytimex_1272315628.Tue.Apr.27_07_00_28.AEST.2010.narrabn.c5.erase.jpg'
p783
aS'daytimex_1141506027.Sun.Mar.05_07_00_27.AEST.2006.narrabn.c5.erase.jpg'
p784
aS'daytimex_1202331628.Thu.Feb.07_07_00_28.AEST.2008.narrabn.c5.erase.jpg'
p785
aS'daytimex_1096752044.Sun.Oct.03_07_20_44.AEST.2004.narrabn.c5.erase.jpg'
p786
aS'daytimex_1365714027.Fri.Apr.12_07_00_27.AEST.2013.narrabn.c5.erase.jpg'
p787
aS'daytimex_1199739627.Tue.Jan.08_07_00_27.AEST.2008.narrabn.c5.erase.jpg'
p788
aS'daytimex_1238014828.Thu.Mar.26_07_00_28.AEST.2009.narrabn.c5.erase.jpg'
p789
aS'daytimex_1102453228.Wed.Dec.08_07_00_28.AEST.2004.narrabn.c5.erase.jpg'
p790
aS'daytimex_1200258027.Mon.Jan.14_07_00_27.AEST.2008.narrabn.c5.erase.jpg'
p791
aS'daytimex_1366837226.Thu.Apr.25_07_00_26.AEST.2013.narrabn.c5.erase.jpg'
p792
aS'daytimex_1252270827.Mon.Sep.07_07_00_27.AEST.2009.narrabn.c5.erase.jpg'
p793
aS'daytimex_1379624427.Fri.Sep.20_07_00_27.AEST.2013.narrabn.c5.erase.jpg'
p794
aS'daytimex_1144616428.Mon.Apr.10_07_00_28.AEST.2006.narrabn.c5.erase.jpg'
p795
aS'daytimex_1115758827.Wed.May.11_07_00_27.AEST.2005.narrabn.c5.gamma.jpg'
p796
aS'daytimex_1115067628.Tue.May.03_07_00_28.AEST.2005.narrabn.c5.gamma.jpg'
p797
aS'daytimex_1362776427.Sat.Mar.09_07_00_27.AEST.2013.narrabn.c5.gamma.jpg'
p798
aS'daytimex_1152478828.Mon.Jul.10_07_00_28.AEST.2006.narrabn.c5.gamma.jpg'
p799
aS'daytimex_1244840427.Sat.Jun.13_07_00_27.AEST.2009.narrabn.c5.gamma.jpg'
p800
aS'daytimex_1179608427.Sun.May.20_07_00_27.AEST.2007.narrabn.c5.gamma.jpg'
p801
aS'daytimex_1391115627.Fri.Jan.31_07_00_27.AEST.2014.narrabn.c5.gamma.jpg'
p802
aS'daytimex_1151614827.Fri.Jun.30_07_00_27.AEST.2006.narrabn.c5.gamma.jpg'
p803
aS'daytimex_1168808428.Mon.Jan.15_07_00_28.AEST.2007.narrabn.c5.gamma.jpg'
p804
aS'daytimex_1178226028.Fri.May.04_07_00_28.AEST.2007.narrabn.c5.gamma.jpg'
p805
aS'daytimex_1199307628.Thu.Jan.03_07_00_28.AEST.2008.narrabn.c5.gamma.jpg'
p806
aS'daytimex_1179522028.Sat.May.19_07_00_28.AEST.2007.narrabn.c5.gamma.jpg'
p807
aS'daytimex_1115586027.Mon.May.09_07_00_27.AEST.2005.narrabn.c5.gamma.jpg'
p808
aS'daytimex_1092432044.Sat.Aug.14_07_20_44.AEST.2004.narrabn.c5.gamma.jpg'
p809
aS'daytimex_1377205228.Fri.Aug.23_07_00_28.AEST.2013.narrabn.c5.gamma.jpg'
p810
aS'daytimex_1114722027.Fri.Apr.29_07_00_27.AEST.2005.narrabn.c5.gamma.jpg'
p811
aS'daytimex_1356382827.Tue.Dec.25_07_00_27.AEST.2012.narrabn.c5.gamma.jpg'
p812
aS'daytimex_1183410028.Tue.Jul.03_07_00_28.AEST.2007.narrabn.c5.gamma.jpg'
p813
aS'daytimex_1244667628.Thu.Jun.11_07_00_28.AEST.2009.narrabn.c5.gamma.jpg'
p814
aS'daytimex_1216414828.Sat.Jul.19_07_00_28.AEST.2008.narrabn.c5.gamma.jpg'
p815
aS'daytimex_1180904428.Mon.Jun.04_07_00_28.AEST.2007.narrabn.c5.gamma.jpg'
p816
aS'daytimex_1216328427.Fri.Jul.18_07_00_27.AEST.2008.narrabn.c5.gamma.jpg'
p817
aS'daytimex_1179262828.Wed.May.16_07_00_28.AEST.2007.narrabn.c5.gamma.jpg'
p818
aS'daytimex_1233003628.Tue.Jan.27_07_00_28.AEST.2009.narrabn.c5.gamma.jpg'
p819
aS'daytimex_1115413227.Sat.May.07_07_00_27.AEST.2005.narrabn.c5.gamma.jpg'
p820
aS'daytimex_1122843628.Mon.Aug.01_07_00_28.AEST.2005.narrabn.c5.gamma.jpg'
p821
aS'daytimex_1218747627.Fri.Aug.15_07_00_27.AEST.2008.narrabn.c5.gamma.jpg'
p822
aS'daytimex_1191877228.Tue.Oct.09_07_00_28.AEST.2007.narrabn.c5.gamma.jpg'
p823
aS'daytimex_1189458027.Tue.Sep.11_07_00_27.AEST.2007.narrabn.c5.gamma.jpg'
p824
aS'daytimex_1192568427.Wed.Oct.17_07_00_27.AEST.2007.narrabn.c5.gamma.jpg'
p825
aS'daytimex_1210366827.Sat.May.10_07_00_27.AEST.2008.narrabn.c5.gamma.jpg'
p826
aS'daytimex_1366664426.Tue.Apr.23_07_00_26.AEST.2013.narrabn.c5.gamma.jpg'
p827
aS'daytimex_1176498028.Sat.Apr.14_07_00_28.AEST.2007.narrabn.c5.gamma.jpg'
p828
aS'daytimex_1199739627.Tue.Jan.08_07_00_27.AEST.2008.narrabn.c5.gamma.jpg'
p829
aS'daytimex_1192395627.Mon.Oct.15_07_00_27.AEST.2007.narrabn.c5.gamma.jpg'
p830
aS'daytimex_1367701227.Sun.May.05_07_00_27.AEST.2013.narrabn.c5.gamma.jpg'
p831
aS'daytimex_1095542444.Sun.Sep.19_07_20_44.AEST.2004.narrabn.c5.gamma.jpg'
p832
aS'daytimex_1300482028.Sat.Mar.19_07_00_28.AEST.2011.narrabn.c5.gamma.jpg'
p833
aS'daytimex_1176584427.Sun.Apr.15_07_00_27.AEST.2007.narrabn.c5.gamma.jpg'
p834
aS'daytimex_1107032427.Sun.Jan.30_07_00_27.AEST.2005.narrabn.c5.gamma.jpg'
p835
aS'daytimex_1216328427.Fri.Jul.18_07_00_27.AEST.2008.narrabn.c5.gamma.jpg'
p836
aS'daytimex_1113944427.Wed.Apr.20_07_00_27.AEST.2005.narrabn.c5.gamma.jpg'
p837
aS'daytimex_1393707627.Sun.Mar.02_07_00_27.AEST.2014.narrabn.c5.gamma.jpg'
p838
aS'daytimex_1177880427.Mon.Apr.30_07_00_27.AEST.2007.narrabn.c5.gamma.jpg'
p839
aS'daytimex_1285448428.Sun.Sep.26_07_00_28.AEST.2010.narrabn.c5.gamma.jpg'
p840
aS'daytimex_1110229228.Tue.Mar.08_07_00_28.AEST.2005.narrabn.c5.gamma.jpg'
p841
aS'daytimex_1296421228.Mon.Jan.31_07_00_28.AEST.2011.narrabn.c5.gamma.jpg'
p842
aS'daytimex_1160082028.Fri.Oct.06_07_00_28.AEST.2006.narrabn.c5.gamma.jpg'
p843
aS'daytimex_1325019628.Wed.Dec.28_07_00_28.AEST.2011.narrabn.c5.gamma.jpg'
p844
aS'daytimex_1364504427.Fri.Mar.29_07_00_27.AEST.2013.narrabn.c5.gamma.jpg'
p845
aS'daytimex_1395867628.Thu.Mar.27_07_00_28.AEST.2014.narrabn.c5.gamma.jpg'
p846
aS'daytimex_1280091628.Mon.Jul.26_07_00_28.AEST.2010.narrabn.c5.gamma.jpg'
p847
aS'daytimex_1278882027.Mon.Jul.12_07_00_27.AEST.2010.narrabn.c5.gamma.jpg'
p848
aS'daytimex_1110315628.Wed.Mar.09_07_00_28.AEST.2005.narrabn.c5.gamma.jpg'
p849
aS'daytimex_1324760428.Sun.Dec.25_07_00_28.AEST.2011.narrabn.c5.gamma.jpg'
p850
aS'daytimex_1396818028.Mon.Apr.07_07_00_28.AEST.2014.narrabn.c5.gamma.jpg'
p851
aS'daytimex_1110661227.Sun.Mar.13_07_00_27.AEST.2005.narrabn.c5.gamma.jpg'
p852
aS'daytimex_1174683628.Sat.Mar.24_07_00_28.AEST.2007.narrabn.c5.gamma.jpg'
p853
aS'daytimex_1302123627.Thu.Apr.07_07_00_27.AEST.2011.narrabn.c5.gamma.jpg'
p854
aS'daytimex_1394830828.Sat.Mar.15_07_00_28.AEST.2014.narrabn.c5.gamma.jpg'
p855
aS'daytimex_1115154028.Wed.May.04_07_00_28.AEST.2005.narrabn.c5.gamma.jpg'
p856
aS'daytimex_1397077227.Thu.Apr.10_07_00_27.AEST.2014.narrabn.c5.gamma.jpg'
p857
aS'daytimex_1165611628.Sat.Dec.09_07_00_28.AEST.2006.narrabn.c5.gamma.jpg'
p858
aS'daytimex_1118264428.Thu.Jun.09_07_00_28.AEST.2005.narrabn.c5.gamma.jpg'
p859
aS'daytimex_1095196845.Wed.Sep.15_07_20_45.AEST.2004.narrabn.c5.gamma.jpg'
p860
aS'daytimex_1115326827.Fri.May.06_07_00_27.AEST.2005.narrabn.c5.gamma.jpg'
p861
aS'daytimex_1348779627.Fri.Sep.28_07_00_27.AEST.2012.narrabn.c5.gamma.jpg'
p862
aS'daytimex_1192136427.Fri.Oct.12_07_00_27.AEST.2007.narrabn.c5.gamma.jpg'
p863
aS'daytimex_1091568045.Wed.Aug.04_07_20_45.AEST.2004.narrabn.c5.gamma.jpg'
p864
aS'daytimex_1298062827.Sat.Feb.19_07_00_27.AEST.2011.narrabn.c5.gamma.jpg'
p865
aS'daytimex_1383339628.Sat.Nov.02_07_00_28.AEST.2013.narrabn.c5.gamma.jpg'
p866
aS'daytimex_1338670828.Sun.Jun.03_07_00_28.AEST.2012.narrabn.c5.gamma.jpg'
p867
aS'daytimex_1383166828.Thu.Oct.31_07_00_28.AEST.2013.narrabn.c5.gamma.jpg'
p868
aS'daytimex_1383166828.Thu.Oct.31_07_00_28.AEST.2013.narrabn.c5.gamma.jpg'
p869
aS'daytimex_1170968427.Fri.Feb.09_07_00_27.AEST.2007.narrabn.c5.gamma.jpg'
p870
aS'daytimex_1158613228.Tue.Sep.19_07_00_28.AEST.2006.narrabn.c5.gamma.jpg'
p871
aS'daytimex_1113339627.Wed.Apr.13_07_00_27.AEST.2005.narrabn.c5.gamma.jpg'
p872
aS'daytimex_1383339628.Sat.Nov.02_07_00_28.AEST.2013.narrabn.c5.gamma.jpg'
p873
aS'daytimex_1231707628.Mon.Jan.12_07_00_28.AEST.2009.narrabn.c5.gamma.jpg'
p874
aS'daytimex_1193346027.Fri.Oct.26_07_00_27.AEST.2007.narrabn.c5.gamma.jpg'
p875
aS'daytimex_1392930028.Fri.Feb.21_07_00_28.AEST.2014.narrabn.c5.gamma.jpg'
p876
aS'daytimex_1132347628.Sat.Nov.19_07_00_28.AEST.2005.narrabn.c5.gamma.jpg'
p877
aS'daytimex_1276635628.Wed.Jun.16_07_00_28.AEST.2010.narrabn.c5.gamma.jpg'
p878
aS'daytimex_1309554027.Sat.Jul.02_07_00_27.AEST.2011.narrabn.c5.gamma.jpg'
p879
aS'daytimex_1277845228.Wed.Jun.30_07_00_28.AEST.2010.narrabn.c5.gamma.jpg'
p880
aS'daytimex_1200949228.Tue.Jan.22_07_00_28.AEST.2008.narrabn.c5.gamma.jpg'
p881
aS'daytimex_1390078828.Sun.Jan.19_07_00_28.AEST.2014.narrabn.c5.gamma.jpg'
p882
aS'daytimex_1175547628.Tue.Apr.03_07_00_28.AEST.2007.narrabn.c5.gamma.jpg'
p883
aS'daytimex_1338670828.Sun.Jun.03_07_00_28.AEST.2012.narrabn.c5.gamma.jpg'
p884
aS'daytimex_1150318827.Thu.Jun.15_07_00_27.AEST.2006.narrabn.c5.gamma.jpg'
p885
aS'daytimex_1296248427.Sat.Jan.29_07_00_27.AEST.2011.narrabn.c5.gamma.jpg'
p886
aS'daytimex_1233003628.Tue.Jan.27_07_00_28.AEST.2009.narrabn.c5.gamma.jpg'
p887
aS'daytimex_1170104428.Tue.Jan.30_07_00_28.AEST.2007.narrabn.c5.gamma.jpg'
p888
aS'daytimex_1297026028.Mon.Feb.07_07_00_28.AEST.2011.narrabn.c5.gamma.jpg'
p889
aS'daytimex_1237323627.Wed.Mar.18_07_00_27.AEST.2009.narrabn.c5.gamma.jpg'
p890
aS'daytimex_1210021227.Tue.May.06_07_00_27.AEST.2008.narrabn.c5.gamma.jpg'
p891
aS'daytimex_1277845228.Wed.Jun.30_07_00_28.AEST.2010.narrabn.c5.gamma.jpg'
p892
aS'daytimex_1096752044.Sun.Oct.03_07_20_44.AEST.2004.narrabn.c5.gamma.jpg'
p893
aS'daytimex_1130878828.Wed.Nov.02_07_00_28.AEST.2005.narrabn.c5.gamma.jpg'
p894
aS'daytimex_1104267628.Wed.Dec.29_07_00_28.AEST.2004.narrabn.c5.gamma.jpg'
p895
aS'daytimex_1184706028.Wed.Jul.18_07_00_28.AEST.2007.narrabn.c5.gamma.jpg'
p896
aS'daytimex_1339448428.Tue.Jun.12_07_00_28.AEST.2012.narrabn.c5.gamma.jpg'
p897
aS'daytimex_1113771628.Mon.Apr.18_07_00_28.AEST.2005.narrabn.c5.gamma.jpg'
p898
aS'daytimex_1118523628.Sun.Jun.12_07_00_28.AEST.2005.narrabn.c5.gamma.jpg'
p899
aS'daytimex_1304715627.Sat.May.07_07_00_27.AEST.2011.narrabn.c5.gamma.jpg'
p900
aS'daytimex_1295643628.Sat.Jan.22_07_00_28.AEST.2011.narrabn.c5.gamma.jpg'
p901
aS'daytimex_1356123626.Sat.Dec.22_07_00_26.AEST.2012.narrabn.c5.gamma.jpg'
p902
aS'daytimex_1258837227.Sun.Nov.22_07_00_27.AEST.2009.narrabn.c5.gamma.jpg'
p903
aS'daytimex_1278018028.Fri.Jul.02_07_00_28.AEST.2010.narrabn.c5.gamma.jpg'
p904
aS'daytimex_1355259627.Wed.Dec.12_07_00_27.AEST.2012.narrabn.c5.gamma.jpg'
p905
aS'daytimex_1164229228.Thu.Nov.23_07_00_28.AEST.2006.narrabn.c5.gamma.jpg'
p906
aS'daytimex_1205614828.Sun.Mar.16_07_00_28.AEST.2008.narrabn.c5.gamma.jpg'
p907
aS'daytimex_1348779627.Fri.Sep.28_07_00_27.AEST.2012.narrabn.c5.gamma.jpg'
p908
aS'daytimex_1230757227.Thu.Jan.01_07_00_27.AEST.2009.narrabn.c5.gamma.jpg'
p909
aS'daytimex_1239138028.Wed.Apr.08_07_00_28.AEST.2009.narrabn.c5.gamma.jpg'
p910
aS'daytimex_1168981228.Wed.Jan.17_07_00_28.AEST.2007.narrabn.c5.gamma.jpg'
p911
aS'daytimex_1211058028.Sun.May.18_07_00_28.AEST.2008.narrabn.c5.gamma.jpg'
p912
aS'daytimex_1327179628.Sun.Jan.22_07_00_28.AEST.2012.narrabn.c5.gamma.jpg'
p913
aS'daytimex_1106514027.Mon.Jan.24_07_00_27.AEST.2005.narrabn.c5.gamma.jpg'
p914
aS'daytimex_1133470828.Fri.Dec.02_07_00_28.AEST.2005.narrabn.c5.gamma.jpg'
p915
aS'daytimex_1162674028.Sun.Nov.05_07_00_28.AEST.2006.narrabn.c5.gamma.jpg'
p916
aS'daytimex_1199998828.Fri.Jan.11_07_00_28.AEST.2008.narrabn.c5.gamma.jpg'
p917
aS'daytimex_1168808428.Mon.Jan.15_07_00_28.AEST.2007.narrabn.c5.gamma.jpg'
p918
aS'daytimex_1107032427.Sun.Jan.30_07_00_27.AEST.2005.narrabn.c5.gamma.jpg'
p919
aS'daytimex_1275080427.Sat.May.29_07_00_27.AEST.2010.narrabn.c5.gamma.jpg'
p920
aS'daytimex_1131915627.Mon.Nov.14_07_00_27.AEST.2005.narrabn.c5.gamma.jpg'
p921
aS'daytimex_1356382827.Tue.Dec.25_07_00_27.AEST.2012.narrabn.c5.gamma.jpg'
p922
aS'daytimex_1289336428.Wed.Nov.10_07_00_28.AEST.2010.narrabn.c5.gamma.jpg'
p923
aS'daytimex_1181854827.Fri.Jun.15_07_00_27.AEST.2007.narrabn.c5.gamma.jpg'
p924
aS'daytimex_1194469228.Thu.Nov.08_07_00_28.AEST.2007.narrabn.c5.gamma.jpg'
p925
aS'daytimex_1168722027.Sun.Jan.14_07_00_27.AEST.2007.narrabn.c5.gamma.jpg'
p926
aS'daytimex_1319749225.Fri.Oct.28_07_00_25.AEST.2011.narrabn.c5.gamma.jpg'
p927
aS'daytimex_1164229228.Thu.Nov.23_07_00_28.AEST.2006.narrabn.c5.gamma.jpg'
p928
aS'daytimex_1263070827.Sun.Jan.10_07_00_27.AEST.2010.narrabn.c5.gamma.jpg'
p929
aS'daytimex_1365109227.Fri.Apr.05_07_00_27.AEST.2013.narrabn.c5.gamma.jpg'
p930
aS'daytimex_1103058027.Wed.Dec.15_07_00_27.AEST.2004.narrabn.c5.gamma.jpg'
p931
aS'daytimex_1103403628.Sun.Dec.19_07_00_28.AEST.2004.narrabn.c5.gamma.jpg'
p932
aS'daytimex_1115586027.Mon.May.09_07_00_27.AEST.2005.narrabn.c5.gamma.jpg'
p933
aS'daytimex_1355518826.Sat.Dec.15_07_00_26.AEST.2012.narrabn.c5.gamma.jpg'
p934
aS'daytimex_1364331627.Wed.Mar.27_07_00_27.AEST.2013.narrabn.c5.gamma.jpg'
p935
aS'daytimex_1110920428.Wed.Mar.16_07_00_28.AEST.2005.narrabn.c5.gamma.jpg'
p936
aS'daytimex_1102539628.Thu.Dec.09_07_00_28.AEST.2004.narrabn.c5.gamma.jpg'
p937
aS'daytimex_1363294826.Fri.Mar.15_07_00_26.AEST.2013.narrabn.c5.gamma.jpg'
p938
aS'daytimex_1258837227.Sun.Nov.22_07_00_27.AEST.2009.narrabn.c5.gamma.jpg'
p939
aS'daytimex_1102712427.Sat.Dec.11_07_00_27.AEST.2004.narrabn.c5.gamma.jpg'
p940
aS'daytimex_1390165228.Mon.Jan.20_07_00_28.AEST.2014.narrabn.c5.gamma.jpg'
p941
aS'daytimex_1137013242.Thu.Jan.12_07_00_42.AEST.2006.narrabn.c5.gamma.jpg'
p942
aS'daytimex_1363381227.Sat.Mar.16_07_00_27.AEST.2013.narrabn.c5.gamma.jpg'
p943
aS'daytimex_1366059626.Tue.Apr.16_07_00_26.AEST.2013.narrabn.c5.gamma.jpg'
p944
aS'daytimex_1272315628.Tue.Apr.27_07_00_28.AEST.2010.narrabn.c5.gamma.jpg'
p945
aS'daytimex_1141506027.Sun.Mar.05_07_00_27.AEST.2006.narrabn.c5.gamma.jpg'
p946
aS'daytimex_1202331628.Thu.Feb.07_07_00_28.AEST.2008.narrabn.c5.gamma.jpg'
p947
aS'daytimex_1096752044.Sun.Oct.03_07_20_44.AEST.2004.narrabn.c5.gamma.jpg'
p948
aS'daytimex_1365714027.Fri.Apr.12_07_00_27.AEST.2013.narrabn.c5.gamma.jpg'
p949
aS'daytimex_1199739627.Tue.Jan.08_07_00_27.AEST.2008.narrabn.c5.gamma.jpg'
p950
aS'daytimex_1238014828.Thu.Mar.26_07_00_28.AEST.2009.narrabn.c5.gamma.jpg'
p951
aS'daytimex_1102453228.Wed.Dec.08_07_00_28.AEST.2004.narrabn.c5.gamma.jpg'
p952
aS'daytimex_1200258027.Mon.Jan.14_07_00_27.AEST.2008.narrabn.c5.gamma.jpg'
p953
aS'daytimex_1366837226.Thu.Apr.25_07_00_26.AEST.2013.narrabn.c5.gamma.jpg'
p954
aS'daytimex_1252270827.Mon.Sep.07_07_00_27.AEST.2009.narrabn.c5.gamma.jpg'
p955
aS'daytimex_1379624427.Fri.Sep.20_07_00_27.AEST.2013.narrabn.c5.gamma.jpg'
p956
aS'daytimex_1144616428.Mon.Apr.10_07_00_28.AEST.2006.narrabn.c5.gamma.jpg'
p957
a.