(lp0
Vdaytimex_1272747627.Sun.May.02_07_00_27.AEST.2010.narrabn.c5.jpg
p1
aVdaytimex_1180213228.Sun.May.27_07_00_28.AEST.2007.narrabn.c5.jpg
p2
aVdaytimex_1285621228.Tue.Sep.28_07_00_28.AEST.2010.narrabn.c5.jpg
p3
aVdaytimex_1272056427.Sat.Apr.24_07_00_27.AEST.2010.narrabn.c5.jpg
p4
aVdaytimex_1321822828.Mon.Nov.21_07_00_28.AEST.2011.narrabn.c5.jpg
p5
aVdaytimex_1114722027.Fri.Apr.29_07_00_27.AEST.2005.narrabn.c5.jpg
p6
aVdaytimex_1152478828.Mon.Jul.10_07_00_28.AEST.2006.narrabn.c5.jpg
p7
aVdaytimex_1177966828.Tue.May.01_07_00_28.AEST.2007.narrabn.c5.jpg
p8
aVdaytimex_1179522028.Sat.May.19_07_00_28.AEST.2007.narrabn.c5.jpg
p9
aVdaytimex_1269032427.Sat.Mar.20_07_00_27.AEST.2010.narrabn.c5.jpg
p10
aVdaytimex_1122843628.Mon.Aug.01_07_00_28.AEST.2005.narrabn.c5.jpg
p11
aVdaytimex_1212267627.Sun.Jun.01_07_00_27.AEST.2008.narrabn.c5.jpg
p12
aVdaytimex_1377205228.Fri.Aug.23_07_00_28.AEST.2013.narrabn.c5.jpg
p13
aVdaytimex_1179694828.Mon.May.21_07_00_28.AEST.2007.narrabn.c5.jpg
p14
aVdaytimex_1180904428.Mon.Jun.04_07_00_28.AEST.2007.narrabn.c5.jpg
p15
aVdaytimex_1349470828.Sat.Oct.06_07_00_28.AEST.2012.narrabn.c5.jpg
p16
aVdaytimex_1210280428.Fri.May.09_07_00_28.AEST.2008.narrabn.c5.jpg
p17
aVdaytimex_1302123627.Thu.Apr.07_07_00_27.AEST.2011.narrabn.c5.jpg
p18
aVdaytimex_1397163628.Fri.Apr.11_07_00_28.AEST.2014.narrabn.c5.jpg
p19
aVdaytimex_1192395627.Mon.Oct.15_07_00_27.AEST.2007.narrabn.c5.jpg
p20
aVdaytimex_1148936427.Tue.May.30_07_00_27.AEST.2006.narrabn.c5.jpg
p21
aVdaytimex_1160082028.Fri.Oct.06_07_00_28.AEST.2006.narrabn.c5.jpg
p22
aVdaytimex_1269118827.Sun.Mar.21_07_00_27.AEST.2010.narrabn.c5.jpg
p23
aVdaytimex_1115413227.Sat.May.07_07_00_27.AEST.2005.narrabn.c5.jpg
p24
aVdaytimex_1152738027.Thu.Jul.13_07_00_27.AEST.2006.narrabn.c5.jpg
p25
aVdaytimex_1300482028.Sat.Mar.19_07_00_28.AEST.2011.narrabn.c5.jpg
p26
aVdaytimex_1174424427.Wed.Mar.21_07_00_27.AEST.2007.narrabn.c5.jpg
p27
aVdaytimex_1171141228.Sun.Feb.11_07_00_28.AEST.2007.narrabn.c5.jpg
p28
aVdaytimex_1123362028.Sun.Aug.07_07_00_28.AEST.2005.narrabn.c5.jpg
p29
aVdaytimex_1301950828.Tue.Apr.05_07_00_28.AEST.2011.narrabn.c5.jpg
p30
aVdaytimex_1382475627.Wed.Oct.23_07_00_27.AEST.2013.narrabn.c5.jpg
p31
aVdaytimex_1118264428.Thu.Jun.09_07_00_28.AEST.2005.narrabn.c5.jpg
p32
aVdaytimex_1117832428.Sat.Jun.04_07_00_28.AEST.2005.narrabn.c5.jpg
p33
aVdaytimex_1159822828.Tue.Oct.03_07_00_28.AEST.2006.narrabn.c5.jpg
p34
aVdaytimex_1113426028.Thu.Apr.14_07_00_28.AEST.2005.narrabn.c5.jpg
p35
aVdaytimex_1127509228.Sat.Sep.24_07_00_28.AEST.2005.narrabn.c5.jpg
p36
aVdaytimex_1138136428.Wed.Jan.25_07_00_28.AEST.2006.narrabn.c5.jpg
p37
aVdaytimex_1118523628.Sun.Jun.12_07_00_28.AEST.2005.narrabn.c5.jpg
p38
aVdaytimex_1113166827.Mon.Apr.11_07_00_27.AEST.2005.narrabn.c5.jpg
p39
aVdaytimex_1170968427.Fri.Feb.09_07_00_27.AEST.2007.narrabn.c5.jpg
p40
aVdaytimex_1121893228.Thu.Jul.21_07_00_28.AEST.2005.narrabn.c5.jpg
p41
aVdaytimex_1119128428.Sun.Jun.19_07_00_28.AEST.2005.narrabn.c5.jpg
p42
aVdaytimex_1194901228.Tue.Nov.13_07_00_28.AEST.2007.narrabn.c5.jpg
p43
aVdaytimex_1236459627.Sun.Mar.08_07_00_27.AEST.2009.narrabn.c5.jpg
p44
aVdaytimex_1175202028.Fri.Mar.30_07_00_28.AEST.2007.narrabn.c5.jpg
p45
aVdaytimex_1141592428.Mon.Mar.06_07_00_28.AEST.2006.narrabn.c5.jpg
p46
aVdaytimex_1116795627.Mon.May.23_07_00_27.AEST.2005.narrabn.c5.jpg
p47
aVdaytimex_1289422827.Thu.Nov.11_07_00_27.AEST.2010.narrabn.c5.jpg
p48
aVdaytimex_1169499628.Tue.Jan.23_07_00_28.AEST.2007.narrabn.c5.jpg
p49
aVdaytimex_1344891627.Tue.Aug.14_07_00_27.AEST.2012.narrabn.c5.jpg
p50
aVdaytimex_1130706027.Mon.Oct.31_07_00_27.AEST.2005.narrabn.c5.jpg
p51
aVdaytimex_1181854827.Fri.Jun.15_07_00_27.AEST.2007.narrabn.c5.jpg
p52
aVdaytimex_1130446828.Fri.Oct.28_07_00_28.AEST.2005.narrabn.c5.jpg
p53
aVdaytimex_1107032427.Sun.Jan.30_07_00_27.AEST.2005.narrabn.c5.jpg
p54
aVdaytimex_1246136428.Sun.Jun.28_07_00_28.AEST.2009.narrabn.c5.jpg
p55
aVdaytimex_1322773228.Fri.Dec.02_07_00_28.AEST.2011.narrabn.c5.jpg
p56
aVdaytimex_1099171245.Sun.Oct.31_07_20_45.AEST.2004.narrabn.c5.jpg
p57
aVdaytimex_1355518826.Sat.Dec.15_07_00_26.AEST.2012.narrabn.c5.jpg
p58
aVdaytimex_1200171628.Sun.Jan.13_07_00_28.AEST.2008.narrabn.c5.jpg
p59
aVdaytimex_1327352427.Tue.Jan.24_07_00_27.AEST.2012.narrabn.c5.jpg
p60
aVdaytimex_1363122026.Wed.Mar.13_07_00_26.AEST.2013.narrabn.c5.jpg
p61
aVdaytimex_1199307628.Thu.Jan.03_07_00_28.AEST.2008.narrabn.c5.jpg
p62
aVdaytimex_1364763627.Mon.Apr.01_07_00_27.AEST.2013.narrabn.c5.jpg
p63
aVdaytimex_1337115627.Wed.May.16_07_00_27.AEST.2012.narrabn.c5.jpg
p64
aVdaytimex_1390078828.Sun.Jan.19_07_00_28.AEST.2014.narrabn.c5.jpg
p65
aVdaytimex_1391115627.Fri.Jan.31_07_00_27.AEST.2014.narrabn.c5.jpg
p66
aVdaytimex_1363035626.Tue.Mar.12_07_00_26.AEST.2013.narrabn.c5.jpg
p67
aVdaytimex_1199653228.Mon.Jan.07_07_00_28.AEST.2008.narrabn.c5.jpg
p68
aVdaytimex_1146258028.Sat.Apr.29_07_00_28.AEST.2006.narrabn.c5.jpg
p69
aVdaytimex_1379451627.Wed.Sep.18_07_00_27.AEST.2013.narrabn.c5.jpg
p70
aVdaytimex_1098825644.Wed.Oct.27_07_20_44.AEST.2004.narrabn.c5.jpg
p71
aVdaytimex_1379624427.Fri.Sep.20_07_00_27.AEST.2013.narrabn.c5.jpg
p72
aVdaytimex_1349730027.Tue.Oct.09_07_00_27.AEST.2012.narrabn.c5.jpg
p73
aVdaytimex_1098566444.Sun.Oct.24_07_20_44.AEST.2004.narrabn.c5.jpg
p74
aVdaytimex_1363294826.Fri.Mar.15_07_00_26.AEST.2013.narrabn.c5.jpg
p75
aVdaytimex_1272747627.Sun.May.02_07_00_27.AEST.2010.narrabn.c5.hflip.jpg
p76
aVdaytimex_1180213228.Sun.May.27_07_00_28.AEST.2007.narrabn.c5.hflip.jpg
p77
aVdaytimex_1285621228.Tue.Sep.28_07_00_28.AEST.2010.narrabn.c5.hflip.jpg
p78
aVdaytimex_1272056427.Sat.Apr.24_07_00_27.AEST.2010.narrabn.c5.hflip.jpg
p79
aVdaytimex_1321822828.Mon.Nov.21_07_00_28.AEST.2011.narrabn.c5.hflip.jpg
p80
aVdaytimex_1114722027.Fri.Apr.29_07_00_27.AEST.2005.narrabn.c5.hflip.jpg
p81
aVdaytimex_1152478828.Mon.Jul.10_07_00_28.AEST.2006.narrabn.c5.hflip.jpg
p82
aVdaytimex_1177966828.Tue.May.01_07_00_28.AEST.2007.narrabn.c5.hflip.jpg
p83
aVdaytimex_1179522028.Sat.May.19_07_00_28.AEST.2007.narrabn.c5.hflip.jpg
p84
aVdaytimex_1269032427.Sat.Mar.20_07_00_27.AEST.2010.narrabn.c5.hflip.jpg
p85
aVdaytimex_1122843628.Mon.Aug.01_07_00_28.AEST.2005.narrabn.c5.hflip.jpg
p86
aVdaytimex_1212267627.Sun.Jun.01_07_00_27.AEST.2008.narrabn.c5.hflip.jpg
p87
aVdaytimex_1377205228.Fri.Aug.23_07_00_28.AEST.2013.narrabn.c5.hflip.jpg
p88
aVdaytimex_1179694828.Mon.May.21_07_00_28.AEST.2007.narrabn.c5.hflip.jpg
p89
aVdaytimex_1180904428.Mon.Jun.04_07_00_28.AEST.2007.narrabn.c5.hflip.jpg
p90
aVdaytimex_1349470828.Sat.Oct.06_07_00_28.AEST.2012.narrabn.c5.hflip.jpg
p91
aVdaytimex_1210280428.Fri.May.09_07_00_28.AEST.2008.narrabn.c5.hflip.jpg
p92
aVdaytimex_1302123627.Thu.Apr.07_07_00_27.AEST.2011.narrabn.c5.hflip.jpg
p93
aVdaytimex_1397163628.Fri.Apr.11_07_00_28.AEST.2014.narrabn.c5.hflip.jpg
p94
aVdaytimex_1192395627.Mon.Oct.15_07_00_27.AEST.2007.narrabn.c5.hflip.jpg
p95
aVdaytimex_1148936427.Tue.May.30_07_00_27.AEST.2006.narrabn.c5.hflip.jpg
p96
aVdaytimex_1160082028.Fri.Oct.06_07_00_28.AEST.2006.narrabn.c5.hflip.jpg
p97
aVdaytimex_1269118827.Sun.Mar.21_07_00_27.AEST.2010.narrabn.c5.hflip.jpg
p98
aVdaytimex_1115413227.Sat.May.07_07_00_27.AEST.2005.narrabn.c5.hflip.jpg
p99
aVdaytimex_1152738027.Thu.Jul.13_07_00_27.AEST.2006.narrabn.c5.hflip.jpg
p100
aVdaytimex_1300482028.Sat.Mar.19_07_00_28.AEST.2011.narrabn.c5.hflip.jpg
p101
aVdaytimex_1174424427.Wed.Mar.21_07_00_27.AEST.2007.narrabn.c5.hflip.jpg
p102
aVdaytimex_1171141228.Sun.Feb.11_07_00_28.AEST.2007.narrabn.c5.hflip.jpg
p103
aVdaytimex_1123362028.Sun.Aug.07_07_00_28.AEST.2005.narrabn.c5.hflip.jpg
p104
aVdaytimex_1301950828.Tue.Apr.05_07_00_28.AEST.2011.narrabn.c5.hflip.jpg
p105
aVdaytimex_1382475627.Wed.Oct.23_07_00_27.AEST.2013.narrabn.c5.hflip.jpg
p106
aVdaytimex_1118264428.Thu.Jun.09_07_00_28.AEST.2005.narrabn.c5.hflip.jpg
p107
aVdaytimex_1117832428.Sat.Jun.04_07_00_28.AEST.2005.narrabn.c5.hflip.jpg
p108
aVdaytimex_1159822828.Tue.Oct.03_07_00_28.AEST.2006.narrabn.c5.hflip.jpg
p109
aVdaytimex_1113426028.Thu.Apr.14_07_00_28.AEST.2005.narrabn.c5.hflip.jpg
p110
aVdaytimex_1127509228.Sat.Sep.24_07_00_28.AEST.2005.narrabn.c5.hflip.jpg
p111
aVdaytimex_1138136428.Wed.Jan.25_07_00_28.AEST.2006.narrabn.c5.hflip.jpg
p112
aVdaytimex_1118523628.Sun.Jun.12_07_00_28.AEST.2005.narrabn.c5.hflip.jpg
p113
aVdaytimex_1113166827.Mon.Apr.11_07_00_27.AEST.2005.narrabn.c5.hflip.jpg
p114
aVdaytimex_1170968427.Fri.Feb.09_07_00_27.AEST.2007.narrabn.c5.hflip.jpg
p115
aVdaytimex_1121893228.Thu.Jul.21_07_00_28.AEST.2005.narrabn.c5.hflip.jpg
p116
aVdaytimex_1119128428.Sun.Jun.19_07_00_28.AEST.2005.narrabn.c5.hflip.jpg
p117
aVdaytimex_1194901228.Tue.Nov.13_07_00_28.AEST.2007.narrabn.c5.hflip.jpg
p118
aVdaytimex_1236459627.Sun.Mar.08_07_00_27.AEST.2009.narrabn.c5.hflip.jpg
p119
aVdaytimex_1175202028.Fri.Mar.30_07_00_28.AEST.2007.narrabn.c5.hflip.jpg
p120
aVdaytimex_1141592428.Mon.Mar.06_07_00_28.AEST.2006.narrabn.c5.hflip.jpg
p121
aVdaytimex_1116795627.Mon.May.23_07_00_27.AEST.2005.narrabn.c5.hflip.jpg
p122
aVdaytimex_1289422827.Thu.Nov.11_07_00_27.AEST.2010.narrabn.c5.hflip.jpg
p123
aVdaytimex_1169499628.Tue.Jan.23_07_00_28.AEST.2007.narrabn.c5.hflip.jpg
p124
aVdaytimex_1344891627.Tue.Aug.14_07_00_27.AEST.2012.narrabn.c5.hflip.jpg
p125
aVdaytimex_1130706027.Mon.Oct.31_07_00_27.AEST.2005.narrabn.c5.hflip.jpg
p126
aVdaytimex_1181854827.Fri.Jun.15_07_00_27.AEST.2007.narrabn.c5.hflip.jpg
p127
aVdaytimex_1130446828.Fri.Oct.28_07_00_28.AEST.2005.narrabn.c5.hflip.jpg
p128
aVdaytimex_1107032427.Sun.Jan.30_07_00_27.AEST.2005.narrabn.c5.hflip.jpg
p129
aVdaytimex_1246136428.Sun.Jun.28_07_00_28.AEST.2009.narrabn.c5.hflip.jpg
p130
aVdaytimex_1322773228.Fri.Dec.02_07_00_28.AEST.2011.narrabn.c5.hflip.jpg
p131
aVdaytimex_1099171245.Sun.Oct.31_07_20_45.AEST.2004.narrabn.c5.hflip.jpg
p132
aVdaytimex_1355518826.Sat.Dec.15_07_00_26.AEST.2012.narrabn.c5.hflip.jpg
p133
aVdaytimex_1200171628.Sun.Jan.13_07_00_28.AEST.2008.narrabn.c5.hflip.jpg
p134
aVdaytimex_1327352427.Tue.Jan.24_07_00_27.AEST.2012.narrabn.c5.hflip.jpg
p135
aVdaytimex_1363122026.Wed.Mar.13_07_00_26.AEST.2013.narrabn.c5.hflip.jpg
p136
aVdaytimex_1199307628.Thu.Jan.03_07_00_28.AEST.2008.narrabn.c5.hflip.jpg
p137
aVdaytimex_1364763627.Mon.Apr.01_07_00_27.AEST.2013.narrabn.c5.hflip.jpg
p138
aVdaytimex_1337115627.Wed.May.16_07_00_27.AEST.2012.narrabn.c5.hflip.jpg
p139
aVdaytimex_1390078828.Sun.Jan.19_07_00_28.AEST.2014.narrabn.c5.hflip.jpg
p140
aVdaytimex_1391115627.Fri.Jan.31_07_00_27.AEST.2014.narrabn.c5.hflip.jpg
p141
aVdaytimex_1363035626.Tue.Mar.12_07_00_26.AEST.2013.narrabn.c5.hflip.jpg
p142
aVdaytimex_1199653228.Mon.Jan.07_07_00_28.AEST.2008.narrabn.c5.hflip.jpg
p143
aVdaytimex_1146258028.Sat.Apr.29_07_00_28.AEST.2006.narrabn.c5.hflip.jpg
p144
aVdaytimex_1379451627.Wed.Sep.18_07_00_27.AEST.2013.narrabn.c5.hflip.jpg
p145
aVdaytimex_1098825644.Wed.Oct.27_07_20_44.AEST.2004.narrabn.c5.hflip.jpg
p146
aVdaytimex_1379624427.Fri.Sep.20_07_00_27.AEST.2013.narrabn.c5.hflip.jpg
p147
aVdaytimex_1349730027.Tue.Oct.09_07_00_27.AEST.2012.narrabn.c5.hflip.jpg
p148
aVdaytimex_1098566444.Sun.Oct.24_07_20_44.AEST.2004.narrabn.c5.hflip.jpg
p149
aVdaytimex_1363294826.Fri.Mar.15_07_00_26.AEST.2013.narrabn.c5.hflip.jpg
p150
aVdaytimex_1272747627.Sun.May.02_07_00_27.AEST.2010.narrabn.c5.vflip.jpg
p151
aVdaytimex_1180213228.Sun.May.27_07_00_28.AEST.2007.narrabn.c5.vflip.jpg
p152
aVdaytimex_1285621228.Tue.Sep.28_07_00_28.AEST.2010.narrabn.c5.vflip.jpg
p153
aVdaytimex_1272056427.Sat.Apr.24_07_00_27.AEST.2010.narrabn.c5.vflip.jpg
p154
aVdaytimex_1321822828.Mon.Nov.21_07_00_28.AEST.2011.narrabn.c5.vflip.jpg
p155
aVdaytimex_1114722027.Fri.Apr.29_07_00_27.AEST.2005.narrabn.c5.vflip.jpg
p156
aVdaytimex_1152478828.Mon.Jul.10_07_00_28.AEST.2006.narrabn.c5.vflip.jpg
p157
aVdaytimex_1177966828.Tue.May.01_07_00_28.AEST.2007.narrabn.c5.vflip.jpg
p158
aVdaytimex_1179522028.Sat.May.19_07_00_28.AEST.2007.narrabn.c5.vflip.jpg
p159
aVdaytimex_1269032427.Sat.Mar.20_07_00_27.AEST.2010.narrabn.c5.vflip.jpg
p160
aVdaytimex_1122843628.Mon.Aug.01_07_00_28.AEST.2005.narrabn.c5.vflip.jpg
p161
aVdaytimex_1212267627.Sun.Jun.01_07_00_27.AEST.2008.narrabn.c5.vflip.jpg
p162
aVdaytimex_1377205228.Fri.Aug.23_07_00_28.AEST.2013.narrabn.c5.vflip.jpg
p163
aVdaytimex_1179694828.Mon.May.21_07_00_28.AEST.2007.narrabn.c5.vflip.jpg
p164
aVdaytimex_1180904428.Mon.Jun.04_07_00_28.AEST.2007.narrabn.c5.vflip.jpg
p165
aVdaytimex_1349470828.Sat.Oct.06_07_00_28.AEST.2012.narrabn.c5.vflip.jpg
p166
aVdaytimex_1210280428.Fri.May.09_07_00_28.AEST.2008.narrabn.c5.vflip.jpg
p167
aVdaytimex_1302123627.Thu.Apr.07_07_00_27.AEST.2011.narrabn.c5.vflip.jpg
p168
aVdaytimex_1397163628.Fri.Apr.11_07_00_28.AEST.2014.narrabn.c5.vflip.jpg
p169
aVdaytimex_1192395627.Mon.Oct.15_07_00_27.AEST.2007.narrabn.c5.vflip.jpg
p170
aVdaytimex_1148936427.Tue.May.30_07_00_27.AEST.2006.narrabn.c5.vflip.jpg
p171
aVdaytimex_1160082028.Fri.Oct.06_07_00_28.AEST.2006.narrabn.c5.vflip.jpg
p172
aVdaytimex_1269118827.Sun.Mar.21_07_00_27.AEST.2010.narrabn.c5.vflip.jpg
p173
aVdaytimex_1115413227.Sat.May.07_07_00_27.AEST.2005.narrabn.c5.vflip.jpg
p174
aVdaytimex_1152738027.Thu.Jul.13_07_00_27.AEST.2006.narrabn.c5.vflip.jpg
p175
aVdaytimex_1300482028.Sat.Mar.19_07_00_28.AEST.2011.narrabn.c5.vflip.jpg
p176
aVdaytimex_1174424427.Wed.Mar.21_07_00_27.AEST.2007.narrabn.c5.vflip.jpg
p177
aVdaytimex_1171141228.Sun.Feb.11_07_00_28.AEST.2007.narrabn.c5.vflip.jpg
p178
aVdaytimex_1123362028.Sun.Aug.07_07_00_28.AEST.2005.narrabn.c5.vflip.jpg
p179
aVdaytimex_1301950828.Tue.Apr.05_07_00_28.AEST.2011.narrabn.c5.vflip.jpg
p180
aVdaytimex_1382475627.Wed.Oct.23_07_00_27.AEST.2013.narrabn.c5.vflip.jpg
p181
aVdaytimex_1118264428.Thu.Jun.09_07_00_28.AEST.2005.narrabn.c5.vflip.jpg
p182
aVdaytimex_1117832428.Sat.Jun.04_07_00_28.AEST.2005.narrabn.c5.vflip.jpg
p183
aVdaytimex_1159822828.Tue.Oct.03_07_00_28.AEST.2006.narrabn.c5.vflip.jpg
p184
aVdaytimex_1113426028.Thu.Apr.14_07_00_28.AEST.2005.narrabn.c5.vflip.jpg
p185
aVdaytimex_1127509228.Sat.Sep.24_07_00_28.AEST.2005.narrabn.c5.vflip.jpg
p186
aVdaytimex_1138136428.Wed.Jan.25_07_00_28.AEST.2006.narrabn.c5.vflip.jpg
p187
aVdaytimex_1118523628.Sun.Jun.12_07_00_28.AEST.2005.narrabn.c5.vflip.jpg
p188
aVdaytimex_1113166827.Mon.Apr.11_07_00_27.AEST.2005.narrabn.c5.vflip.jpg
p189
aVdaytimex_1170968427.Fri.Feb.09_07_00_27.AEST.2007.narrabn.c5.vflip.jpg
p190
aVdaytimex_1121893228.Thu.Jul.21_07_00_28.AEST.2005.narrabn.c5.vflip.jpg
p191
aVdaytimex_1119128428.Sun.Jun.19_07_00_28.AEST.2005.narrabn.c5.vflip.jpg
p192
aVdaytimex_1194901228.Tue.Nov.13_07_00_28.AEST.2007.narrabn.c5.vflip.jpg
p193
aVdaytimex_1236459627.Sun.Mar.08_07_00_27.AEST.2009.narrabn.c5.vflip.jpg
p194
aVdaytimex_1175202028.Fri.Mar.30_07_00_28.AEST.2007.narrabn.c5.vflip.jpg
p195
aVdaytimex_1141592428.Mon.Mar.06_07_00_28.AEST.2006.narrabn.c5.vflip.jpg
p196
aVdaytimex_1116795627.Mon.May.23_07_00_27.AEST.2005.narrabn.c5.vflip.jpg
p197
aVdaytimex_1289422827.Thu.Nov.11_07_00_27.AEST.2010.narrabn.c5.vflip.jpg
p198
aVdaytimex_1169499628.Tue.Jan.23_07_00_28.AEST.2007.narrabn.c5.vflip.jpg
p199
aVdaytimex_1344891627.Tue.Aug.14_07_00_27.AEST.2012.narrabn.c5.vflip.jpg
p200
aVdaytimex_1130706027.Mon.Oct.31_07_00_27.AEST.2005.narrabn.c5.vflip.jpg
p201
aVdaytimex_1181854827.Fri.Jun.15_07_00_27.AEST.2007.narrabn.c5.vflip.jpg
p202
aVdaytimex_1130446828.Fri.Oct.28_07_00_28.AEST.2005.narrabn.c5.vflip.jpg
p203
aVdaytimex_1107032427.Sun.Jan.30_07_00_27.AEST.2005.narrabn.c5.vflip.jpg
p204
aVdaytimex_1246136428.Sun.Jun.28_07_00_28.AEST.2009.narrabn.c5.vflip.jpg
p205
aVdaytimex_1322773228.Fri.Dec.02_07_00_28.AEST.2011.narrabn.c5.vflip.jpg
p206
aVdaytimex_1099171245.Sun.Oct.31_07_20_45.AEST.2004.narrabn.c5.vflip.jpg
p207
aVdaytimex_1355518826.Sat.Dec.15_07_00_26.AEST.2012.narrabn.c5.vflip.jpg
p208
aVdaytimex_1200171628.Sun.Jan.13_07_00_28.AEST.2008.narrabn.c5.vflip.jpg
p209
aVdaytimex_1327352427.Tue.Jan.24_07_00_27.AEST.2012.narrabn.c5.vflip.jpg
p210
aVdaytimex_1363122026.Wed.Mar.13_07_00_26.AEST.2013.narrabn.c5.vflip.jpg
p211
aVdaytimex_1199307628.Thu.Jan.03_07_00_28.AEST.2008.narrabn.c5.vflip.jpg
p212
aVdaytimex_1364763627.Mon.Apr.01_07_00_27.AEST.2013.narrabn.c5.vflip.jpg
p213
aVdaytimex_1337115627.Wed.May.16_07_00_27.AEST.2012.narrabn.c5.vflip.jpg
p214
aVdaytimex_1390078828.Sun.Jan.19_07_00_28.AEST.2014.narrabn.c5.vflip.jpg
p215
aVdaytimex_1391115627.Fri.Jan.31_07_00_27.AEST.2014.narrabn.c5.vflip.jpg
p216
aVdaytimex_1363035626.Tue.Mar.12_07_00_26.AEST.2013.narrabn.c5.vflip.jpg
p217
aVdaytimex_1199653228.Mon.Jan.07_07_00_28.AEST.2008.narrabn.c5.vflip.jpg
p218
aVdaytimex_1146258028.Sat.Apr.29_07_00_28.AEST.2006.narrabn.c5.vflip.jpg
p219
aVdaytimex_1379451627.Wed.Sep.18_07_00_27.AEST.2013.narrabn.c5.vflip.jpg
p220
aVdaytimex_1098825644.Wed.Oct.27_07_20_44.AEST.2004.narrabn.c5.vflip.jpg
p221
aVdaytimex_1379624427.Fri.Sep.20_07_00_27.AEST.2013.narrabn.c5.vflip.jpg
p222
aVdaytimex_1349730027.Tue.Oct.09_07_00_27.AEST.2012.narrabn.c5.vflip.jpg
p223
aVdaytimex_1098566444.Sun.Oct.24_07_20_44.AEST.2004.narrabn.c5.vflip.jpg
p224
aVdaytimex_1363294826.Fri.Mar.15_07_00_26.AEST.2013.narrabn.c5.vflip.jpg
p225
aVdaytimex_1272747627.Sun.May.02_07_00_27.AEST.2010.narrabn.c5.rot.jpg
p226
aVdaytimex_1180213228.Sun.May.27_07_00_28.AEST.2007.narrabn.c5.rot.jpg
p227
aVdaytimex_1285621228.Tue.Sep.28_07_00_28.AEST.2010.narrabn.c5.rot.jpg
p228
aVdaytimex_1272056427.Sat.Apr.24_07_00_27.AEST.2010.narrabn.c5.rot.jpg
p229
aVdaytimex_1321822828.Mon.Nov.21_07_00_28.AEST.2011.narrabn.c5.rot.jpg
p230
aVdaytimex_1114722027.Fri.Apr.29_07_00_27.AEST.2005.narrabn.c5.rot.jpg
p231
aVdaytimex_1152478828.Mon.Jul.10_07_00_28.AEST.2006.narrabn.c5.rot.jpg
p232
aVdaytimex_1177966828.Tue.May.01_07_00_28.AEST.2007.narrabn.c5.rot.jpg
p233
aVdaytimex_1179522028.Sat.May.19_07_00_28.AEST.2007.narrabn.c5.rot.jpg
p234
aVdaytimex_1269032427.Sat.Mar.20_07_00_27.AEST.2010.narrabn.c5.rot.jpg
p235
aVdaytimex_1122843628.Mon.Aug.01_07_00_28.AEST.2005.narrabn.c5.rot.jpg
p236
aVdaytimex_1212267627.Sun.Jun.01_07_00_27.AEST.2008.narrabn.c5.rot.jpg
p237
aVdaytimex_1377205228.Fri.Aug.23_07_00_28.AEST.2013.narrabn.c5.rot.jpg
p238
aVdaytimex_1179694828.Mon.May.21_07_00_28.AEST.2007.narrabn.c5.rot.jpg
p239
aVdaytimex_1180904428.Mon.Jun.04_07_00_28.AEST.2007.narrabn.c5.rot.jpg
p240
aVdaytimex_1349470828.Sat.Oct.06_07_00_28.AEST.2012.narrabn.c5.rot.jpg
p241
aVdaytimex_1210280428.Fri.May.09_07_00_28.AEST.2008.narrabn.c5.rot.jpg
p242
aVdaytimex_1302123627.Thu.Apr.07_07_00_27.AEST.2011.narrabn.c5.rot.jpg
p243
aVdaytimex_1397163628.Fri.Apr.11_07_00_28.AEST.2014.narrabn.c5.rot.jpg
p244
aVdaytimex_1192395627.Mon.Oct.15_07_00_27.AEST.2007.narrabn.c5.rot.jpg
p245
aVdaytimex_1148936427.Tue.May.30_07_00_27.AEST.2006.narrabn.c5.rot.jpg
p246
aVdaytimex_1160082028.Fri.Oct.06_07_00_28.AEST.2006.narrabn.c5.rot.jpg
p247
aVdaytimex_1269118827.Sun.Mar.21_07_00_27.AEST.2010.narrabn.c5.rot.jpg
p248
aVdaytimex_1115413227.Sat.May.07_07_00_27.AEST.2005.narrabn.c5.rot.jpg
p249
aVdaytimex_1152738027.Thu.Jul.13_07_00_27.AEST.2006.narrabn.c5.rot.jpg
p250
aVdaytimex_1300482028.Sat.Mar.19_07_00_28.AEST.2011.narrabn.c5.rot.jpg
p251
aVdaytimex_1174424427.Wed.Mar.21_07_00_27.AEST.2007.narrabn.c5.rot.jpg
p252
aVdaytimex_1171141228.Sun.Feb.11_07_00_28.AEST.2007.narrabn.c5.rot.jpg
p253
aVdaytimex_1123362028.Sun.Aug.07_07_00_28.AEST.2005.narrabn.c5.rot.jpg
p254
aVdaytimex_1301950828.Tue.Apr.05_07_00_28.AEST.2011.narrabn.c5.rot.jpg
p255
aVdaytimex_1382475627.Wed.Oct.23_07_00_27.AEST.2013.narrabn.c5.rot.jpg
p256
aVdaytimex_1118264428.Thu.Jun.09_07_00_28.AEST.2005.narrabn.c5.rot.jpg
p257
aVdaytimex_1117832428.Sat.Jun.04_07_00_28.AEST.2005.narrabn.c5.rot.jpg
p258
aVdaytimex_1159822828.Tue.Oct.03_07_00_28.AEST.2006.narrabn.c5.rot.jpg
p259
aVdaytimex_1113426028.Thu.Apr.14_07_00_28.AEST.2005.narrabn.c5.rot.jpg
p260
aVdaytimex_1127509228.Sat.Sep.24_07_00_28.AEST.2005.narrabn.c5.rot.jpg
p261
aVdaytimex_1138136428.Wed.Jan.25_07_00_28.AEST.2006.narrabn.c5.rot.jpg
p262
aVdaytimex_1118523628.Sun.Jun.12_07_00_28.AEST.2005.narrabn.c5.rot.jpg
p263
aVdaytimex_1113166827.Mon.Apr.11_07_00_27.AEST.2005.narrabn.c5.rot.jpg
p264
aVdaytimex_1170968427.Fri.Feb.09_07_00_27.AEST.2007.narrabn.c5.rot.jpg
p265
aVdaytimex_1121893228.Thu.Jul.21_07_00_28.AEST.2005.narrabn.c5.rot.jpg
p266
aVdaytimex_1119128428.Sun.Jun.19_07_00_28.AEST.2005.narrabn.c5.rot.jpg
p267
aVdaytimex_1194901228.Tue.Nov.13_07_00_28.AEST.2007.narrabn.c5.rot.jpg
p268
aVdaytimex_1236459627.Sun.Mar.08_07_00_27.AEST.2009.narrabn.c5.rot.jpg
p269
aVdaytimex_1175202028.Fri.Mar.30_07_00_28.AEST.2007.narrabn.c5.rot.jpg
p270
aVdaytimex_1141592428.Mon.Mar.06_07_00_28.AEST.2006.narrabn.c5.rot.jpg
p271
aVdaytimex_1116795627.Mon.May.23_07_00_27.AEST.2005.narrabn.c5.rot.jpg
p272
aVdaytimex_1289422827.Thu.Nov.11_07_00_27.AEST.2010.narrabn.c5.rot.jpg
p273
aVdaytimex_1169499628.Tue.Jan.23_07_00_28.AEST.2007.narrabn.c5.rot.jpg
p274
aVdaytimex_1344891627.Tue.Aug.14_07_00_27.AEST.2012.narrabn.c5.rot.jpg
p275
aVdaytimex_1130706027.Mon.Oct.31_07_00_27.AEST.2005.narrabn.c5.rot.jpg
p276
aVdaytimex_1181854827.Fri.Jun.15_07_00_27.AEST.2007.narrabn.c5.rot.jpg
p277
aVdaytimex_1130446828.Fri.Oct.28_07_00_28.AEST.2005.narrabn.c5.rot.jpg
p278
aVdaytimex_1107032427.Sun.Jan.30_07_00_27.AEST.2005.narrabn.c5.rot.jpg
p279
aVdaytimex_1246136428.Sun.Jun.28_07_00_28.AEST.2009.narrabn.c5.rot.jpg
p280
aVdaytimex_1322773228.Fri.Dec.02_07_00_28.AEST.2011.narrabn.c5.rot.jpg
p281
aVdaytimex_1099171245.Sun.Oct.31_07_20_45.AEST.2004.narrabn.c5.rot.jpg
p282
aVdaytimex_1355518826.Sat.Dec.15_07_00_26.AEST.2012.narrabn.c5.rot.jpg
p283
aVdaytimex_1200171628.Sun.Jan.13_07_00_28.AEST.2008.narrabn.c5.rot.jpg
p284
aVdaytimex_1327352427.Tue.Jan.24_07_00_27.AEST.2012.narrabn.c5.rot.jpg
p285
aVdaytimex_1363122026.Wed.Mar.13_07_00_26.AEST.2013.narrabn.c5.rot.jpg
p286
aVdaytimex_1199307628.Thu.Jan.03_07_00_28.AEST.2008.narrabn.c5.rot.jpg
p287
aVdaytimex_1364763627.Mon.Apr.01_07_00_27.AEST.2013.narrabn.c5.rot.jpg
p288
aVdaytimex_1337115627.Wed.May.16_07_00_27.AEST.2012.narrabn.c5.rot.jpg
p289
aVdaytimex_1390078828.Sun.Jan.19_07_00_28.AEST.2014.narrabn.c5.rot.jpg
p290
aVdaytimex_1391115627.Fri.Jan.31_07_00_27.AEST.2014.narrabn.c5.rot.jpg
p291
aVdaytimex_1363035626.Tue.Mar.12_07_00_26.AEST.2013.narrabn.c5.rot.jpg
p292
aVdaytimex_1199653228.Mon.Jan.07_07_00_28.AEST.2008.narrabn.c5.rot.jpg
p293
aVdaytimex_1146258028.Sat.Apr.29_07_00_28.AEST.2006.narrabn.c5.rot.jpg
p294
aVdaytimex_1379451627.Wed.Sep.18_07_00_27.AEST.2013.narrabn.c5.rot.jpg
p295
aVdaytimex_1098825644.Wed.Oct.27_07_20_44.AEST.2004.narrabn.c5.rot.jpg
p296
aVdaytimex_1379624427.Fri.Sep.20_07_00_27.AEST.2013.narrabn.c5.rot.jpg
p297
aVdaytimex_1349730027.Tue.Oct.09_07_00_27.AEST.2012.narrabn.c5.rot.jpg
p298
aVdaytimex_1098566444.Sun.Oct.24_07_20_44.AEST.2004.narrabn.c5.rot.jpg
p299
aVdaytimex_1363294826.Fri.Mar.15_07_00_26.AEST.2013.narrabn.c5.rot.jpg
p300
aVdaytimex_1272747627.Sun.May.02_07_00_27.AEST.2010.narrabn.c5.erase.jpg
p301
aVdaytimex_1180213228.Sun.May.27_07_00_28.AEST.2007.narrabn.c5.erase.jpg
p302
aVdaytimex_1285621228.Tue.Sep.28_07_00_28.AEST.2010.narrabn.c5.erase.jpg
p303
aVdaytimex_1272056427.Sat.Apr.24_07_00_27.AEST.2010.narrabn.c5.erase.jpg
p304
aVdaytimex_1321822828.Mon.Nov.21_07_00_28.AEST.2011.narrabn.c5.erase.jpg
p305
aVdaytimex_1114722027.Fri.Apr.29_07_00_27.AEST.2005.narrabn.c5.erase.jpg
p306
aVdaytimex_1152478828.Mon.Jul.10_07_00_28.AEST.2006.narrabn.c5.erase.jpg
p307
aVdaytimex_1177966828.Tue.May.01_07_00_28.AEST.2007.narrabn.c5.erase.jpg
p308
aVdaytimex_1179522028.Sat.May.19_07_00_28.AEST.2007.narrabn.c5.erase.jpg
p309
aVdaytimex_1269032427.Sat.Mar.20_07_00_27.AEST.2010.narrabn.c5.erase.jpg
p310
aVdaytimex_1122843628.Mon.Aug.01_07_00_28.AEST.2005.narrabn.c5.erase.jpg
p311
aVdaytimex_1212267627.Sun.Jun.01_07_00_27.AEST.2008.narrabn.c5.erase.jpg
p312
aVdaytimex_1377205228.Fri.Aug.23_07_00_28.AEST.2013.narrabn.c5.erase.jpg
p313
aVdaytimex_1179694828.Mon.May.21_07_00_28.AEST.2007.narrabn.c5.erase.jpg
p314
aVdaytimex_1180904428.Mon.Jun.04_07_00_28.AEST.2007.narrabn.c5.erase.jpg
p315
aVdaytimex_1349470828.Sat.Oct.06_07_00_28.AEST.2012.narrabn.c5.erase.jpg
p316
aVdaytimex_1210280428.Fri.May.09_07_00_28.AEST.2008.narrabn.c5.erase.jpg
p317
aVdaytimex_1302123627.Thu.Apr.07_07_00_27.AEST.2011.narrabn.c5.erase.jpg
p318
aVdaytimex_1397163628.Fri.Apr.11_07_00_28.AEST.2014.narrabn.c5.erase.jpg
p319
aVdaytimex_1192395627.Mon.Oct.15_07_00_27.AEST.2007.narrabn.c5.erase.jpg
p320
aVdaytimex_1148936427.Tue.May.30_07_00_27.AEST.2006.narrabn.c5.erase.jpg
p321
aVdaytimex_1160082028.Fri.Oct.06_07_00_28.AEST.2006.narrabn.c5.erase.jpg
p322
aVdaytimex_1269118827.Sun.Mar.21_07_00_27.AEST.2010.narrabn.c5.erase.jpg
p323
aVdaytimex_1115413227.Sat.May.07_07_00_27.AEST.2005.narrabn.c5.erase.jpg
p324
aVdaytimex_1152738027.Thu.Jul.13_07_00_27.AEST.2006.narrabn.c5.erase.jpg
p325
aVdaytimex_1300482028.Sat.Mar.19_07_00_28.AEST.2011.narrabn.c5.erase.jpg
p326
aVdaytimex_1174424427.Wed.Mar.21_07_00_27.AEST.2007.narrabn.c5.erase.jpg
p327
aVdaytimex_1171141228.Sun.Feb.11_07_00_28.AEST.2007.narrabn.c5.erase.jpg
p328
aVdaytimex_1123362028.Sun.Aug.07_07_00_28.AEST.2005.narrabn.c5.erase.jpg
p329
aVdaytimex_1301950828.Tue.Apr.05_07_00_28.AEST.2011.narrabn.c5.erase.jpg
p330
aVdaytimex_1382475627.Wed.Oct.23_07_00_27.AEST.2013.narrabn.c5.erase.jpg
p331
aVdaytimex_1118264428.Thu.Jun.09_07_00_28.AEST.2005.narrabn.c5.erase.jpg
p332
aVdaytimex_1117832428.Sat.Jun.04_07_00_28.AEST.2005.narrabn.c5.erase.jpg
p333
aVdaytimex_1159822828.Tue.Oct.03_07_00_28.AEST.2006.narrabn.c5.erase.jpg
p334
aVdaytimex_1113426028.Thu.Apr.14_07_00_28.AEST.2005.narrabn.c5.erase.jpg
p335
aVdaytimex_1127509228.Sat.Sep.24_07_00_28.AEST.2005.narrabn.c5.erase.jpg
p336
aVdaytimex_1138136428.Wed.Jan.25_07_00_28.AEST.2006.narrabn.c5.erase.jpg
p337
aVdaytimex_1118523628.Sun.Jun.12_07_00_28.AEST.2005.narrabn.c5.erase.jpg
p338
aVdaytimex_1113166827.Mon.Apr.11_07_00_27.AEST.2005.narrabn.c5.erase.jpg
p339
aVdaytimex_1170968427.Fri.Feb.09_07_00_27.AEST.2007.narrabn.c5.erase.jpg
p340
aVdaytimex_1121893228.Thu.Jul.21_07_00_28.AEST.2005.narrabn.c5.erase.jpg
p341
aVdaytimex_1119128428.Sun.Jun.19_07_00_28.AEST.2005.narrabn.c5.erase.jpg
p342
aVdaytimex_1194901228.Tue.Nov.13_07_00_28.AEST.2007.narrabn.c5.erase.jpg
p343
aVdaytimex_1236459627.Sun.Mar.08_07_00_27.AEST.2009.narrabn.c5.erase.jpg
p344
aVdaytimex_1175202028.Fri.Mar.30_07_00_28.AEST.2007.narrabn.c5.erase.jpg
p345
aVdaytimex_1141592428.Mon.Mar.06_07_00_28.AEST.2006.narrabn.c5.erase.jpg
p346
aVdaytimex_1116795627.Mon.May.23_07_00_27.AEST.2005.narrabn.c5.erase.jpg
p347
aVdaytimex_1289422827.Thu.Nov.11_07_00_27.AEST.2010.narrabn.c5.erase.jpg
p348
aVdaytimex_1169499628.Tue.Jan.23_07_00_28.AEST.2007.narrabn.c5.erase.jpg
p349
aVdaytimex_1344891627.Tue.Aug.14_07_00_27.AEST.2012.narrabn.c5.erase.jpg
p350
aVdaytimex_1130706027.Mon.Oct.31_07_00_27.AEST.2005.narrabn.c5.erase.jpg
p351
aVdaytimex_1181854827.Fri.Jun.15_07_00_27.AEST.2007.narrabn.c5.erase.jpg
p352
aVdaytimex_1130446828.Fri.Oct.28_07_00_28.AEST.2005.narrabn.c5.erase.jpg
p353
aVdaytimex_1107032427.Sun.Jan.30_07_00_27.AEST.2005.narrabn.c5.erase.jpg
p354
aVdaytimex_1246136428.Sun.Jun.28_07_00_28.AEST.2009.narrabn.c5.erase.jpg
p355
aVdaytimex_1322773228.Fri.Dec.02_07_00_28.AEST.2011.narrabn.c5.erase.jpg
p356
aVdaytimex_1099171245.Sun.Oct.31_07_20_45.AEST.2004.narrabn.c5.erase.jpg
p357
aVdaytimex_1355518826.Sat.Dec.15_07_00_26.AEST.2012.narrabn.c5.erase.jpg
p358
aVdaytimex_1200171628.Sun.Jan.13_07_00_28.AEST.2008.narrabn.c5.erase.jpg
p359
aVdaytimex_1327352427.Tue.Jan.24_07_00_27.AEST.2012.narrabn.c5.erase.jpg
p360
aVdaytimex_1363122026.Wed.Mar.13_07_00_26.AEST.2013.narrabn.c5.erase.jpg
p361
aVdaytimex_1199307628.Thu.Jan.03_07_00_28.AEST.2008.narrabn.c5.erase.jpg
p362
aVdaytimex_1364763627.Mon.Apr.01_07_00_27.AEST.2013.narrabn.c5.erase.jpg
p363
aVdaytimex_1337115627.Wed.May.16_07_00_27.AEST.2012.narrabn.c5.erase.jpg
p364
aVdaytimex_1390078828.Sun.Jan.19_07_00_28.AEST.2014.narrabn.c5.erase.jpg
p365
aVdaytimex_1391115627.Fri.Jan.31_07_00_27.AEST.2014.narrabn.c5.erase.jpg
p366
aVdaytimex_1363035626.Tue.Mar.12_07_00_26.AEST.2013.narrabn.c5.erase.jpg
p367
aVdaytimex_1199653228.Mon.Jan.07_07_00_28.AEST.2008.narrabn.c5.erase.jpg
p368
aVdaytimex_1146258028.Sat.Apr.29_07_00_28.AEST.2006.narrabn.c5.erase.jpg
p369
aVdaytimex_1379451627.Wed.Sep.18_07_00_27.AEST.2013.narrabn.c5.erase.jpg
p370
aVdaytimex_1098825644.Wed.Oct.27_07_20_44.AEST.2004.narrabn.c5.erase.jpg
p371
aVdaytimex_1379624427.Fri.Sep.20_07_00_27.AEST.2013.narrabn.c5.erase.jpg
p372
aVdaytimex_1349730027.Tue.Oct.09_07_00_27.AEST.2012.narrabn.c5.erase.jpg
p373
aVdaytimex_1098566444.Sun.Oct.24_07_20_44.AEST.2004.narrabn.c5.erase.jpg
p374
aVdaytimex_1363294826.Fri.Mar.15_07_00_26.AEST.2013.narrabn.c5.erase.jpg
p375
aVdaytimex_1272747627.Sun.May.02_07_00_27.AEST.2010.narrabn.c5.gamma.jpg
p376
aVdaytimex_1180213228.Sun.May.27_07_00_28.AEST.2007.narrabn.c5.gamma.jpg
p377
aVdaytimex_1285621228.Tue.Sep.28_07_00_28.AEST.2010.narrabn.c5.gamma.jpg
p378
aVdaytimex_1272056427.Sat.Apr.24_07_00_27.AEST.2010.narrabn.c5.gamma.jpg
p379
aVdaytimex_1321822828.Mon.Nov.21_07_00_28.AEST.2011.narrabn.c5.gamma.jpg
p380
aVdaytimex_1114722027.Fri.Apr.29_07_00_27.AEST.2005.narrabn.c5.gamma.jpg
p381
aVdaytimex_1152478828.Mon.Jul.10_07_00_28.AEST.2006.narrabn.c5.gamma.jpg
p382
aVdaytimex_1177966828.Tue.May.01_07_00_28.AEST.2007.narrabn.c5.gamma.jpg
p383
aVdaytimex_1179522028.Sat.May.19_07_00_28.AEST.2007.narrabn.c5.gamma.jpg
p384
aVdaytimex_1269032427.Sat.Mar.20_07_00_27.AEST.2010.narrabn.c5.gamma.jpg
p385
aVdaytimex_1122843628.Mon.Aug.01_07_00_28.AEST.2005.narrabn.c5.gamma.jpg
p386
aVdaytimex_1212267627.Sun.Jun.01_07_00_27.AEST.2008.narrabn.c5.gamma.jpg
p387
aVdaytimex_1377205228.Fri.Aug.23_07_00_28.AEST.2013.narrabn.c5.gamma.jpg
p388
aVdaytimex_1179694828.Mon.May.21_07_00_28.AEST.2007.narrabn.c5.gamma.jpg
p389
aVdaytimex_1180904428.Mon.Jun.04_07_00_28.AEST.2007.narrabn.c5.gamma.jpg
p390
aVdaytimex_1349470828.Sat.Oct.06_07_00_28.AEST.2012.narrabn.c5.gamma.jpg
p391
aVdaytimex_1210280428.Fri.May.09_07_00_28.AEST.2008.narrabn.c5.gamma.jpg
p392
aVdaytimex_1302123627.Thu.Apr.07_07_00_27.AEST.2011.narrabn.c5.gamma.jpg
p393
aVdaytimex_1397163628.Fri.Apr.11_07_00_28.AEST.2014.narrabn.c5.gamma.jpg
p394
aVdaytimex_1192395627.Mon.Oct.15_07_00_27.AEST.2007.narrabn.c5.gamma.jpg
p395
aVdaytimex_1148936427.Tue.May.30_07_00_27.AEST.2006.narrabn.c5.gamma.jpg
p396
aVdaytimex_1160082028.Fri.Oct.06_07_00_28.AEST.2006.narrabn.c5.gamma.jpg
p397
aVdaytimex_1269118827.Sun.Mar.21_07_00_27.AEST.2010.narrabn.c5.gamma.jpg
p398
aVdaytimex_1115413227.Sat.May.07_07_00_27.AEST.2005.narrabn.c5.gamma.jpg
p399
aVdaytimex_1152738027.Thu.Jul.13_07_00_27.AEST.2006.narrabn.c5.gamma.jpg
p400
aVdaytimex_1300482028.Sat.Mar.19_07_00_28.AEST.2011.narrabn.c5.gamma.jpg
p401
aVdaytimex_1174424427.Wed.Mar.21_07_00_27.AEST.2007.narrabn.c5.gamma.jpg
p402
aVdaytimex_1171141228.Sun.Feb.11_07_00_28.AEST.2007.narrabn.c5.gamma.jpg
p403
aVdaytimex_1123362028.Sun.Aug.07_07_00_28.AEST.2005.narrabn.c5.gamma.jpg
p404
aVdaytimex_1301950828.Tue.Apr.05_07_00_28.AEST.2011.narrabn.c5.gamma.jpg
p405
aVdaytimex_1382475627.Wed.Oct.23_07_00_27.AEST.2013.narrabn.c5.gamma.jpg
p406
aVdaytimex_1118264428.Thu.Jun.09_07_00_28.AEST.2005.narrabn.c5.gamma.jpg
p407
aVdaytimex_1117832428.Sat.Jun.04_07_00_28.AEST.2005.narrabn.c5.gamma.jpg
p408
aVdaytimex_1159822828.Tue.Oct.03_07_00_28.AEST.2006.narrabn.c5.gamma.jpg
p409
aVdaytimex_1113426028.Thu.Apr.14_07_00_28.AEST.2005.narrabn.c5.gamma.jpg
p410
aVdaytimex_1127509228.Sat.Sep.24_07_00_28.AEST.2005.narrabn.c5.gamma.jpg
p411
aVdaytimex_1138136428.Wed.Jan.25_07_00_28.AEST.2006.narrabn.c5.gamma.jpg
p412
aVdaytimex_1118523628.Sun.Jun.12_07_00_28.AEST.2005.narrabn.c5.gamma.jpg
p413
aVdaytimex_1113166827.Mon.Apr.11_07_00_27.AEST.2005.narrabn.c5.gamma.jpg
p414
aVdaytimex_1170968427.Fri.Feb.09_07_00_27.AEST.2007.narrabn.c5.gamma.jpg
p415
aVdaytimex_1121893228.Thu.Jul.21_07_00_28.AEST.2005.narrabn.c5.gamma.jpg
p416
aVdaytimex_1119128428.Sun.Jun.19_07_00_28.AEST.2005.narrabn.c5.gamma.jpg
p417
aVdaytimex_1194901228.Tue.Nov.13_07_00_28.AEST.2007.narrabn.c5.gamma.jpg
p418
aVdaytimex_1236459627.Sun.Mar.08_07_00_27.AEST.2009.narrabn.c5.gamma.jpg
p419
aVdaytimex_1175202028.Fri.Mar.30_07_00_28.AEST.2007.narrabn.c5.gamma.jpg
p420
aVdaytimex_1141592428.Mon.Mar.06_07_00_28.AEST.2006.narrabn.c5.gamma.jpg
p421
aVdaytimex_1116795627.Mon.May.23_07_00_27.AEST.2005.narrabn.c5.gamma.jpg
p422
aVdaytimex_1289422827.Thu.Nov.11_07_00_27.AEST.2010.narrabn.c5.gamma.jpg
p423
aVdaytimex_1169499628.Tue.Jan.23_07_00_28.AEST.2007.narrabn.c5.gamma.jpg
p424
aVdaytimex_1344891627.Tue.Aug.14_07_00_27.AEST.2012.narrabn.c5.gamma.jpg
p425
aVdaytimex_1130706027.Mon.Oct.31_07_00_27.AEST.2005.narrabn.c5.gamma.jpg
p426
aVdaytimex_1181854827.Fri.Jun.15_07_00_27.AEST.2007.narrabn.c5.gamma.jpg
p427
aVdaytimex_1130446828.Fri.Oct.28_07_00_28.AEST.2005.narrabn.c5.gamma.jpg
p428
aVdaytimex_1107032427.Sun.Jan.30_07_00_27.AEST.2005.narrabn.c5.gamma.jpg
p429
aVdaytimex_1246136428.Sun.Jun.28_07_00_28.AEST.2009.narrabn.c5.gamma.jpg
p430
aVdaytimex_1322773228.Fri.Dec.02_07_00_28.AEST.2011.narrabn.c5.gamma.jpg
p431
aVdaytimex_1099171245.Sun.Oct.31_07_20_45.AEST.2004.narrabn.c5.gamma.jpg
p432
aVdaytimex_1355518826.Sat.Dec.15_07_00_26.AEST.2012.narrabn.c5.gamma.jpg
p433
aVdaytimex_1200171628.Sun.Jan.13_07_00_28.AEST.2008.narrabn.c5.gamma.jpg
p434
aVdaytimex_1327352427.Tue.Jan.24_07_00_27.AEST.2012.narrabn.c5.gamma.jpg
p435
aVdaytimex_1363122026.Wed.Mar.13_07_00_26.AEST.2013.narrabn.c5.gamma.jpg
p436
aVdaytimex_1199307628.Thu.Jan.03_07_00_28.AEST.2008.narrabn.c5.gamma.jpg
p437
aVdaytimex_1364763627.Mon.Apr.01_07_00_27.AEST.2013.narrabn.c5.gamma.jpg
p438
aVdaytimex_1337115627.Wed.May.16_07_00_27.AEST.2012.narrabn.c5.gamma.jpg
p439
aVdaytimex_1390078828.Sun.Jan.19_07_00_28.AEST.2014.narrabn.c5.gamma.jpg
p440
aVdaytimex_1391115627.Fri.Jan.31_07_00_27.AEST.2014.narrabn.c5.gamma.jpg
p441
aVdaytimex_1363035626.Tue.Mar.12_07_00_26.AEST.2013.narrabn.c5.gamma.jpg
p442
aVdaytimex_1199653228.Mon.Jan.07_07_00_28.AEST.2008.narrabn.c5.gamma.jpg
p443
aVdaytimex_1146258028.Sat.Apr.29_07_00_28.AEST.2006.narrabn.c5.gamma.jpg
p444
aVdaytimex_1379451627.Wed.Sep.18_07_00_27.AEST.2013.narrabn.c5.gamma.jpg
p445
aVdaytimex_1098825644.Wed.Oct.27_07_20_44.AEST.2004.narrabn.c5.gamma.jpg
p446
aVdaytimex_1379624427.Fri.Sep.20_07_00_27.AEST.2013.narrabn.c5.gamma.jpg
p447
aVdaytimex_1349730027.Tue.Oct.09_07_00_27.AEST.2012.narrabn.c5.gamma.jpg
p448
aVdaytimex_1098566444.Sun.Oct.24_07_20_44.AEST.2004.narrabn.c5.gamma.jpg
p449
aVdaytimex_1363294826.Fri.Mar.15_07_00_26.AEST.2013.narrabn.c5.gamma.jpg
p450
a.