(dp0
S'daytimex_1136062828.Sun.Jan.01_07_00_28.AEST.2006.narrabn.c5.gamma.jpg'
p1
I2
sS'daytimex_1115067628.Tue.May.03_07_00_28.AEST.2005.narrabn.c5.rot.jpg'
p2
I0
sS'daytimex_1219179627.Wed.Aug.20_07_00_27.AEST.2008.narrabn.c5.jpg'
p3
I2
sS'daytimex_1113771628.Mon.Apr.18_07_00_28.AEST.2005.narrabn.c5.jpg'
p4
I2
sS'daytimex_1363035626.Tue.Mar.12_07_00_26.AEST.2013.narrabn.c5.rot.jpg'
p5
I4
sS'daytimex_1206997228.Tue.Apr.01_07_00_28.AEST.2008.narrabn.c5.vflip.jpg'
p6
I0
sS'daytimex_1365973226.Mon.Apr.15_07_00_26.AEST.2013.narrabn.c5.rot.jpg'
p7
I4
sS'daytimex_1348952427.Sun.Sep.30_07_00_27.AEST.2012.narrabn.c5.jpg'
p8
I2
sS'daytimex_1239138028.Wed.Apr.08_07_00_28.AEST.2009.narrabn.c5.erase.jpg'
p9
I3
sS'daytimex_1210280428.Fri.May.09_07_00_28.AEST.2008.narrabn.c5.gamma.jpg'
p10
I1
sS'daytimex_1355518826.Sat.Dec.15_07_00_26.AEST.2012.narrabn.c5.vflip.jpg'
p11
I3
sS'daytimex_1362690026.Fri.Mar.08_07_00_26.AEST.2013.narrabn.c5.vflip.jpg'
p12
I0
sS'daytimex_1382302828.Mon.Oct.21_07_00_28.AEST.2013.narrabn.c5.rot.jpg'
p13
I2
sS'daytimex_1272315628.Tue.Apr.27_07_00_28.AEST.2010.narrabn.c5.hflip.jpg'
p14
I0
sS'daytimex_1112562027.Mon.Apr.04_07_00_27.AEST.2005.narrabn.c5.hflip.jpg'
p15
I2
sS'daytimex_1249592428.Fri.Aug.07_07_00_28.AEST.2009.narrabn.c5.hflip.jpg'
p16
I1
sS'daytimex_1152478828.Mon.Jul.10_07_00_28.AEST.2006.narrabn.c5.erase.jpg'
p17
I0
sS'daytimex_1301864427.Mon.Apr.04_07_00_27.AEST.2011.narrabn.c5.vflip.jpg'
p18
I4
sS'daytimex_1390424427.Thu.Jan.23_07_00_27.AEST.2014.narrabn.c5.hflip.jpg'
p19
I2
sS'daytimex_1396040427.Sat.Mar.29_07_00_27.AEST.2014.narrabn.c5.jpg'
p20
I1
sS'daytimex_1104526828.Sat.Jan.01_07_00_28.AEST.2005.narrabn.c5.gamma.jpg'
p21
I2
sS'daytimex_1366750827.Wed.Apr.24_07_00_27.AEST.2013.narrabn.c5.erase.jpg'
p22
I3
sS'daytimex_1095542444.Sun.Sep.19_07_20_44.AEST.2004.narrabn.c5.rot.jpg'
p23
I1
sS'daytimex_1165611628.Sat.Dec.09_07_00_28.AEST.2006.narrabn.c5.rot.jpg'
p24
I1
sS'daytimex_1207429228.Sun.Apr.06_07_00_28.AEST.2008.narrabn.c5.vflip.jpg'
p25
I0
sS'daytimex_1209589228.Thu.May.01_07_00_28.AEST.2008.narrabn.c5.erase.jpg'
p26
I2
sS'daytimex_1272747627.Sun.May.02_07_00_27.AEST.2010.narrabn.c5.vflip.jpg'
p27
I0
sS'daytimex_1232744428.Sat.Jan.24_07_00_28.AEST.2009.narrabn.c5.hflip.jpg'
p28
I3
sS'daytimex_1168808428.Mon.Jan.15_07_00_28.AEST.2007.narrabn.c5.hflip.jpg'
p29
I3
sS'daytimex_1107032427.Sun.Jan.30_07_00_27.AEST.2005.narrabn.c5.jpg'
p30
I3
sS'daytimex_1166475628.Tue.Dec.19_07_00_28.AEST.2006.narrabn.c5.jpg'
p31
I1
sS'daytimex_1285448428.Sun.Sep.26_07_00_28.AEST.2010.narrabn.c5.erase.jpg'
p32
I1
sS'daytimex_1271278827.Thu.Apr.15_07_00_27.AEST.2010.narrabn.c5.hflip.jpg'
p33
I1
sS'daytimex_1168808428.Mon.Jan.15_07_00_28.AEST.2007.narrabn.c5.gamma.jpg'
p34
I3
sS'daytimex_1164488428.Sun.Nov.26_07_00_28.AEST.2006.narrabn.c5.erase.jpg'
p35
I1
sS'daytimex_1366837226.Thu.Apr.25_07_00_26.AEST.2013.narrabn.c5.gamma.jpg'
p36
I4
sS'daytimex_1215032428.Thu.Jul.03_07_00_28.AEST.2008.narrabn.c5.erase.jpg'
p37
I1
sS'daytimex_1105304428.Mon.Jan.10_07_00_28.AEST.2005.narrabn.c5.hflip.jpg'
p38
I2
sS'daytimex_1277845228.Wed.Jun.30_07_00_28.AEST.2010.narrabn.c5.hflip.jpg'
p39
I2
sS'daytimex_1271278827.Thu.Apr.15_07_00_27.AEST.2010.narrabn.c5.vflip.jpg'
p40
I1
sS'daytimex_1272315628.Tue.Apr.27_07_00_28.AEST.2010.narrabn.c5.rot.jpg'
p41
I0
sS'daytimex_1130878828.Wed.Nov.02_07_00_28.AEST.2005.narrabn.c5.erase.jpg'
p42
I3
sS'daytimex_1382389228.Tue.Oct.22_07_00_28.AEST.2013.narrabn.c5.rot.jpg'
p43
I3
sS'daytimex_1244840427.Sat.Jun.13_07_00_27.AEST.2009.narrabn.c5.gamma.jpg'
p44
I0
sS'daytimex_1199739627.Tue.Jan.08_07_00_27.AEST.2008.narrabn.c5.vflip.jpg'
p45
I4
sS'daytimex_1103403628.Sun.Dec.19_07_00_28.AEST.2004.narrabn.c5.erase.jpg'
p46
I3
sS'daytimex_1289422827.Thu.Nov.11_07_00_27.AEST.2010.narrabn.c5.gamma.jpg'
p47
I3
sS'daytimex_1396818028.Mon.Apr.07_07_00_28.AEST.2014.narrabn.c5.vflip.jpg'
p48
I1
sS'daytimex_1396818028.Mon.Apr.07_07_00_28.AEST.2014.narrabn.c5.rot.jpg'
p49
I1
sS'daytimex_1216414828.Sat.Jul.19_07_00_28.AEST.2008.narrabn.c5.gamma.jpg'
p50
I0
sS'daytimex_1396386028.Wed.Apr.02_07_00_28.AEST.2014.narrabn.c5.vflip.jpg'
p51
I1
sS'daytimex_1259442028.Sun.Nov.29_07_00_28.AEST.2009.narrabn.c5.rot.jpg'
p52
I3
sS'daytimex_1352494827.Sat.Nov.10_07_00_27.AEST.2012.narrabn.c5.jpg'
p53
I3
sS'daytimex_1233003628.Tue.Jan.27_07_00_28.AEST.2009.narrabn.c5.rot.jpg'
p54
I2
sS'daytimex_1093641644.Sat.Aug.28_07_20_44.AEST.2004.narrabn.c5.erase.jpg'
p55
I2
sS'daytimex_1367182827.Mon.Apr.29_07_00_27.AEST.2013.narrabn.c5.jpg'
p56
I0
sS'daytimex_1125781227.Sun.Sep.04_07_00_27.AEST.2005.narrabn.c5.jpg'
p57
I3
sS'daytimex_1233003628.Tue.Jan.27_07_00_28.AEST.2009.narrabn.c5.erase.jpg'
p58
I2
sS'daytimex_1272315628.Tue.Apr.27_07_00_28.AEST.2010.narrabn.c5.gamma.jpg'
p59
I0
sS'daytimex_1346533227.Sun.Sep.02_07_00_27.AEST.2012.narrabn.c5.erase.jpg'
p60
I2
sS'daytimex_1210194028.Thu.May.08_07_00_28.AEST.2008.narrabn.c5.hflip.jpg'
p61
I1
sS'daytimex_1344805229.Mon.Aug.13_07_00_29.AEST.2012.narrabn.c5.rot.jpg'
p62
I3
sS'daytimex_1304715627.Sat.May.07_07_00_27.AEST.2011.narrabn.c5.jpg'
p63
I2
sS'daytimex_1114203627.Sat.Apr.23_07_00_27.AEST.2005.narrabn.c5.gamma.jpg'
p64
I1
sS'daytimex_1202331628.Thu.Feb.07_07_00_28.AEST.2008.narrabn.c5.gamma.jpg'
p65
I4
sS'daytimex_1113771628.Mon.Apr.18_07_00_28.AEST.2005.narrabn.c5.gamma.jpg'
p66
I2
sS'daytimex_1144702827.Tue.Apr.11_07_00_27.AEST.2006.narrabn.c5.erase.jpg'
p67
I3
sS'daytimex_1110229228.Tue.Mar.08_07_00_28.AEST.2005.narrabn.c5.vflip.jpg'
p68
I2
sS'daytimex_1100553644.Tue.Nov.16_07_20_44.AEST.2004.narrabn.c5.hflip.jpg'
p69
I2
sS'daytimex_1384462828.Fri.Nov.15_07_00_28.AEST.2013.narrabn.c5.rot.jpg'
p70
I3
sS'daytimex_1130446828.Fri.Oct.28_07_00_28.AEST.2005.narrabn.c5.vflip.jpg'
p71
I3
sS'daytimex_1093641644.Sat.Aug.28_07_20_44.AEST.2004.narrabn.c5.hflip.jpg'
p72
I2
sS'daytimex_1100553644.Tue.Nov.16_07_20_44.AEST.2004.narrabn.c5.jpg'
p73
I2
sS'daytimex_1243198828.Mon.May.25_07_00_28.AEST.2009.narrabn.c5.erase.jpg'
p74
I1
sS'daytimex_1295557227.Fri.Jan.21_07_00_27.AEST.2011.narrabn.c5.vflip.jpg'
p75
I2
sS'daytimex_1262379627.Sat.Jan.02_07_00_27.AEST.2010.narrabn.c5.vflip.jpg'
p76
I3
sS'daytimex_1102626027.Fri.Dec.10_07_00_27.AEST.2004.narrabn.c5.erase.jpg'
p77
I4
sS'daytimex_1164229228.Thu.Nov.23_07_00_28.AEST.2006.narrabn.c5.erase.jpg'
p78
I3
sS'daytimex_1367096427.Sun.Apr.28_07_00_27.AEST.2013.narrabn.c5.rot.jpg'
p79
I0
sS'daytimex_1184706028.Wed.Jul.18_07_00_28.AEST.2007.narrabn.c5.erase.jpg'
p80
I2
sS'daytimex_1180213228.Sun.May.27_07_00_28.AEST.2007.narrabn.c5.vflip.jpg'
p81
I0
sS'daytimex_1105304428.Mon.Jan.10_07_00_28.AEST.2005.narrabn.c5.erase.jpg'
p82
I2
sS'daytimex_1189458027.Tue.Sep.11_07_00_27.AEST.2007.narrabn.c5.rot.jpg'
p83
I3
sS'daytimex_1170968427.Fri.Feb.09_07_00_27.AEST.2007.narrabn.c5.erase.jpg'
p84
I2
sS'daytimex_1295643628.Sat.Jan.22_07_00_28.AEST.2011.narrabn.c5.erase.jpg'
p85
I2
sS'daytimex_1141506027.Sun.Mar.05_07_00_27.AEST.2006.narrabn.c5.hflip.jpg'
p86
I4
sS'daytimex_1098652844.Mon.Oct.25_07_20_44.AEST.2004.narrabn.c5.rot.jpg'
p87
I4
sS'daytimex_1363122026.Wed.Mar.13_07_00_26.AEST.2013.narrabn.c5.rot.jpg'
p88
I4
sS'daytimex_1125781227.Sun.Sep.04_07_00_27.AEST.2005.narrabn.c5.hflip.jpg'
p89
I3
sS'daytimex_1363986027.Sat.Mar.23_07_00_27.AEST.2013.narrabn.c5.jpg'
p90
I4
sS'daytimex_1178398828.Sun.May.06_07_00_28.AEST.2007.narrabn.c5.vflip.jpg'
p91
I0
sS'daytimex_1259442028.Sun.Nov.29_07_00_28.AEST.2009.narrabn.c5.hflip.jpg'
p92
I3
sS'daytimex_1191790827.Mon.Oct.08_07_00_27.AEST.2007.narrabn.c5.jpg'
p93
I1
sS'daytimex_1210280428.Fri.May.09_07_00_28.AEST.2008.narrabn.c5.hflip.jpg'
p94
I1
sS'daytimex_1151614827.Fri.Jun.30_07_00_27.AEST.2006.narrabn.c5.vflip.jpg'
p95
I0
sS'daytimex_1365454827.Tue.Apr.09_07_00_27.AEST.2013.narrabn.c5.rot.jpg'
p96
I4
sS'daytimex_1275080427.Sat.May.29_07_00_27.AEST.2010.narrabn.c5.hflip.jpg'
p97
I3
sS'daytimex_1180904428.Mon.Jun.04_07_00_28.AEST.2007.narrabn.c5.hflip.jpg'
p98
I0
sS'daytimex_1219179627.Wed.Aug.20_07_00_27.AEST.2008.narrabn.c5.rot.jpg'
p99
I2
sS'daytimex_1210194028.Thu.May.08_07_00_28.AEST.2008.narrabn.c5.vflip.jpg'
p100
I1
sS'daytimex_1162674028.Sun.Nov.05_07_00_28.AEST.2006.narrabn.c5.gamma.jpg'
p101
I3
sS'daytimex_1367269226.Tue.Apr.30_07_00_26.AEST.2013.narrabn.c5.gamma.jpg'
p102
I0
sS'daytimex_1243371628.Wed.May.27_07_00_28.AEST.2009.narrabn.c5.vflip.jpg'
p103
I0
sS'daytimex_1244581228.Wed.Jun.10_07_00_28.AEST.2009.narrabn.c5.jpg'
p104
I0
sS'daytimex_1203886827.Mon.Feb.25_07_00_27.AEST.2008.narrabn.c5.erase.jpg'
p105
I3
sS'daytimex_1104699628.Mon.Jan.03_07_00_28.AEST.2005.narrabn.c5.jpg'
p106
I2
sS'daytimex_1095456045.Sat.Sep.18_07_20_45.AEST.2004.narrabn.c5.vflip.jpg'
p107
I1
sS'daytimex_1136062828.Sun.Jan.01_07_00_28.AEST.2006.narrabn.c5.jpg'
p108
I2
sS'daytimex_1307048427.Fri.Jun.03_07_00_27.AEST.2011.narrabn.c5.erase.jpg'
p109
I4
sS'daytimex_1112562027.Mon.Apr.04_07_00_27.AEST.2005.narrabn.c5.rot.jpg'
p110
I2
sS'daytimex_1152565228.Tue.Jul.11_07_00_28.AEST.2006.narrabn.c5.gamma.jpg'
p111
I0
sS'daytimex_1425850207.Mon.Mar.09_07_30_07.AEST.2015.narrabn.c5.gamma.jpg'
p112
I3
sS'daytimex_1332795628.Tue.Mar.27_07_00_28.AEST.2012.narrabn.c5.hflip.jpg'
p113
I2
sS'daytimex_1311627628.Tue.Jul.26_07_00_28.AEST.2011.narrabn.c5.rot.jpg'
p114
I3
sS'daytimex_1344286827.Tue.Aug.07_07_00_27.AEST.2012.narrabn.c5.rot.jpg'
p115
I2
sS'daytimex_1179262828.Wed.May.16_07_00_28.AEST.2007.narrabn.c5.erase.jpg'
p116
I0
sS'daytimex_1098566444.Sun.Oct.24_07_20_44.AEST.2004.narrabn.c5.hflip.jpg'
p117
I4
sS'daytimex_1393707627.Sun.Mar.02_07_00_27.AEST.2014.narrabn.c5.erase.jpg'
p118
I1
sS'daytimex_1148331627.Tue.May.23_07_00_27.AEST.2006.narrabn.c5.hflip.jpg'
p119
I1
sS'daytimex_1156798828.Tue.Aug.29_07_00_28.AEST.2006.narrabn.c5.vflip.jpg'
p120
I1
sS'daytimex_1280350828.Thu.Jul.29_07_00_28.AEST.2010.narrabn.c5.jpg'
p121
I1
sS'daytimex_1364072427.Sun.Mar.24_07_00_27.AEST.2013.narrabn.c5.vflip.jpg'
p122
I4
sS'daytimex_1327179628.Sun.Jan.22_07_00_28.AEST.2012.narrabn.c5.jpg'
p123
I3
sS'daytimex_1391115627.Fri.Jan.31_07_00_27.AEST.2014.narrabn.c5.rot.jpg'
p124
I0
sS'daytimex_1364590827.Sat.Mar.30_07_00_27.AEST.2013.narrabn.c5.erase.jpg'
p125
I3
sS'daytimex_1141419628.Sat.Mar.04_07_00_28.AEST.2006.narrabn.c5.gamma.jpg'
p126
I4
sS'daytimex_1349384427.Fri.Oct.05_07_00_27.AEST.2012.narrabn.c5.jpg'
p127
I1
sS'daytimex_1307134828.Sat.Jun.04_07_00_28.AEST.2011.narrabn.c5.rot.jpg'
p128
I3
sS'daytimex_1178398828.Sun.May.06_07_00_28.AEST.2007.narrabn.c5.erase.jpg'
p129
I0
sS'daytimex_1113598827.Sat.Apr.16_07_00_27.AEST.2005.narrabn.c5.rot.jpg'
p130
I2
sS'daytimex_1144616428.Mon.Apr.10_07_00_28.AEST.2006.narrabn.c5.jpg'
p131
I4
sS'daytimex_1172955628.Sun.Mar.04_07_00_28.AEST.2007.narrabn.c5.jpg'
p132
I3
sS'daytimex_1280091628.Mon.Jul.26_07_00_28.AEST.2010.narrabn.c5.jpg'
p133
I1
sS'daytimex_1218920428.Sun.Aug.17_07_00_28.AEST.2008.narrabn.c5.gamma.jpg'
p134
I1
sS'daytimex_1165525227.Fri.Dec.08_07_00_27.AEST.2006.narrabn.c5.erase.jpg'
p135
I0
sS'daytimex_1395867628.Thu.Mar.27_07_00_28.AEST.2014.narrabn.c5.gamma.jpg'
p136
I1
sS'daytimex_1297630827.Mon.Feb.14_07_00_27.AEST.2011.narrabn.c5.hflip.jpg'
p137
I2
sS'daytimex_1297890028.Thu.Feb.17_07_00_28.AEST.2011.narrabn.c5.vflip.jpg'
p138
I1
sS'daytimex_1218315628.Sun.Aug.10_07_00_28.AEST.2008.narrabn.c5.gamma.jpg'
p139
I0
sS'daytimex_1285621228.Tue.Sep.28_07_00_28.AEST.2010.narrabn.c5.gamma.jpg'
p140
I0
sS'daytimex_1289422827.Thu.Nov.11_07_00_27.AEST.2010.narrabn.c5.hflip.jpg'
p141
I3
sS'daytimex_1422322207.Tue.Jan.27_11_30_07.AEST.2015.narrabn.c5.erase.jpg'
p142
I3
sS'daytimex_1180904428.Mon.Jun.04_07_00_28.AEST.2007.narrabn.c5.erase.jpg'
p143
I0
sS'daytimex_1264194027.Sat.Jan.23_07_00_27.AEST.2010.narrabn.c5.rot.jpg'
p144
I1
sS'daytimex_1189458027.Tue.Sep.11_07_00_27.AEST.2007.narrabn.c5.vflip.jpg'
p145
I3
sS'daytimex_1296421228.Mon.Jan.31_07_00_28.AEST.2011.narrabn.c5.hflip.jpg'
p146
I1
sS'daytimex_1184706028.Wed.Jul.18_07_00_28.AEST.2007.narrabn.c5.hflip.jpg'
p147
I2
sS'daytimex_1286485227.Fri.Oct.08_07_00_27.AEST.2010.narrabn.c5.jpg'
p148
I2
sS'daytimex_1243371628.Wed.May.27_07_00_28.AEST.2009.narrabn.c5.gamma.jpg'
p149
I0
sS'daytimex_1280350828.Thu.Jul.29_07_00_28.AEST.2010.narrabn.c5.erase.jpg'
p150
I1
sS'daytimex_1174424427.Wed.Mar.21_07_00_27.AEST.2007.narrabn.c5.rot.jpg'
p151
I0
sS'daytimex_1183410028.Tue.Jul.03_07_00_28.AEST.2007.narrabn.c5.erase.jpg'
p152
I0
sS'daytimex_1091568045.Wed.Aug.04_07_20_45.AEST.2004.narrabn.c5.vflip.jpg'
p153
I1
sS'daytimex_1218315628.Sun.Aug.10_07_00_28.AEST.2008.narrabn.c5.vflip.jpg'
p154
I0
sS'daytimex_1166994028.Mon.Dec.25_07_00_28.AEST.2006.narrabn.c5.erase.jpg'
p155
I2
sS'daytimex_1137013242.Thu.Jan.12_07_00_42.AEST.2006.narrabn.c5.gamma.jpg'
p156
I3
sS'daytimex_1397077227.Thu.Apr.10_07_00_27.AEST.2014.narrabn.c5.erase.jpg'
p157
I1
sS'daytimex_1246309228.Tue.Jun.30_07_00_28.AEST.2009.narrabn.c5.vflip.jpg'
p158
I0
sS'daytimex_1100640044.Wed.Nov.17_07_20_44.AEST.2004.narrabn.c5.jpg'
p159
I3
sS'daytimex_1168722027.Sun.Jan.14_07_00_27.AEST.2007.narrabn.c5.rot.jpg'
p160
I3
sS'daytimex_1174424427.Wed.Mar.21_07_00_27.AEST.2007.narrabn.c5.jpg'
p161
I0
sS'daytimex_1285362027.Sat.Sep.25_07_00_27.AEST.2010.narrabn.c5.erase.jpg'
p162
I1
sS'daytimex_1298494828.Thu.Feb.24_07_00_28.AEST.2011.narrabn.c5.gamma.jpg'
p163
I4
sS'daytimex_1206997228.Tue.Apr.01_07_00_28.AEST.2008.narrabn.c5.erase.jpg'
p164
I0
sS'daytimex_1362862827.Sun.Mar.10_07_00_27.AEST.2013.narrabn.c5.rot.jpg'
p165
I4
sS'daytimex_1176066028.Mon.Apr.09_07_00_28.AEST.2007.narrabn.c5.erase.jpg'
p166
I1
sS'daytimex_1174338027.Tue.Mar.20_07_00_27.AEST.2007.narrabn.c5.gamma.jpg'
p167
I0
sS'daytimex_1152478828.Mon.Jul.10_07_00_28.AEST.2006.narrabn.c5.rot.jpg'
p168
I0
sS'daytimex_1344286827.Tue.Aug.07_07_00_27.AEST.2012.narrabn.c5.vflip.jpg'
p169
I2
sS'daytimex_1275080427.Sat.May.29_07_00_27.AEST.2010.narrabn.c5.gamma.jpg'
p170
I3
sS'daytimex_1304715627.Sat.May.07_07_00_27.AEST.2011.narrabn.c5.rot.jpg'
p171
I2
sS'daytimex_1244408427.Mon.Jun.08_07_00_27.AEST.2009.narrabn.c5.erase.jpg'
p172
I0
sS'daytimex_1303506028.Sat.Apr.23_07_00_28.AEST.2011.narrabn.c5.jpg'
p173
I0
sS'daytimex_1362862827.Sun.Mar.10_07_00_27.AEST.2013.narrabn.c5.jpg'
p174
I4
sS'daytimex_1144702827.Tue.Apr.11_07_00_27.AEST.2006.narrabn.c5.hflip.jpg'
p175
I3
sS'daytimex_1180904428.Mon.Jun.04_07_00_28.AEST.2007.narrabn.c5.rot.jpg'
p176
I0
sS'daytimex_1277845228.Wed.Jun.30_07_00_28.AEST.2010.narrabn.c5.erase.jpg'
p177
I2
sS'daytimex_1298494828.Thu.Feb.24_07_00_28.AEST.2011.narrabn.c5.hflip.jpg'
p178
I4
sS'daytimex_1280523628.Sat.Jul.31_07_00_28.AEST.2010.narrabn.c5.hflip.jpg'
p179
I0
sS'daytimex_1391288428.Sun.Feb.02_07_00_28.AEST.2014.narrabn.c5.jpg'
p180
I2
sS'daytimex_1363899627.Fri.Mar.22_07_00_27.AEST.2013.narrabn.c5.hflip.jpg'
p181
I4
sS'daytimex_1192482027.Tue.Oct.16_07_00_27.AEST.2007.narrabn.c5.erase.jpg'
p182
I1
sS'daytimex_1244840427.Sat.Jun.13_07_00_27.AEST.2009.narrabn.c5.erase.jpg'
p183
I0
sS'daytimex_1154120427.Sat.Jul.29_07_00_27.AEST.2006.narrabn.c5.erase.jpg'
p184
I4
sS'daytimex_1164488428.Sun.Nov.26_07_00_28.AEST.2006.narrabn.c5.jpg'
p185
I1
sS'daytimex_1363899627.Fri.Mar.22_07_00_27.AEST.2013.narrabn.c5.jpg'
p186
I4
sS'daytimex_1263675627.Sun.Jan.17_07_00_27.AEST.2010.narrabn.c5.vflip.jpg'
p187
I2
sS'daytimex_1130446828.Fri.Oct.28_07_00_28.AEST.2005.narrabn.c5.jpg'
p188
I3
sS'daytimex_1397077227.Thu.Apr.10_07_00_27.AEST.2014.narrabn.c5.vflip.jpg'
p189
I1
sS'daytimex_1355518826.Sat.Dec.15_07_00_26.AEST.2012.narrabn.c5.rot.jpg'
p190
I3
sS'daytimex_1193346027.Fri.Oct.26_07_00_27.AEST.2007.narrabn.c5.hflip.jpg'
p191
I1
sS'daytimex_1397077227.Thu.Apr.10_07_00_27.AEST.2014.narrabn.c5.rot.jpg'
p192
I1
sS'daytimex_1363467627.Sun.Mar.17_07_00_27.AEST.2013.narrabn.c5.vflip.jpg'
p193
I4
sS'daytimex_1363294826.Fri.Mar.15_07_00_26.AEST.2013.narrabn.c5.gamma.jpg'
p194
I4
sS'daytimex_1365973226.Mon.Apr.15_07_00_26.AEST.2013.narrabn.c5.jpg'
p195
I4
sS'daytimex_1107032427.Sun.Jan.30_07_00_27.AEST.2005.narrabn.c5.gamma.jpg'
p196
I3
sS'daytimex_1174683628.Sat.Mar.24_07_00_28.AEST.2007.narrabn.c5.hflip.jpg'
p197
I0
sS'daytimex_1279141227.Thu.Jul.15_07_00_27.AEST.2010.narrabn.c5.rot.jpg'
p198
I0
sS'daytimex_1252357227.Tue.Sep.08_07_00_27.AEST.2009.narrabn.c5.rot.jpg'
p199
I4
sS'daytimex_1365714027.Fri.Apr.12_07_00_27.AEST.2013.narrabn.c5.erase.jpg'
p200
I4
sS'daytimex_1327179628.Sun.Jan.22_07_00_28.AEST.2012.narrabn.c5.gamma.jpg'
p201
I3
sS'daytimex_1179608427.Sun.May.20_07_00_27.AEST.2007.narrabn.c5.jpg'
p202
I0
sS'daytimex_1366491627.Sun.Apr.21_07_00_27.AEST.2013.narrabn.c5.hflip.jpg'
p203
I4
sS'daytimex_1232744428.Sat.Jan.24_07_00_28.AEST.2009.narrabn.c5.vflip.jpg'
p204
I3
sS'daytimex_1313614827.Thu.Aug.18_07_00_27.AEST.2011.narrabn.c5.gamma.jpg'
p205
I2
sS'daytimex_1425850207.Mon.Mar.09_07_30_07.AEST.2015.narrabn.c5.jpg'
p206
I3
sS'daytimex_1136062828.Sun.Jan.01_07_00_28.AEST.2006.narrabn.c5.rot.jpg'
p207
I2
sS'daytimex_1105131627.Sat.Jan.08_07_00_27.AEST.2005.narrabn.c5.vflip.jpg'
p208
I3
sS'daytimex_1200430827.Wed.Jan.16_07_00_27.AEST.2008.narrabn.c5.gamma.jpg'
p209
I3
sS'daytimex_1169413228.Mon.Jan.22_07_00_28.AEST.2007.narrabn.c5.hflip.jpg'
p210
I4
sS'daytimex_1216587627.Mon.Jul.21_07_00_27.AEST.2008.narrabn.c5.rot.jpg'
p211
I0
sS'daytimex_1277758827.Tue.Jun.29_07_00_27.AEST.2010.narrabn.c5.gamma.jpg'
p212
I2
sS'daytimex_1172955628.Sun.Mar.04_07_00_28.AEST.2007.narrabn.c5.hflip.jpg'
p213
I3
sS'daytimex_1218920428.Sun.Aug.17_07_00_28.AEST.2008.narrabn.c5.rot.jpg'
p214
I1
sS'daytimex_1413493206.Fri.Oct.17_07_00_06.AEST.2014.narrabn.c5.rot.jpg'
p215
I3
sS'daytimex_1367701227.Sun.May.05_07_00_27.AEST.2013.narrabn.c5.rot.jpg'
p216
I3
sS'daytimex_1166994028.Mon.Dec.25_07_00_28.AEST.2006.narrabn.c5.hflip.jpg'
p217
I2
sS'daytimex_1263070827.Sun.Jan.10_07_00_27.AEST.2010.narrabn.c5.rot.jpg'
p218
I2
sS'daytimex_1336770028.Sat.May.12_07_00_28.AEST.2012.narrabn.c5.jpg'
p219
I2
sS'daytimex_1093641644.Sat.Aug.28_07_20_44.AEST.2004.narrabn.c5.vflip.jpg'
p220
I2
sS'daytimex_1092432044.Sat.Aug.14_07_20_44.AEST.2004.narrabn.c5.jpg'
p221
I0
sS'daytimex_1365109227.Fri.Apr.05_07_00_27.AEST.2013.narrabn.c5.rot.jpg'
p222
I4
sS'daytimex_1297026028.Mon.Feb.07_07_00_28.AEST.2011.narrabn.c5.jpg'
p223
I2
sS'daytimex_1264194027.Sat.Jan.23_07_00_27.AEST.2010.narrabn.c5.erase.jpg'
p224
I1
sS'daytimex_1243976428.Wed.Jun.03_07_00_28.AEST.2009.narrabn.c5.vflip.jpg'
p225
I0
sS'daytimex_1249592428.Fri.Aug.07_07_00_28.AEST.2009.narrabn.c5.vflip.jpg'
p226
I1
sS'daytimex_1277758827.Tue.Jun.29_07_00_27.AEST.2010.narrabn.c5.jpg'
p227
I2
sS'daytimex_1129842028.Fri.Oct.21_07_00_28.AEST.2005.narrabn.c5.rot.jpg'
p228
I4
sS'daytimex_1179522028.Sat.May.19_07_00_28.AEST.2007.narrabn.c5.rot.jpg'
p229
I0
sS'daytimex_1188853227.Tue.Sep.04_07_00_27.AEST.2007.narrabn.c5.erase.jpg'
p230
I2
sS'daytimex_1332795628.Tue.Mar.27_07_00_28.AEST.2012.narrabn.c5.gamma.jpg'
p231
I2
sS'daytimex_1300482028.Sat.Mar.19_07_00_28.AEST.2011.narrabn.c5.vflip.jpg'
p232
I1
sS'daytimex_1364418026.Thu.Mar.28_07_00_26.AEST.2013.narrabn.c5.erase.jpg'
p233
I4
sS'daytimex_1200085228.Sat.Jan.12_07_00_28.AEST.2008.narrabn.c5.vflip.jpg'
p234
I4
sS'daytimex_1379624427.Fri.Sep.20_07_00_27.AEST.2013.narrabn.c5.jpg'
p235
I4
sS'daytimex_1159909227.Wed.Oct.04_07_00_27.AEST.2006.narrabn.c5.rot.jpg'
p236
I2
sS'daytimex_1308430828.Sun.Jun.19_07_00_28.AEST.2011.narrabn.c5.gamma.jpg'
p237
I2
sS'daytimex_1280523628.Sat.Jul.31_07_00_28.AEST.2010.narrabn.c5.rot.jpg'
p238
I0
sS'daytimex_1102453228.Wed.Dec.08_07_00_28.AEST.2004.narrabn.c5.hflip.jpg'
p239
I4
sS'daytimex_1359579627.Thu.Jan.31_07_00_27.AEST.2013.narrabn.c5.jpg'
p240
I4
sS'daytimex_1364158827.Mon.Mar.25_07_00_27.AEST.2013.narrabn.c5.hflip.jpg'
p241
I4
sS'daytimex_1295643628.Sat.Jan.22_07_00_28.AEST.2011.narrabn.c5.vflip.jpg'
p242
I2
sS'daytimex_1296248427.Sat.Jan.29_07_00_27.AEST.2011.narrabn.c5.gamma.jpg'
p243
I2
sS'daytimex_1199826027.Wed.Jan.09_07_00_27.AEST.2008.narrabn.c5.rot.jpg'
p244
I4
sS'daytimex_1104699628.Mon.Jan.03_07_00_28.AEST.2005.narrabn.c5.rot.jpg'
p245
I2
sS'daytimex_1313182827.Sat.Aug.13_07_00_27.AEST.2011.narrabn.c5.hflip.jpg'
p246
I2
sS'daytimex_1159909227.Wed.Oct.04_07_00_27.AEST.2006.narrabn.c5.vflip.jpg'
p247
I2
sS'daytimex_1375736428.Tue.Aug.06_07_00_28.AEST.2013.narrabn.c5.hflip.jpg'
p248
I2
sS'daytimex_1179522028.Sat.May.19_07_00_28.AEST.2007.narrabn.c5.gamma.jpg'
p249
I0
sS'daytimex_1366491627.Sun.Apr.21_07_00_27.AEST.2013.narrabn.c5.vflip.jpg'
p250
I4
sS'daytimex_1257195628.Tue.Nov.03_07_00_28.AEST.2009.narrabn.c5.gamma.jpg'
p251
I2
sS'daytimex_1199653228.Mon.Jan.07_07_00_28.AEST.2008.narrabn.c5.gamma.jpg'
p252
I4
sS'daytimex_1307134828.Sat.Jun.04_07_00_28.AEST.2011.narrabn.c5.gamma.jpg'
p253
I3
sS'daytimex_1392930028.Fri.Feb.21_07_00_28.AEST.2014.narrabn.c5.vflip.jpg'
p254
I2
sS'daytimex_1176498028.Sat.Apr.14_07_00_28.AEST.2007.narrabn.c5.jpg'
p255
I1
sS'daytimex_1106600428.Tue.Jan.25_07_00_28.AEST.2005.narrabn.c5.hflip.jpg'
p256
I2
sS'daytimex_1384462828.Fri.Nov.15_07_00_28.AEST.2013.narrabn.c5.vflip.jpg'
p257
I3
sS'daytimex_1152738027.Thu.Jul.13_07_00_27.AEST.2006.narrabn.c5.rot.jpg'
p258
I1
sS'daytimex_1334523627.Mon.Apr.16_07_00_27.AEST.2012.narrabn.c5.jpg'
p259
I2
sS'daytimex_1189890028.Sun.Sep.16_07_00_28.AEST.2007.narrabn.c5.erase.jpg'
p260
I3
sS'daytimex_1205960427.Thu.Mar.20_07_00_27.AEST.2008.narrabn.c5.hflip.jpg'
p261
I1
sS'daytimex_1218747627.Fri.Aug.15_07_00_27.AEST.2008.narrabn.c5.hflip.jpg'
p262
I1
sS'daytimex_1169326827.Sun.Jan.21_07_00_27.AEST.2007.narrabn.c5.hflip.jpg'
p263
I4
sS'daytimex_1129755628.Thu.Oct.20_07_00_28.AEST.2005.narrabn.c5.vflip.jpg'
p264
I4
sS'daytimex_1336770028.Sat.May.12_07_00_28.AEST.2012.narrabn.c5.gamma.jpg'
p265
I2
sS'daytimex_1253394027.Sun.Sep.20_07_00_27.AEST.2009.narrabn.c5.hflip.jpg'
p266
I1
sS'daytimex_1362603627.Thu.Mar.07_07_00_27.AEST.2013.narrabn.c5.vflip.jpg'
p267
I0
sS'daytimex_1154120427.Sat.Jul.29_07_00_27.AEST.2006.narrabn.c5.vflip.jpg'
p268
I4
sS'daytimex_1232658027.Fri.Jan.23_07_00_27.AEST.2009.narrabn.c5.erase.jpg'
p269
I3
sS'daytimex_1200258027.Mon.Jan.14_07_00_27.AEST.2008.narrabn.c5.jpg'
p270
I4
sS'daytimex_1285448428.Sun.Sep.26_07_00_28.AEST.2010.narrabn.c5.jpg'
p271
I1
sS'daytimex_1170968427.Fri.Feb.09_07_00_27.AEST.2007.narrabn.c5.hflip.jpg'
p272
I2
sS'daytimex_1174338027.Tue.Mar.20_07_00_27.AEST.2007.narrabn.c5.erase.jpg'
p273
I0
sS'daytimex_1174424427.Wed.Mar.21_07_00_27.AEST.2007.narrabn.c5.hflip.jpg'
p274
I0
sS'daytimex_1218574827.Wed.Aug.13_07_00_27.AEST.2008.narrabn.c5.gamma.jpg'
p275
I0
sS'daytimex_1165525227.Fri.Dec.08_07_00_27.AEST.2006.narrabn.c5.hflip.jpg'
p276
I0
sS'daytimex_1158613228.Tue.Sep.19_07_00_28.AEST.2006.narrabn.c5.jpg'
p277
I2
sS'daytimex_1363122026.Wed.Mar.13_07_00_26.AEST.2013.narrabn.c5.jpg'
p278
I4
sS'daytimex_1102885227.Mon.Dec.13_07_00_27.AEST.2004.narrabn.c5.jpg'
p279
I3
sS'daytimex_1277240427.Wed.Jun.23_07_00_27.AEST.2010.narrabn.c5.jpg'
p280
I2
sS'daytimex_1243198828.Mon.May.25_07_00_28.AEST.2009.narrabn.c5.gamma.jpg'
p281
I1
sS'daytimex_1152565228.Tue.Jul.11_07_00_28.AEST.2006.narrabn.c5.erase.jpg'
p282
I0
sS'daytimex_1278795628.Sun.Jul.11_07_00_28.AEST.2010.narrabn.c5.rot.jpg'
p283
I1
sS'daytimex_1211058028.Sun.May.18_07_00_28.AEST.2008.narrabn.c5.vflip.jpg'
p284
I3
sS'daytimex_1149195628.Fri.Jun.02_07_00_28.AEST.2006.narrabn.c5.rot.jpg'
p285
I0
sS'daytimex_1299358827.Sun.Mar.06_07_00_27.AEST.2011.narrabn.c5.vflip.jpg'
p286
I0
sS'daytimex_1160082028.Fri.Oct.06_07_00_28.AEST.2006.narrabn.c5.hflip.jpg'
p287
I1
sS'daytimex_1237323627.Wed.Mar.18_07_00_27.AEST.2009.narrabn.c5.erase.jpg'
p288
I2
sS'daytimex_1305752427.Thu.May.19_07_00_27.AEST.2011.narrabn.c5.erase.jpg'
p289
I1
sS'daytimex_1137013242.Thu.Jan.12_07_00_42.AEST.2006.narrabn.c5.jpg'
p290
I3
sS'daytimex_1100640044.Wed.Nov.17_07_20_44.AEST.2004.narrabn.c5.hflip.jpg'
p291
I3
sS'daytimex_1141419628.Sat.Mar.04_07_00_28.AEST.2006.narrabn.c5.erase.jpg'
p292
I4
sS'daytimex_1215032428.Thu.Jul.03_07_00_28.AEST.2008.narrabn.c5.vflip.jpg'
p293
I1
sS'daytimex_1285621228.Tue.Sep.28_07_00_28.AEST.2010.narrabn.c5.erase.jpg'
p294
I0
sS'daytimex_1114117228.Fri.Apr.22_07_00_28.AEST.2005.narrabn.c5.gamma.jpg'
p295
I1
sS'daytimex_1189458027.Tue.Sep.11_07_00_27.AEST.2007.narrabn.c5.jpg'
p296
I3
sS'daytimex_1298494828.Thu.Feb.24_07_00_28.AEST.2011.narrabn.c5.jpg'
p297
I4
sS'daytimex_1289422827.Thu.Nov.11_07_00_27.AEST.2010.narrabn.c5.vflip.jpg'
p298
I3
sS'daytimex_1276635628.Wed.Jun.16_07_00_28.AEST.2010.narrabn.c5.rot.jpg'
p299
I2
sS'daytimex_1338670828.Sun.Jun.03_07_00_28.AEST.2012.narrabn.c5.jpg'
p300
I1
sS'daytimex_1344286827.Tue.Aug.07_07_00_27.AEST.2012.narrabn.c5.gamma.jpg'
p301
I2
sS'daytimex_1216587627.Mon.Jul.21_07_00_27.AEST.2008.narrabn.c5.jpg'
p302
I0
sS'daytimex_1362862827.Sun.Mar.10_07_00_27.AEST.2013.narrabn.c5.erase.jpg'
p303
I4
sS'daytimex_1363208427.Thu.Mar.14_07_00_27.AEST.2013.narrabn.c5.hflip.jpg'
p304
I4
sS'daytimex_1098739244.Tue.Oct.26_07_20_44.AEST.2004.narrabn.c5.gamma.jpg'
p305
I4
sS'daytimex_1307048427.Fri.Jun.03_07_00_27.AEST.2011.narrabn.c5.hflip.jpg'
p306
I4
sS'daytimex_1211058028.Sun.May.18_07_00_28.AEST.2008.narrabn.c5.gamma.jpg'
p307
I3
sS'daytimex_1392930028.Fri.Feb.21_07_00_28.AEST.2014.narrabn.c5.hflip.jpg'
p308
I2
sS'daytimex_1098825644.Wed.Oct.27_07_20_44.AEST.2004.narrabn.c5.erase.jpg'
p309
I4
sS'daytimex_1178571627.Tue.May.08_07_00_27.AEST.2007.narrabn.c5.erase.jpg'
p310
I0
sS'daytimex_1364763627.Mon.Apr.01_07_00_27.AEST.2013.narrabn.c5.gamma.jpg'
p311
I4
sS'daytimex_1132088427.Wed.Nov.16_07_00_27.AEST.2005.narrabn.c5.gamma.jpg'
p312
I2
sS'daytimex_1233003628.Tue.Jan.27_07_00_28.AEST.2009.narrabn.c5.vflip.jpg'
p313
I2
sS'daytimex_1364072427.Sun.Mar.24_07_00_27.AEST.2013.narrabn.c5.erase.jpg'
p314
I4
sS'daytimex_1179262828.Wed.May.16_07_00_28.AEST.2007.narrabn.c5.rot.jpg'
p315
I0
sS'daytimex_1093641644.Sat.Aug.28_07_20_44.AEST.2004.narrabn.c5.jpg'
p316
I2
sS'daytimex_1158613228.Tue.Sep.19_07_00_28.AEST.2006.narrabn.c5.rot.jpg'
p317
I2
sS'daytimex_1336770028.Sat.May.12_07_00_28.AEST.2012.narrabn.c5.rot.jpg'
p318
I2
sS'daytimex_1253394027.Sun.Sep.20_07_00_27.AEST.2009.narrabn.c5.vflip.jpg'
p319
I1
sS'daytimex_1258837227.Sun.Nov.22_07_00_27.AEST.2009.narrabn.c5.vflip.jpg'
p320
I4
sS'daytimex_1421803807.Wed.Jan.21_11_30_07.AEST.2015.narrabn.c5.erase.jpg'
p321
I1
sS'daytimex_1386536428.Mon.Dec.09_07_00_28.AEST.2013.narrabn.c5.hflip.jpg'
p322
I2
sS'daytimex_1271278827.Thu.Apr.15_07_00_27.AEST.2010.narrabn.c5.erase.jpg'
p323
I1
sS'daytimex_1199912427.Thu.Jan.10_07_00_27.AEST.2008.narrabn.c5.jpg'
p324
I4
sS'daytimex_1218315628.Sun.Aug.10_07_00_28.AEST.2008.narrabn.c5.hflip.jpg'
p325
I0
sS'daytimex_1391115627.Fri.Jan.31_07_00_27.AEST.2014.narrabn.c5.hflip.jpg'
p326
I0
sS'daytimex_1098566444.Sun.Oct.24_07_20_44.AEST.2004.narrabn.c5.vflip.jpg'
p327
I4
sS'daytimex_1397077227.Thu.Apr.10_07_00_27.AEST.2014.narrabn.c5.jpg'
p328
I1
sS'daytimex_1103403628.Sun.Dec.19_07_00_28.AEST.2004.narrabn.c5.vflip.jpg'
p329
I3
sS'daytimex_1133470828.Fri.Dec.02_07_00_28.AEST.2005.narrabn.c5.hflip.jpg'
p330
I3
sS'daytimex_1102453228.Wed.Dec.08_07_00_28.AEST.2004.narrabn.c5.erase.jpg'
p331
I4
sS'daytimex_1098739244.Tue.Oct.26_07_20_44.AEST.2004.narrabn.c5.hflip.jpg'
p332
I4
sS'daytimex_1159822828.Tue.Oct.03_07_00_28.AEST.2006.narrabn.c5.jpg'
p333
I2
sS'daytimex_1377205228.Fri.Aug.23_07_00_28.AEST.2013.narrabn.c5.erase.jpg'
p334
I0
sS'daytimex_1365454827.Tue.Apr.09_07_00_27.AEST.2013.narrabn.c5.erase.jpg'
p335
I4
sS'daytimex_1104526828.Sat.Jan.01_07_00_28.AEST.2005.narrabn.c5.vflip.jpg'
p336
I2
sS'daytimex_1100553644.Tue.Nov.16_07_20_44.AEST.2004.narrabn.c5.erase.jpg'
p337
I2
sS'daytimex_1285448428.Sun.Sep.26_07_00_28.AEST.2010.narrabn.c5.gamma.jpg'
p338
I1
sS'daytimex_1266267628.Tue.Feb.16_07_00_28.AEST.2010.narrabn.c5.gamma.jpg'
p339
I2
sS'daytimex_1232658027.Fri.Jan.23_07_00_27.AEST.2009.narrabn.c5.jpg'
p340
I3
sS'daytimex_1095456045.Sat.Sep.18_07_20_45.AEST.2004.narrabn.c5.erase.jpg'
p341
I1
sS'daytimex_1179262828.Wed.May.16_07_00_28.AEST.2007.narrabn.c5.gamma.jpg'
p342
I0
sS'daytimex_1219179627.Wed.Aug.20_07_00_27.AEST.2008.narrabn.c5.vflip.jpg'
p343
I2
sS'daytimex_1262379627.Sat.Jan.02_07_00_27.AEST.2010.narrabn.c5.jpg'
p344
I3
sS'daytimex_1362776427.Sat.Mar.09_07_00_27.AEST.2013.narrabn.c5.vflip.jpg'
p345
I0
sS'daytimex_1202331628.Thu.Feb.07_07_00_28.AEST.2008.narrabn.c5.erase.jpg'
p346
I4
sS'daytimex_1365282027.Sun.Apr.07_07_00_27.AEST.2013.narrabn.c5.rot.jpg'
p347
I0
sS'daytimex_1106600428.Tue.Jan.25_07_00_28.AEST.2005.narrabn.c5.erase.jpg'
p348
I2
sS'daytimex_1407358807.Thu.Aug.07_07_00_07.AEST.2014.narrabn.c5.rot.jpg'
p349
I1
sS'daytimex_1246654827.Sat.Jul.04_07_00_27.AEST.2009.narrabn.c5.rot.jpg'
p350
I2
sS'daytimex_1321045227.Sat.Nov.12_07_00_27.AEST.2011.narrabn.c5.rot.jpg'
p351
I1
sS'daytimex_1118523628.Sun.Jun.12_07_00_28.AEST.2005.narrabn.c5.jpg'
p352
I2
sS'daytimex_1258837227.Sun.Nov.22_07_00_27.AEST.2009.narrabn.c5.erase.jpg'
p353
I4
sS'daytimex_1383166828.Thu.Oct.31_07_00_28.AEST.2013.narrabn.c5.hflip.jpg'
p354
I2
sS'daytimex_1386536428.Mon.Dec.09_07_00_28.AEST.2013.narrabn.c5.jpg'
p355
I2
sS'daytimex_1176584427.Sun.Apr.15_07_00_27.AEST.2007.narrabn.c5.erase.jpg'
p356
I1
sS'daytimex_1276635628.Wed.Jun.16_07_00_28.AEST.2010.narrabn.c5.erase.jpg'
p357
I2
sS'daytimex_1363208427.Thu.Mar.14_07_00_27.AEST.2013.narrabn.c5.jpg'
p358
I4
sS'daytimex_1337288428.Fri.May.18_07_00_28.AEST.2012.narrabn.c5.hflip.jpg'
p359
I3
sS'daytimex_1141506027.Sun.Mar.05_07_00_27.AEST.2006.narrabn.c5.gamma.jpg'
p360
I4
sS'daytimex_1095456045.Sat.Sep.18_07_20_45.AEST.2004.narrabn.c5.rot.jpg'
p361
I1
sS'daytimex_1390078828.Sun.Jan.19_07_00_28.AEST.2014.narrabn.c5.vflip.jpg'
p362
I4
sS'daytimex_1364245227.Tue.Mar.26_07_00_27.AEST.2013.narrabn.c5.jpg'
p363
I3
sS'daytimex_1280523628.Sat.Jul.31_07_00_28.AEST.2010.narrabn.c5.erase.jpg'
p364
I0
sS'daytimex_1352667627.Mon.Nov.12_07_00_27.AEST.2012.narrabn.c5.hflip.jpg'
p365
I2
sS'daytimex_1168981228.Wed.Jan.17_07_00_28.AEST.2007.narrabn.c5.vflip.jpg'
p366
I3
sS'daytimex_1363899627.Fri.Mar.22_07_00_27.AEST.2013.narrabn.c5.rot.jpg'
p367
I4
sS'daytimex_1098566444.Sun.Oct.24_07_20_44.AEST.2004.narrabn.c5.rot.jpg'
p368
I4
sS'daytimex_1220043628.Sat.Aug.30_07_00_28.AEST.2008.narrabn.c5.gamma.jpg'
p369
I1
sS'daytimex_1366837226.Thu.Apr.25_07_00_26.AEST.2013.narrabn.c5.hflip.jpg'
p370
I4
sS'daytimex_1200949228.Tue.Jan.22_07_00_28.AEST.2008.narrabn.c5.vflip.jpg'
p371
I2
sS'daytimex_1311627628.Tue.Jul.26_07_00_28.AEST.2011.narrabn.c5.erase.jpg'
p372
I3
sS'daytimex_1335128427.Mon.Apr.23_07_00_27.AEST.2012.narrabn.c5.vflip.jpg'
p373
I3
sS'daytimex_1239138028.Wed.Apr.08_07_00_28.AEST.2009.narrabn.c5.hflip.jpg'
p374
I3
sS'daytimex_1158613228.Tue.Sep.19_07_00_28.AEST.2006.narrabn.c5.vflip.jpg'
p375
I2
sS'daytimex_1098739244.Tue.Oct.26_07_20_44.AEST.2004.narrabn.c5.vflip.jpg'
p376
I4
sS'daytimex_1200258027.Mon.Jan.14_07_00_27.AEST.2008.narrabn.c5.vflip.jpg'
p377
I4
sS'daytimex_1366664426.Tue.Apr.23_07_00_26.AEST.2013.narrabn.c5.jpg'
p378
I3
sS'daytimex_1263070827.Sun.Jan.10_07_00_27.AEST.2010.narrabn.c5.vflip.jpg'
p379
I2
sS'daytimex_1296421228.Mon.Jan.31_07_00_28.AEST.2011.narrabn.c5.jpg'
p380
I1
sS'daytimex_1244235628.Sat.Jun.06_07_00_28.AEST.2009.narrabn.c5.erase.jpg'
p381
I0
sS'daytimex_1110315628.Wed.Mar.09_07_00_28.AEST.2005.narrabn.c5.jpg'
p382
I1
sS'daytimex_1200258027.Mon.Jan.14_07_00_27.AEST.2008.narrabn.c5.rot.jpg'
p383
I4
sS'daytimex_1364245227.Tue.Mar.26_07_00_27.AEST.2013.narrabn.c5.gamma.jpg'
p384
I3
sS'daytimex_1183410028.Tue.Jul.03_07_00_28.AEST.2007.narrabn.c5.jpg'
p385
I0
sS'daytimex_1123362028.Sun.Aug.07_07_00_28.AEST.2005.narrabn.c5.gamma.jpg'
p386
I3
sS'daytimex_1105131627.Sat.Jan.08_07_00_27.AEST.2005.narrabn.c5.rot.jpg'
p387
I3
sS'daytimex_1271624427.Mon.Apr.19_07_00_27.AEST.2010.narrabn.c5.rot.jpg'
p388
I0
sS'daytimex_1321822828.Mon.Nov.21_07_00_28.AEST.2011.narrabn.c5.rot.jpg'
p389
I0
sS'daytimex_1367269226.Tue.Apr.30_07_00_26.AEST.2013.narrabn.c5.erase.jpg'
p390
I0
sS'daytimex_1364158827.Mon.Mar.25_07_00_27.AEST.2013.narrabn.c5.gamma.jpg'
p391
I4
sS'daytimex_1160082028.Fri.Oct.06_07_00_28.AEST.2006.narrabn.c5.erase.jpg'
p392
I1
sS'daytimex_1282856427.Fri.Aug.27_07_00_27.AEST.2010.narrabn.c5.vflip.jpg'
p393
I2
sS'daytimex_1272056427.Sat.Apr.24_07_00_27.AEST.2010.narrabn.c5.jpg'
p394
I0
sS'daytimex_1344805229.Mon.Aug.13_07_00_29.AEST.2012.narrabn.c5.vflip.jpg'
p395
I3
sS'daytimex_1129755628.Thu.Oct.20_07_00_28.AEST.2005.narrabn.c5.gamma.jpg'
p396
I4
sS'daytimex_1297630827.Mon.Feb.14_07_00_27.AEST.2011.narrabn.c5.erase.jpg'
p397
I2
sS'daytimex_1130878828.Wed.Nov.02_07_00_28.AEST.2005.narrabn.c5.vflip.jpg'
p398
I3
sS'daytimex_1172955628.Sun.Mar.04_07_00_28.AEST.2007.narrabn.c5.vflip.jpg'
p399
I3
sS'daytimex_1132088427.Wed.Nov.16_07_00_27.AEST.2005.narrabn.c5.jpg'
p400
I2
sS'daytimex_1107032427.Sun.Jan.30_07_00_27.AEST.2005.narrabn.c5.rot.jpg'
p401
I3
sS'daytimex_1160168427.Sat.Oct.07_07_00_27.AEST.2006.narrabn.c5.hflip.jpg'
p402
I1
sS'daytimex_1285448428.Sun.Sep.26_07_00_28.AEST.2010.narrabn.c5.hflip.jpg'
p403
I1
sS'daytimex_1379624427.Fri.Sep.20_07_00_27.AEST.2013.narrabn.c5.rot.jpg'
p404
I4
sS'daytimex_1286485227.Fri.Oct.08_07_00_27.AEST.2010.narrabn.c5.rot.jpg'
p405
I2
sS'daytimex_1132261228.Fri.Nov.18_07_00_28.AEST.2005.narrabn.c5.jpg'
p406
I3
sS'daytimex_1114722027.Fri.Apr.29_07_00_27.AEST.2005.narrabn.c5.jpg'
p407
I0
sS'daytimex_1210280428.Fri.May.09_07_00_28.AEST.2008.narrabn.c5.erase.jpg'
p408
I1
sS'daytimex_1152478828.Mon.Jul.10_07_00_28.AEST.2006.narrabn.c5.gamma.jpg'
p409
I0
sS'daytimex_1313614827.Thu.Aug.18_07_00_27.AEST.2011.narrabn.c5.rot.jpg'
p410
I2
sS'daytimex_1375736428.Tue.Aug.06_07_00_28.AEST.2013.narrabn.c5.erase.jpg'
p411
I2
sS'daytimex_1300482028.Sat.Mar.19_07_00_28.AEST.2011.narrabn.c5.hflip.jpg'
p412
I1
sS'daytimex_1362603627.Thu.Mar.07_07_00_27.AEST.2013.narrabn.c5.hflip.jpg'
p413
I0
sS'daytimex_1178571627.Tue.May.08_07_00_27.AEST.2007.narrabn.c5.vflip.jpg'
p414
I0
sS'daytimex_1193346027.Fri.Oct.26_07_00_27.AEST.2007.narrabn.c5.rot.jpg'
p415
I1
sS'daytimex_1296248427.Sat.Jan.29_07_00_27.AEST.2011.narrabn.c5.hflip.jpg'
p416
I2
sS'daytimex_1132347628.Sat.Nov.19_07_00_28.AEST.2005.narrabn.c5.vflip.jpg'
p417
I2
sS'daytimex_1252270827.Mon.Sep.07_07_00_27.AEST.2009.narrabn.c5.rot.jpg'
p418
I4
sS'daytimex_1110229228.Tue.Mar.08_07_00_28.AEST.2005.narrabn.c5.hflip.jpg'
p419
I2
sS'daytimex_1322600427.Wed.Nov.30_07_00_27.AEST.2011.narrabn.c5.jpg'
p420
I4
sS'daytimex_1103403628.Sun.Dec.19_07_00_28.AEST.2004.narrabn.c5.jpg'
p421
I3
sS'daytimex_1382302828.Mon.Oct.21_07_00_28.AEST.2013.narrabn.c5.vflip.jpg'
p422
I2
sS'daytimex_1114203627.Sat.Apr.23_07_00_27.AEST.2005.narrabn.c5.hflip.jpg'
p423
I1
sS'daytimex_1159909227.Wed.Oct.04_07_00_27.AEST.2006.narrabn.c5.jpg'
p424
I2
sS'daytimex_1269550828.Fri.Mar.26_07_00_28.AEST.2010.narrabn.c5.rot.jpg'
p425
I1
sS'daytimex_1162674028.Sun.Nov.05_07_00_28.AEST.2006.narrabn.c5.erase.jpg'
p426
I3
sS'daytimex_1307048427.Fri.Jun.03_07_00_27.AEST.2011.narrabn.c5.gamma.jpg'
p427
I4
sS'daytimex_1200430827.Wed.Jan.16_07_00_27.AEST.2008.narrabn.c5.rot.jpg'
p428
I3
sS'daytimex_1231016428.Sun.Jan.04_07_00_28.AEST.2009.narrabn.c5.jpg'
p429
I3
sS'daytimex_1348779627.Fri.Sep.28_07_00_27.AEST.2012.narrabn.c5.hflip.jpg'
p430
I2
sS'daytimex_1244581228.Wed.Jun.10_07_00_28.AEST.2009.narrabn.c5.gamma.jpg'
p431
I0
sS'daytimex_1331499627.Mon.Mar.12_07_00_27.AEST.2012.narrabn.c5.hflip.jpg'
p432
I2
sS'daytimex_1290459628.Tue.Nov.23_07_00_28.AEST.2010.narrabn.c5.hflip.jpg'
p433
I2
sS'daytimex_1115154028.Wed.May.04_07_00_28.AEST.2005.narrabn.c5.gamma.jpg'
p434
I1
sS'daytimex_1346533227.Sun.Sep.02_07_00_27.AEST.2012.narrabn.c5.hflip.jpg'
p435
I2
sS'daytimex_1230757227.Thu.Jan.01_07_00_27.AEST.2009.narrabn.c5.vflip.jpg'
p436
I2
sS'daytimex_1230152428.Thu.Dec.25_07_00_28.AEST.2008.narrabn.c5.erase.jpg'
p437
I3
sS'daytimex_1396386028.Wed.Apr.02_07_00_28.AEST.2014.narrabn.c5.jpg'
p438
I1
sS'daytimex_1338670828.Sun.Jun.03_07_00_28.AEST.2012.narrabn.c5.gamma.jpg'
p439
I1
sS'daytimex_1179262828.Wed.May.16_07_00_28.AEST.2007.narrabn.c5.jpg'
p440
I0
sS'daytimex_1192482027.Tue.Oct.16_07_00_27.AEST.2007.narrabn.c5.hflip.jpg'
p441
I1
sS'daytimex_1389992427.Sat.Jan.18_07_00_27.AEST.2014.narrabn.c5.jpg'
p442
I3
sS'daytimex_1105131627.Sat.Jan.08_07_00_27.AEST.2005.narrabn.c5.erase.jpg'
p443
I3
sS'daytimex_1238360427.Mon.Mar.30_07_00_27.AEST.2009.narrabn.c5.vflip.jpg'
p444
I4
sS'daytimex_1358283627.Wed.Jan.16_07_00_27.AEST.2013.narrabn.c5.rot.jpg'
p445
I1
sS'daytimex_1278795628.Sun.Jul.11_07_00_28.AEST.2010.narrabn.c5.hflip.jpg'
p446
I1
sS'daytimex_1289422827.Thu.Nov.11_07_00_27.AEST.2010.narrabn.c5.erase.jpg'
p447
I3
sS'daytimex_1160168427.Sat.Oct.07_07_00_27.AEST.2006.narrabn.c5.vflip.jpg'
p448
I1
sS'daytimex_1421803807.Wed.Jan.21_11_30_07.AEST.2015.narrabn.c5.rot.jpg'
p449
I1
sS'daytimex_1244840427.Sat.Jun.13_07_00_27.AEST.2009.narrabn.c5.jpg'
p450
I0
sS'daytimex_1216328427.Fri.Jul.18_07_00_27.AEST.2008.narrabn.c5.jpg'
p451
I0
sS'daytimex_1285448428.Sun.Sep.26_07_00_28.AEST.2010.narrabn.c5.vflip.jpg'
p452
I1
sS'daytimex_1110920428.Wed.Mar.16_07_00_28.AEST.2005.narrabn.c5.vflip.jpg'
p453
I4
sS'daytimex_1232744428.Sat.Jan.24_07_00_28.AEST.2009.narrabn.c5.jpg'
p454
I3
sS'daytimex_1160168427.Sat.Oct.07_07_00_27.AEST.2006.narrabn.c5.jpg'
p455
I1
sS'daytimex_1133470828.Fri.Dec.02_07_00_28.AEST.2005.narrabn.c5.erase.jpg'
p456
I3
sS'daytimex_1144616428.Mon.Apr.10_07_00_28.AEST.2006.narrabn.c5.vflip.jpg'
p457
I4
sS'daytimex_1178226028.Fri.May.04_07_00_28.AEST.2007.narrabn.c5.hflip.jpg'
p458
I0
sS'daytimex_1337288428.Fri.May.18_07_00_28.AEST.2012.narrabn.c5.jpg'
p459
I3
sS'daytimex_1129842028.Fri.Oct.21_07_00_28.AEST.2005.narrabn.c5.vflip.jpg'
p460
I4
sS'daytimex_1206046827.Fri.Mar.21_07_00_27.AEST.2008.narrabn.c5.jpg'
p461
I1
sS'daytimex_1102885227.Mon.Dec.13_07_00_27.AEST.2004.narrabn.c5.gamma.jpg'
p462
I3
sS'daytimex_1174338027.Tue.Mar.20_07_00_27.AEST.2007.narrabn.c5.jpg'
p463
I0
sS'daytimex_1271624427.Mon.Apr.19_07_00_27.AEST.2010.narrabn.c5.vflip.jpg'
p464
I0
sS'daytimex_1180904428.Mon.Jun.04_07_00_28.AEST.2007.narrabn.c5.jpg'
p465
I0
sS'daytimex_1110229228.Tue.Mar.08_07_00_28.AEST.2005.narrabn.c5.erase.jpg'
p466
I2
sS'daytimex_1123362028.Sun.Aug.07_07_00_28.AEST.2005.narrabn.c5.rot.jpg'
p467
I3
sS'daytimex_1129928428.Sat.Oct.22_07_00_28.AEST.2005.narrabn.c5.rot.jpg'
p468
I0
sS'daytimex_1264194027.Sat.Jan.23_07_00_27.AEST.2010.narrabn.c5.gamma.jpg'
p469
I1
sS'daytimex_1390165228.Mon.Jan.20_07_00_28.AEST.2014.narrabn.c5.jpg'
p470
I4
sS'daytimex_1396386028.Wed.Apr.02_07_00_28.AEST.2014.narrabn.c5.erase.jpg'
p471
I1
sS'daytimex_1168808428.Mon.Jan.15_07_00_28.AEST.2007.narrabn.c5.vflip.jpg'
p472
I3
sS'daytimex_1367096427.Sun.Apr.28_07_00_27.AEST.2013.narrabn.c5.hflip.jpg'
p473
I0
sS'daytimex_1102453228.Wed.Dec.08_07_00_28.AEST.2004.narrabn.c5.gamma.jpg'
p474
I4
sS'daytimex_1425850207.Mon.Mar.09_07_30_07.AEST.2015.narrabn.c5.erase.jpg'
p475
I3
sS'daytimex_1277240427.Wed.Jun.23_07_00_27.AEST.2010.narrabn.c5.rot.jpg'
p476
I2
sS'daytimex_1415221206.Thu.Nov.06_07_00_06.AEST.2014.narrabn.c5.jpg'
p477
I4
sS'daytimex_1199998828.Fri.Jan.11_07_00_28.AEST.2008.narrabn.c5.gamma.jpg'
p478
I4
sS'daytimex_1355432427.Fri.Dec.14_07_00_27.AEST.2012.narrabn.c5.erase.jpg'
p479
I3
sS'daytimex_1098652844.Mon.Oct.25_07_20_44.AEST.2004.narrabn.c5.jpg'
p480
I4
sS'daytimex_1305579627.Tue.May.17_07_00_27.AEST.2011.narrabn.c5.rot.jpg'
p481
I1
sS'daytimex_1356123626.Sat.Dec.22_07_00_26.AEST.2012.narrabn.c5.jpg'
p482
I2
sS'daytimex_1096492844.Thu.Sep.30_07_20_44.AEST.2004.narrabn.c5.erase.jpg'
p483
I1
sS'daytimex_1257195628.Tue.Nov.03_07_00_28.AEST.2009.narrabn.c5.hflip.jpg'
p484
I2
sS'daytimex_1110920428.Wed.Mar.16_07_00_28.AEST.2005.narrabn.c5.rot.jpg'
p485
I4
sS'daytimex_1133470828.Fri.Dec.02_07_00_28.AEST.2005.narrabn.c5.gamma.jpg'
p486
I3
sS'daytimex_1253394027.Sun.Sep.20_07_00_27.AEST.2009.narrabn.c5.erase.jpg'
p487
I1
sS'daytimex_1368478827.Tue.May.14_07_00_27.AEST.2013.narrabn.c5.hflip.jpg'
p488
I2
sS'daytimex_1396386028.Wed.Apr.02_07_00_28.AEST.2014.narrabn.c5.gamma.jpg'
p489
I1
sS'daytimex_1110661227.Sun.Mar.13_07_00_27.AEST.2005.narrabn.c5.jpg'
p490
I1
sS'daytimex_1161205227.Thu.Oct.19_07_00_27.AEST.2006.narrabn.c5.erase.jpg'
p491
I4
sS'daytimex_1098652844.Mon.Oct.25_07_20_44.AEST.2004.narrabn.c5.gamma.jpg'
p492
I4
sS'daytimex_1192136427.Fri.Oct.12_07_00_27.AEST.2007.narrabn.c5.erase.jpg'
p493
I1
sS'daytimex_1096492844.Thu.Sep.30_07_20_44.AEST.2004.narrabn.c5.jpg'
p494
I1
sS'daytimex_1169413228.Mon.Jan.22_07_00_28.AEST.2007.narrabn.c5.gamma.jpg'
p495
I4
sS'daytimex_1376859628.Mon.Aug.19_07_00_28.AEST.2013.narrabn.c5.jpg'
p496
I2
sS'daytimex_1194901228.Tue.Nov.13_07_00_28.AEST.2007.narrabn.c5.erase.jpg'
p497
I2
sS'daytimex_1168981228.Wed.Jan.17_07_00_28.AEST.2007.narrabn.c5.erase.jpg'
p498
I3
sS'daytimex_1359579627.Thu.Jan.31_07_00_27.AEST.2013.narrabn.c5.gamma.jpg'
p499
I4
sS'daytimex_1129842028.Fri.Oct.21_07_00_28.AEST.2005.narrabn.c5.jpg'
p500
I4
sS'daytimex_1366664426.Tue.Apr.23_07_00_26.AEST.2013.narrabn.c5.vflip.jpg'
p501
I3
sS'daytimex_1176584427.Sun.Apr.15_07_00_27.AEST.2007.narrabn.c5.vflip.jpg'
p502
I1
sS'daytimex_1170104428.Tue.Jan.30_07_00_28.AEST.2007.narrabn.c5.vflip.jpg'
p503
I2
sS'daytimex_1253394027.Sun.Sep.20_07_00_27.AEST.2009.narrabn.c5.gamma.jpg'
p504
I1
sS'daytimex_1375736428.Tue.Aug.06_07_00_28.AEST.2013.narrabn.c5.gamma.jpg'
p505
I2
sS'daytimex_1169326827.Sun.Jan.21_07_00_27.AEST.2007.narrabn.c5.jpg'
p506
I4
sS'daytimex_1095196845.Wed.Sep.15_07_20_45.AEST.2004.narrabn.c5.jpg'
p507
I1
sS'daytimex_1339448428.Tue.Jun.12_07_00_28.AEST.2012.narrabn.c5.jpg'
p508
I0
sS'daytimex_1262379627.Sat.Jan.02_07_00_27.AEST.2010.narrabn.c5.rot.jpg'
p509
I3
sS'daytimex_1366837226.Thu.Apr.25_07_00_26.AEST.2013.narrabn.c5.rot.jpg'
p510
I4
sS'daytimex_1393880427.Tue.Mar.04_07_00_27.AEST.2014.narrabn.c5.jpg'
p511
I1
sS'daytimex_1366750827.Wed.Apr.24_07_00_27.AEST.2013.narrabn.c5.vflip.jpg'
p512
I3
sS'daytimex_1269291628.Tue.Mar.23_07_00_28.AEST.2010.narrabn.c5.jpg'
p513
I1
sS'daytimex_1113771628.Mon.Apr.18_07_00_28.AEST.2005.narrabn.c5.erase.jpg'
p514
I2
sS'daytimex_1305752427.Thu.May.19_07_00_27.AEST.2011.narrabn.c5.rot.jpg'
p515
I1
sS'daytimex_1184706028.Wed.Jul.18_07_00_28.AEST.2007.narrabn.c5.rot.jpg'
p516
I2
sS'daytimex_1146258028.Sat.Apr.29_07_00_28.AEST.2006.narrabn.c5.erase.jpg'
p517
I4
sS'daytimex_1098912044.Thu.Oct.28_07_20_44.AEST.2004.narrabn.c5.jpg'
p518
I4
sS'daytimex_1352494827.Sat.Nov.10_07_00_27.AEST.2012.narrabn.c5.erase.jpg'
p519
I3
sS'daytimex_1124744428.Tue.Aug.23_07_00_28.AEST.2005.narrabn.c5.gamma.jpg'
p520
I1
sS'daytimex_1172955628.Sun.Mar.04_07_00_28.AEST.2007.narrabn.c5.rot.jpg'
p521
I3
sS'daytimex_1199998828.Fri.Jan.11_07_00_28.AEST.2008.narrabn.c5.jpg'
p522
I4
sS'daytimex_1279141227.Thu.Jul.15_07_00_27.AEST.2010.narrabn.c5.hflip.jpg'
p523
I0
sS'daytimex_1099171245.Sun.Oct.31_07_20_45.AEST.2004.narrabn.c5.vflip.jpg'
p524
I3
sS'daytimex_1168981228.Wed.Jan.17_07_00_28.AEST.2007.narrabn.c5.hflip.jpg'
p525
I3
sS'daytimex_1279141227.Thu.Jul.15_07_00_27.AEST.2010.narrabn.c5.gamma.jpg'
p526
I0
sS'daytimex_1365109227.Fri.Apr.05_07_00_27.AEST.2013.narrabn.c5.erase.jpg'
p527
I4
sS'daytimex_1346533227.Sun.Sep.02_07_00_27.AEST.2012.narrabn.c5.rot.jpg'
p528
I2
sS'daytimex_1363208427.Thu.Mar.14_07_00_27.AEST.2013.narrabn.c5.rot.jpg'
p529
I4
sS'daytimex_1376946027.Tue.Aug.20_07_00_27.AEST.2013.narrabn.c5.jpg'
p530
I1
sS'daytimex_1321822828.Mon.Nov.21_07_00_28.AEST.2011.narrabn.c5.gamma.jpg'
p531
I0
sS'daytimex_1363208427.Thu.Mar.14_07_00_27.AEST.2013.narrabn.c5.erase.jpg'
p532
I4
sS'daytimex_1199998828.Fri.Jan.11_07_00_28.AEST.2008.narrabn.c5.vflip.jpg'
p533
I4
sS'daytimex_1289422827.Thu.Nov.11_07_00_27.AEST.2010.narrabn.c5.rot.jpg'
p534
I3
sS'daytimex_1327179628.Sun.Jan.22_07_00_28.AEST.2012.narrabn.c5.vflip.jpg'
p535
I3
sS'daytimex_1376859628.Mon.Aug.19_07_00_28.AEST.2013.narrabn.c5.vflip.jpg'
p536
I2
sS'daytimex_1363294826.Fri.Mar.15_07_00_26.AEST.2013.narrabn.c5.hflip.jpg'
p537
I4
sS'daytimex_1106600428.Tue.Jan.25_07_00_28.AEST.2005.narrabn.c5.vflip.jpg'
p538
I2
sS'daytimex_1366664426.Tue.Apr.23_07_00_26.AEST.2013.narrabn.c5.gamma.jpg'
p539
I3
sS'daytimex_1367096427.Sun.Apr.28_07_00_27.AEST.2013.narrabn.c5.gamma.jpg'
p540
I0
sS'daytimex_1389992427.Sat.Jan.18_07_00_27.AEST.2014.narrabn.c5.rot.jpg'
p541
I3
sS'daytimex_1425850207.Mon.Mar.09_07_30_07.AEST.2015.narrabn.c5.hflip.jpg'
p542
I3
sS'daytimex_1257195628.Tue.Nov.03_07_00_28.AEST.2009.narrabn.c5.jpg'
p543
I2
sS'daytimex_1269550828.Fri.Mar.26_07_00_28.AEST.2010.narrabn.c5.vflip.jpg'
p544
I1
sS'daytimex_1192482027.Tue.Oct.16_07_00_27.AEST.2007.narrabn.c5.jpg'
p545
I1
sS'daytimex_1160082028.Fri.Oct.06_07_00_28.AEST.2006.narrabn.c5.gamma.jpg'
p546
I1
sS'daytimex_1192136427.Fri.Oct.12_07_00_27.AEST.2007.narrabn.c5.jpg'
p547
I1
sS'daytimex_1299358827.Sun.Mar.06_07_00_27.AEST.2011.narrabn.c5.rot.jpg'
p548
I0
sS'daytimex_1364331627.Wed.Mar.27_07_00_27.AEST.2013.narrabn.c5.hflip.jpg'
p549
I4
sS'daytimex_1263070827.Sun.Jan.10_07_00_27.AEST.2010.narrabn.c5.erase.jpg'
p550
I2
sS'daytimex_1364245227.Tue.Mar.26_07_00_27.AEST.2013.narrabn.c5.hflip.jpg'
p551
I3
sS'daytimex_1309554027.Sat.Jul.02_07_00_27.AEST.2011.narrabn.c5.jpg'
p552
I2
sS'daytimex_1151701228.Sat.Jul.01_07_00_28.AEST.2006.narrabn.c5.erase.jpg'
p553
I0
sS'daytimex_1165611628.Sat.Dec.09_07_00_28.AEST.2006.narrabn.c5.hflip.jpg'
p554
I1
sS'daytimex_1349730027.Tue.Oct.09_07_00_27.AEST.2012.narrabn.c5.vflip.jpg'
p555
I3
sS'daytimex_1366059626.Tue.Apr.16_07_00_26.AEST.2013.narrabn.c5.vflip.jpg'
p556
I4
sS'daytimex_1159909227.Wed.Oct.04_07_00_27.AEST.2006.narrabn.c5.hflip.jpg'
p557
I2
sS'daytimex_1319749225.Fri.Oct.28_07_00_25.AEST.2011.narrabn.c5.jpg'
p558
I3
sS'daytimex_1280350828.Thu.Jul.29_07_00_28.AEST.2010.narrabn.c5.rot.jpg'
p559
I1
sS'daytimex_1098825644.Wed.Oct.27_07_20_44.AEST.2004.narrabn.c5.jpg'
p560
I4
sS'daytimex_1379624427.Fri.Sep.20_07_00_27.AEST.2013.narrabn.c5.gamma.jpg'
p561
I4
sS'daytimex_1199826027.Wed.Jan.09_07_00_27.AEST.2008.narrabn.c5.gamma.jpg'
p562
I4
sS'daytimex_1352494827.Sat.Nov.10_07_00_27.AEST.2012.narrabn.c5.hflip.jpg'
p563
I3
sS'daytimex_1201035627.Wed.Jan.23_07_00_27.AEST.2008.narrabn.c5.jpg'
p564
I2
sS'daytimex_1246654827.Sat.Jul.04_07_00_27.AEST.2009.narrabn.c5.vflip.jpg'
p565
I2
sS'daytimex_1238014828.Thu.Mar.26_07_00_28.AEST.2009.narrabn.c5.gamma.jpg'
p566
I4
sS'daytimex_1303160427.Tue.Apr.19_07_00_27.AEST.2011.narrabn.c5.gamma.jpg'
p567
I1
sS'daytimex_1286485227.Fri.Oct.08_07_00_27.AEST.2010.narrabn.c5.erase.jpg'
p568
I2
sS'daytimex_1244408427.Mon.Jun.08_07_00_27.AEST.2009.narrabn.c5.gamma.jpg'
p569
I0
sS'daytimex_1320699628.Tue.Nov.08_07_00_28.AEST.2011.narrabn.c5.erase.jpg'
p570
I1
sS'daytimex_1132347628.Sat.Nov.19_07_00_28.AEST.2005.narrabn.c5.jpg'
p571
I2
sS'daytimex_1231016428.Sun.Jan.04_07_00_28.AEST.2009.narrabn.c5.gamma.jpg'
p572
I3
sS'daytimex_1170104428.Tue.Jan.30_07_00_28.AEST.2007.narrabn.c5.gamma.jpg'
p573
I2
sS'daytimex_1218747627.Fri.Aug.15_07_00_27.AEST.2008.narrabn.c5.rot.jpg'
p574
I1
sS'daytimex_1376859628.Mon.Aug.19_07_00_28.AEST.2013.narrabn.c5.rot.jpg'
p575
I2
sS'daytimex_1362344426.Mon.Mar.04_07_00_26.AEST.2013.narrabn.c5.jpg'
p576
I0
sS'daytimex_1130446828.Fri.Oct.28_07_00_28.AEST.2005.narrabn.c5.rot.jpg'
p577
I3
sS'daytimex_1321822828.Mon.Nov.21_07_00_28.AEST.2011.narrabn.c5.erase.jpg'
p578
I0
sS'daytimex_1376859628.Mon.Aug.19_07_00_28.AEST.2013.narrabn.c5.gamma.jpg'
p579
I2
sS'daytimex_1168722027.Sun.Jan.14_07_00_27.AEST.2007.narrabn.c5.jpg'
p580
I3
sS'daytimex_1386536428.Mon.Dec.09_07_00_28.AEST.2013.narrabn.c5.gamma.jpg'
p581
I2
sS'daytimex_1313614827.Thu.Aug.18_07_00_27.AEST.2011.narrabn.c5.hflip.jpg'
p582
I2
sS'daytimex_1151614827.Fri.Jun.30_07_00_27.AEST.2006.narrabn.c5.hflip.jpg'
p583
I0
sS'daytimex_1238014828.Thu.Mar.26_07_00_28.AEST.2009.narrabn.c5.hflip.jpg'
p584
I4
sS'daytimex_1355259627.Wed.Dec.12_07_00_27.AEST.2012.narrabn.c5.jpg'
p585
I2
sS'daytimex_1352667627.Mon.Nov.12_07_00_27.AEST.2012.narrabn.c5.vflip.jpg'
p586
I2
sS'daytimex_1194469228.Thu.Nov.08_07_00_28.AEST.2007.narrabn.c5.erase.jpg'
p587
I3
sS'daytimex_1320699628.Tue.Nov.08_07_00_28.AEST.2011.narrabn.c5.gamma.jpg'
p588
I1
sS'daytimex_1244494828.Tue.Jun.09_07_00_28.AEST.2009.narrabn.c5.jpg'
p589
I0
sS'daytimex_1237323627.Wed.Mar.18_07_00_27.AEST.2009.narrabn.c5.vflip.jpg'
p590
I2
sS'daytimex_1392930028.Fri.Feb.21_07_00_28.AEST.2014.narrabn.c5.gamma.jpg'
p591
I2
sS'daytimex_1269032427.Sat.Mar.20_07_00_27.AEST.2010.narrabn.c5.jpg'
p592
I0
sS'daytimex_1216587627.Mon.Jul.21_07_00_27.AEST.2008.narrabn.c5.erase.jpg'
p593
I0
sS'daytimex_1096752044.Sun.Oct.03_07_20_44.AEST.2004.narrabn.c5.erase.jpg'
p594
I4
sS'daytimex_1199998828.Fri.Jan.11_07_00_28.AEST.2008.narrabn.c5.rot.jpg'
p595
I4
sS'daytimex_1210194028.Thu.May.08_07_00_28.AEST.2008.narrabn.c5.erase.jpg'
p596
I1
sS'daytimex_1298062827.Sat.Feb.19_07_00_27.AEST.2011.narrabn.c5.vflip.jpg'
p597
I1
sS'daytimex_1243976428.Wed.Jun.03_07_00_28.AEST.2009.narrabn.c5.jpg'
p598
I0
sS'daytimex_1239138028.Wed.Apr.08_07_00_28.AEST.2009.narrabn.c5.gamma.jpg'
p599
I3
sS'daytimex_1244408427.Mon.Jun.08_07_00_27.AEST.2009.narrabn.c5.vflip.jpg'
p600
I0
sS'daytimex_1199739627.Tue.Jan.08_07_00_27.AEST.2008.narrabn.c5.jpg'
p601
I4
sS'daytimex_1210021227.Tue.May.06_07_00_27.AEST.2008.narrabn.c5.jpg'
p602
I2
sS'daytimex_1115758827.Wed.May.11_07_00_27.AEST.2005.narrabn.c5.rot.jpg'
p603
I0
sS'daytimex_1152738027.Thu.Jul.13_07_00_27.AEST.2006.narrabn.c5.erase.jpg'
p604
I1
sS'daytimex_1158613228.Tue.Sep.19_07_00_28.AEST.2006.narrabn.c5.hflip.jpg'
p605
I2
sS'daytimex_1200085228.Sat.Jan.12_07_00_28.AEST.2008.narrabn.c5.rot.jpg'
p606
I4
sS'daytimex_1115154028.Wed.May.04_07_00_28.AEST.2005.narrabn.c5.erase.jpg'
p607
I1
sS'daytimex_1344805229.Mon.Aug.13_07_00_29.AEST.2012.narrabn.c5.erase.jpg'
p608
I3
sS'daytimex_1285362027.Sat.Sep.25_07_00_27.AEST.2010.narrabn.c5.hflip.jpg'
p609
I1
sS'daytimex_1305579627.Tue.May.17_07_00_27.AEST.2011.narrabn.c5.jpg'
p610
I1
sS'daytimex_1390424427.Thu.Jan.23_07_00_27.AEST.2014.narrabn.c5.rot.jpg'
p611
I2
sS'daytimex_1130878828.Wed.Nov.02_07_00_28.AEST.2005.narrabn.c5.hflip.jpg'
p612
I3
sS'daytimex_1344805229.Mon.Aug.13_07_00_29.AEST.2012.narrabn.c5.gamma.jpg'
p613
I3
sS'daytimex_1189890028.Sun.Sep.16_07_00_28.AEST.2007.narrabn.c5.hflip.jpg'
p614
I3
sS'daytimex_1216587627.Mon.Jul.21_07_00_27.AEST.2008.narrabn.c5.hflip.jpg'
p615
I0
sS'daytimex_1396818028.Mon.Apr.07_07_00_28.AEST.2014.narrabn.c5.gamma.jpg'
p616
I1
sS'daytimex_1244322027.Sun.Jun.07_07_00_27.AEST.2009.narrabn.c5.jpg'
p617
I0
sS'daytimex_1096752044.Sun.Oct.03_07_20_44.AEST.2004.narrabn.c5.hflip.jpg'
p618
I4
sS'daytimex_1094764845.Fri.Sep.10_07_20_45.AEST.2004.narrabn.c5.hflip.jpg'
p619
I3
sS'daytimex_1166994028.Mon.Dec.25_07_00_28.AEST.2006.narrabn.c5.gamma.jpg'
p620
I2
sS'daytimex_1115067628.Tue.May.03_07_00_28.AEST.2005.narrabn.c5.hflip.jpg'
p621
I0
sS'daytimex_1115758827.Wed.May.11_07_00_27.AEST.2005.narrabn.c5.vflip.jpg'
p622
I0
sS'daytimex_1106341227.Sat.Jan.22_07_00_27.AEST.2005.narrabn.c5.gamma.jpg'
p623
I3
sS'daytimex_1280350828.Thu.Jul.29_07_00_28.AEST.2010.narrabn.c5.gamma.jpg'
p624
I1
sS'daytimex_1174424427.Wed.Mar.21_07_00_27.AEST.2007.narrabn.c5.erase.jpg'
p625
I0
sS'daytimex_1382302828.Mon.Oct.21_07_00_28.AEST.2013.narrabn.c5.jpg'
p626
I2
sS'daytimex_1368478827.Tue.May.14_07_00_27.AEST.2013.narrabn.c5.erase.jpg'
p627
I2
sS'daytimex_1169413228.Mon.Jan.22_07_00_28.AEST.2007.narrabn.c5.rot.jpg'
p628
I4
sS'daytimex_1264194027.Sat.Jan.23_07_00_27.AEST.2010.narrabn.c5.hflip.jpg'
p629
I1
sS'daytimex_1238360427.Mon.Mar.30_07_00_27.AEST.2009.narrabn.c5.rot.jpg'
p630
I4
sS'daytimex_1358283627.Wed.Jan.16_07_00_27.AEST.2013.narrabn.c5.hflip.jpg'
p631
I1
sS'daytimex_1391115627.Fri.Jan.31_07_00_27.AEST.2014.narrabn.c5.gamma.jpg'
p632
I0
sS'daytimex_1105304428.Mon.Jan.10_07_00_28.AEST.2005.narrabn.c5.rot.jpg'
p633
I2
sS'daytimex_1263675627.Sun.Jan.17_07_00_27.AEST.2010.narrabn.c5.erase.jpg'
p634
I2
sS'daytimex_1152565228.Tue.Jul.11_07_00_28.AEST.2006.narrabn.c5.vflip.jpg'
p635
I0
sS'daytimex_1266267628.Tue.Feb.16_07_00_28.AEST.2010.narrabn.c5.hflip.jpg'
p636
I2
sS'daytimex_1362344426.Mon.Mar.04_07_00_26.AEST.2013.narrabn.c5.gamma.jpg'
p637
I0
sS'daytimex_1115326827.Fri.May.06_07_00_27.AEST.2005.narrabn.c5.rot.jpg'
p638
I0
sS'daytimex_1352667627.Mon.Nov.12_07_00_27.AEST.2012.narrabn.c5.rot.jpg'
p639
I2
sS'daytimex_1192395627.Mon.Oct.15_07_00_27.AEST.2007.narrabn.c5.jpg'
p640
I1
sS'daytimex_1115758827.Wed.May.11_07_00_27.AEST.2005.narrabn.c5.jpg'
p641
I0
sS'daytimex_1193432428.Sat.Oct.27_07_00_28.AEST.2007.narrabn.c5.jpg'
p642
I1
sS'daytimex_1216414828.Sat.Jul.19_07_00_28.AEST.2008.narrabn.c5.erase.jpg'
p643
I0
sS'daytimex_1363294826.Fri.Mar.15_07_00_26.AEST.2013.narrabn.c5.erase.jpg'
p644
I4
sS'daytimex_1285621228.Tue.Sep.28_07_00_28.AEST.2010.narrabn.c5.rot.jpg'
p645
I0
sS'daytimex_1244494828.Tue.Jun.09_07_00_28.AEST.2009.narrabn.c5.gamma.jpg'
p646
I0
sS'daytimex_1106514027.Mon.Jan.24_07_00_27.AEST.2005.narrabn.c5.gamma.jpg'
p647
I3
sS'daytimex_1366491627.Sun.Apr.21_07_00_27.AEST.2013.narrabn.c5.gamma.jpg'
p648
I4
sS'daytimex_1246309228.Tue.Jun.30_07_00_28.AEST.2009.narrabn.c5.hflip.jpg'
p649
I0
sS'daytimex_1216414828.Sat.Jul.19_07_00_28.AEST.2008.narrabn.c5.rot.jpg'
p650
I0
sS'daytimex_1106600428.Tue.Jan.25_07_00_28.AEST.2005.narrabn.c5.rot.jpg'
p651
I2
sS'daytimex_1271624427.Mon.Apr.19_07_00_27.AEST.2010.narrabn.c5.gamma.jpg'
p652
I0
sS'daytimex_1349730027.Tue.Oct.09_07_00_27.AEST.2012.narrabn.c5.rot.jpg'
p653
I3
sS'daytimex_1344286827.Tue.Aug.07_07_00_27.AEST.2012.narrabn.c5.erase.jpg'
p654
I2
sS'daytimex_1363467627.Sun.Mar.17_07_00_27.AEST.2013.narrabn.c5.erase.jpg'
p655
I4
sS'daytimex_1269550828.Fri.Mar.26_07_00_28.AEST.2010.narrabn.c5.hflip.jpg'
p656
I1
sS'daytimex_1122843628.Mon.Aug.01_07_00_28.AEST.2005.narrabn.c5.rot.jpg'
p657
I0
sS'daytimex_1205960427.Thu.Mar.20_07_00_27.AEST.2008.narrabn.c5.rot.jpg'
p658
I1
sS'daytimex_1102885227.Mon.Dec.13_07_00_27.AEST.2004.narrabn.c5.rot.jpg'
p659
I3
sS'daytimex_1104526828.Sat.Jan.01_07_00_28.AEST.2005.narrabn.c5.jpg'
p660
I2
sS'daytimex_1327093228.Sat.Jan.21_07_00_28.AEST.2012.narrabn.c5.gamma.jpg'
p661
I3
sS'daytimex_1152738027.Thu.Jul.13_07_00_27.AEST.2006.narrabn.c5.jpg'
p662
I1
sS'daytimex_1119733228.Sun.Jun.26_07_00_28.AEST.2005.narrabn.c5.rot.jpg'
p663
I3
sS'daytimex_1165525227.Fri.Dec.08_07_00_27.AEST.2006.narrabn.c5.gamma.jpg'
p664
I0
sS'daytimex_1278795628.Sun.Jul.11_07_00_28.AEST.2010.narrabn.c5.gamma.jpg'
p665
I1
sS'daytimex_1364331627.Wed.Mar.27_07_00_27.AEST.2013.narrabn.c5.rot.jpg'
p666
I4
sS'daytimex_1232485228.Wed.Jan.21_07_00_28.AEST.2009.narrabn.c5.jpg'
p667
I2
sS'daytimex_1177102828.Sat.Apr.21_07_00_28.AEST.2007.narrabn.c5.jpg'
p668
I0
sS'daytimex_1379624427.Fri.Sep.20_07_00_27.AEST.2013.narrabn.c5.vflip.jpg'
p669
I4
sS'daytimex_1383166828.Thu.Oct.31_07_00_28.AEST.2013.narrabn.c5.erase.jpg'
p670
I2
sS'daytimex_1421803807.Wed.Jan.21_11_30_07.AEST.2015.narrabn.c5.gamma.jpg'
p671
I1
sS'daytimex_1257195628.Tue.Nov.03_07_00_28.AEST.2009.narrabn.c5.vflip.jpg'
p672
I2
sS'daytimex_1362862827.Sun.Mar.10_07_00_27.AEST.2013.narrabn.c5.vflip.jpg'
p673
I4
sS'daytimex_1277758827.Tue.Jun.29_07_00_27.AEST.2010.narrabn.c5.vflip.jpg'
p674
I2
sS'daytimex_1194901228.Tue.Nov.13_07_00_28.AEST.2007.narrabn.c5.rot.jpg'
p675
I2
sS'daytimex_1218574827.Wed.Aug.13_07_00_27.AEST.2008.narrabn.c5.erase.jpg'
p676
I0
sS'daytimex_1216587627.Mon.Jul.21_07_00_27.AEST.2008.narrabn.c5.vflip.jpg'
p677
I0
sS'daytimex_1352494827.Sat.Nov.10_07_00_27.AEST.2012.narrabn.c5.vflip.jpg'
p678
I3
sS'daytimex_1297630827.Mon.Feb.14_07_00_27.AEST.2011.narrabn.c5.jpg'
p679
I2
sS'daytimex_1366664426.Tue.Apr.23_07_00_26.AEST.2013.narrabn.c5.rot.jpg'
p680
I3
sS'daytimex_1202331628.Thu.Feb.07_07_00_28.AEST.2008.narrabn.c5.vflip.jpg'
p681
I4
sS'daytimex_1277240427.Wed.Jun.23_07_00_27.AEST.2010.narrabn.c5.vflip.jpg'
p682
I2
sS'daytimex_1115326827.Fri.May.06_07_00_27.AEST.2005.narrabn.c5.erase.jpg'
p683
I0
sS'daytimex_1200258027.Mon.Jan.14_07_00_27.AEST.2008.narrabn.c5.hflip.jpg'
p684
I4
sS'daytimex_1243976428.Wed.Jun.03_07_00_28.AEST.2009.narrabn.c5.hflip.jpg'
p685
I0
sS'daytimex_1303506028.Sat.Apr.23_07_00_28.AEST.2011.narrabn.c5.hflip.jpg'
p686
I0
sS'daytimex_1123362028.Sun.Aug.07_07_00_28.AEST.2005.narrabn.c5.jpg'
p687
I3
sS'daytimex_1358283627.Wed.Jan.16_07_00_27.AEST.2013.narrabn.c5.jpg'
p688
I1
sS'daytimex_1166907628.Sun.Dec.24_07_00_28.AEST.2006.narrabn.c5.erase.jpg'
p689
I3
sS'daytimex_1200949228.Tue.Jan.22_07_00_28.AEST.2008.narrabn.c5.hflip.jpg'
p690
I2
sS'daytimex_1271624427.Mon.Apr.19_07_00_27.AEST.2010.narrabn.c5.jpg'
p691
I0
sS'daytimex_1210366827.Sat.May.10_07_00_27.AEST.2008.narrabn.c5.vflip.jpg'
p692
I1
sS'daytimex_1129928428.Sat.Oct.22_07_00_28.AEST.2005.narrabn.c5.erase.jpg'
p693
I0
sS'daytimex_1275080427.Sat.May.29_07_00_27.AEST.2010.narrabn.c5.vflip.jpg'
p694
I3
sS'daytimex_1367182827.Mon.Apr.29_07_00_27.AEST.2013.narrabn.c5.vflip.jpg'
p695
I0
sS'daytimex_1091568045.Wed.Aug.04_07_20_45.AEST.2004.narrabn.c5.hflip.jpg'
p696
I1
sS'daytimex_1200949228.Tue.Jan.22_07_00_28.AEST.2008.narrabn.c5.gamma.jpg'
p697
I2
sS'daytimex_1192136427.Fri.Oct.12_07_00_27.AEST.2007.narrabn.c5.hflip.jpg'
p698
I1
sS'daytimex_1252270827.Mon.Sep.07_07_00_27.AEST.2009.narrabn.c5.hflip.jpg'
p699
I4
sS'daytimex_1232658027.Fri.Jan.23_07_00_27.AEST.2009.narrabn.c5.rot.jpg'
p700
I3
sS'daytimex_1377205228.Fri.Aug.23_07_00_28.AEST.2013.narrabn.c5.hflip.jpg'
p701
I0
sS'daytimex_1262379627.Sat.Jan.02_07_00_27.AEST.2010.narrabn.c5.gamma.jpg'
p702
I3
sS'daytimex_1102712427.Sat.Dec.11_07_00_27.AEST.2004.narrabn.c5.vflip.jpg'
p703
I4
sS'daytimex_1364418026.Thu.Mar.28_07_00_26.AEST.2013.narrabn.c5.gamma.jpg'
p704
I4
sS'daytimex_1179262828.Wed.May.16_07_00_28.AEST.2007.narrabn.c5.hflip.jpg'
p705
I0
sS'daytimex_1105131627.Sat.Jan.08_07_00_27.AEST.2005.narrabn.c5.gamma.jpg'
p706
I3
sS'daytimex_1181854827.Fri.Jun.15_07_00_27.AEST.2007.narrabn.c5.jpg'
p707
I3
sS'daytimex_1107032427.Sun.Jan.30_07_00_27.AEST.2005.narrabn.c5.hflip.jpg'
p708
I3
sS'daytimex_1252270827.Mon.Sep.07_07_00_27.AEST.2009.narrabn.c5.erase.jpg'
p709
I4
sS'daytimex_1118264428.Thu.Jun.09_07_00_28.AEST.2005.narrabn.c5.rot.jpg'
p710
I2
sS'daytimex_1183410028.Tue.Jul.03_07_00_28.AEST.2007.narrabn.c5.vflip.jpg'
p711
I0
sS'daytimex_1278018028.Fri.Jul.02_07_00_28.AEST.2010.narrabn.c5.hflip.jpg'
p712
I1
sS'daytimex_1230757227.Thu.Jan.01_07_00_27.AEST.2009.narrabn.c5.gamma.jpg'
p713
I2
sS'daytimex_1199912427.Thu.Jan.10_07_00_27.AEST.2008.narrabn.c5.hflip.jpg'
p714
I4
sS'daytimex_1098566444.Sun.Oct.24_07_20_44.AEST.2004.narrabn.c5.erase.jpg'
p715
I4
sS'daytimex_1106341227.Sat.Jan.22_07_00_27.AEST.2005.narrabn.c5.jpg'
p716
I3
sS'daytimex_1212181227.Sat.May.31_07_00_27.AEST.2008.narrabn.c5.jpg'
p717
I0
sS'daytimex_1295643628.Sat.Jan.22_07_00_28.AEST.2011.narrabn.c5.hflip.jpg'
p718
I2
sS'daytimex_1392930028.Fri.Feb.21_07_00_28.AEST.2014.narrabn.c5.rot.jpg'
p719
I2
sS'daytimex_1102626027.Fri.Dec.10_07_00_27.AEST.2004.narrabn.c5.rot.jpg'
p720
I4
sS'daytimex_1095542444.Sun.Sep.19_07_20_44.AEST.2004.narrabn.c5.erase.jpg'
p721
I1
sS'daytimex_1355518826.Sat.Dec.15_07_00_26.AEST.2012.narrabn.c5.jpg'
p722
I3
sS'daytimex_1118437228.Sat.Jun.11_07_00_28.AEST.2005.narrabn.c5.jpg'
p723
I2
sS'daytimex_1395867628.Thu.Mar.27_07_00_28.AEST.2014.narrabn.c5.vflip.jpg'
p724
I1
sS'daytimex_1218920428.Sun.Aug.17_07_00_28.AEST.2008.narrabn.c5.jpg'
p725
I1
sS'daytimex_1161205227.Thu.Oct.19_07_00_27.AEST.2006.narrabn.c5.jpg'
p726
I4
sS'daytimex_1382648427.Fri.Oct.25_07_00_27.AEST.2013.narrabn.c5.jpg'
p727
I2
sS'daytimex_1335128427.Mon.Apr.23_07_00_27.AEST.2012.narrabn.c5.rot.jpg'
p728
I3
sS'daytimex_1369515627.Sun.May.26_07_00_27.AEST.2013.narrabn.c5.jpg'
p729
I2
sS'daytimex_1243976428.Wed.Jun.03_07_00_28.AEST.2009.narrabn.c5.rot.jpg'
p730
I0
sS'daytimex_1366059626.Tue.Apr.16_07_00_26.AEST.2013.narrabn.c5.hflip.jpg'
p731
I4
sS'daytimex_1364590827.Sat.Mar.30_07_00_27.AEST.2013.narrabn.c5.hflip.jpg'
p732
I3
sS'daytimex_1200171628.Sun.Jan.13_07_00_28.AEST.2008.narrabn.c5.jpg'
p733
I4
sS'daytimex_1239138028.Wed.Apr.08_07_00_28.AEST.2009.narrabn.c5.rot.jpg'
p734
I3
sS'daytimex_1141419628.Sat.Mar.04_07_00_28.AEST.2006.narrabn.c5.rot.jpg'
p735
I4
sS'daytimex_1279141227.Thu.Jul.15_07_00_27.AEST.2010.narrabn.c5.erase.jpg'
p736
I0
sS'daytimex_1099171245.Sun.Oct.31_07_20_45.AEST.2004.narrabn.c5.hflip.jpg'
p737
I3
sS'daytimex_1107032427.Sun.Jan.30_07_00_27.AEST.2005.narrabn.c5.vflip.jpg'
p738
I3
sS'daytimex_1164229228.Thu.Nov.23_07_00_28.AEST.2006.narrabn.c5.rot.jpg'
p739
I3
sS'daytimex_1384462828.Fri.Nov.15_07_00_28.AEST.2013.narrabn.c5.hflip.jpg'
p740
I3
sS'daytimex_1206997228.Tue.Apr.01_07_00_28.AEST.2008.narrabn.c5.hflip.jpg'
p741
I0
sS'daytimex_1160082028.Fri.Oct.06_07_00_28.AEST.2006.narrabn.c5.vflip.jpg'
p742
I1
sS'daytimex_1290459628.Tue.Nov.23_07_00_28.AEST.2010.narrabn.c5.jpg'
p743
I2
sS'daytimex_1285362027.Sat.Sep.25_07_00_27.AEST.2010.narrabn.c5.gamma.jpg'
p744
I1
sS'daytimex_1298494828.Thu.Feb.24_07_00_28.AEST.2011.narrabn.c5.erase.jpg'
p745
I4
sS'daytimex_1237323627.Wed.Mar.18_07_00_27.AEST.2009.narrabn.c5.hflip.jpg'
p746
I2
sS'daytimex_1106514027.Mon.Jan.24_07_00_27.AEST.2005.narrabn.c5.hflip.jpg'
p747
I3
sS'daytimex_1232744428.Sat.Jan.24_07_00_28.AEST.2009.narrabn.c5.erase.jpg'
p748
I3
sS'daytimex_1094764845.Fri.Sep.10_07_20_45.AEST.2004.narrabn.c5.erase.jpg'
p749
I3
sS'daytimex_1206997228.Tue.Apr.01_07_00_28.AEST.2008.narrabn.c5.gamma.jpg'
p750
I0
sS'daytimex_1396818028.Mon.Apr.07_07_00_28.AEST.2014.narrabn.c5.hflip.jpg'
p751
I1
sS'daytimex_1362344426.Mon.Mar.04_07_00_26.AEST.2013.narrabn.c5.erase.jpg'
p752
I0
sS'daytimex_1125781227.Sun.Sep.04_07_00_27.AEST.2005.narrabn.c5.erase.jpg'
p753
I3
sS'daytimex_1211058028.Sun.May.18_07_00_28.AEST.2008.narrabn.c5.jpg'
p754
I3
sS'daytimex_1396040427.Sat.Mar.29_07_00_27.AEST.2014.narrabn.c5.rot.jpg'
p755
I1
sS'daytimex_1313182827.Sat.Aug.13_07_00_27.AEST.2011.narrabn.c5.gamma.jpg'
p756
I2
sS'daytimex_1243371628.Wed.May.27_07_00_28.AEST.2009.narrabn.c5.erase.jpg'
p757
I0
sS'daytimex_1105304428.Mon.Jan.10_07_00_28.AEST.2005.narrabn.c5.gamma.jpg'
p758
I2
sS'daytimex_1277845228.Wed.Jun.30_07_00_28.AEST.2010.narrabn.c5.jpg'
p759
I2
sS'daytimex_1367182827.Mon.Apr.29_07_00_27.AEST.2013.narrabn.c5.rot.jpg'
p760
I0
sS'daytimex_1383166828.Thu.Oct.31_07_00_28.AEST.2013.narrabn.c5.gamma.jpg'
p761
I2
sS'daytimex_1124744428.Tue.Aug.23_07_00_28.AEST.2005.narrabn.c5.erase.jpg'
p762
I1
sS'daytimex_1137013242.Thu.Jan.12_07_00_42.AEST.2006.narrabn.c5.erase.jpg'
p763
I3
sS'daytimex_1331499627.Mon.Mar.12_07_00_27.AEST.2012.narrabn.c5.erase.jpg'
p764
I2
sS'daytimex_1243976428.Wed.Jun.03_07_00_28.AEST.2009.narrabn.c5.erase.jpg'
p765
I0
sS'daytimex_1259442028.Sun.Nov.29_07_00_28.AEST.2009.narrabn.c5.jpg'
p766
I3
sS'daytimex_1336770028.Sat.May.12_07_00_28.AEST.2012.narrabn.c5.hflip.jpg'
p767
I2
sS'daytimex_1331499627.Mon.Mar.12_07_00_27.AEST.2012.narrabn.c5.rot.jpg'
p768
I2
sS'daytimex_1144616428.Mon.Apr.10_07_00_28.AEST.2006.narrabn.c5.gamma.jpg'
p769
I4
sS'daytimex_1137186027.Sat.Jan.14_07_00_27.AEST.2006.narrabn.c5.jpg'
p770
I2
sS'daytimex_1199739627.Tue.Jan.08_07_00_27.AEST.2008.narrabn.c5.erase.jpg'
p771
I4
sS'daytimex_1325019628.Wed.Dec.28_07_00_28.AEST.2011.narrabn.c5.jpg'
p772
I4
sS'daytimex_1331499627.Mon.Mar.12_07_00_27.AEST.2012.narrabn.c5.gamma.jpg'
p773
I2
sS'daytimex_1366491627.Sun.Apr.21_07_00_27.AEST.2013.narrabn.c5.jpg'
p774
I4
sS'daytimex_1179522028.Sat.May.19_07_00_28.AEST.2007.narrabn.c5.vflip.jpg'
p775
I0
sS'daytimex_1244322027.Sun.Jun.07_07_00_27.AEST.2009.narrabn.c5.erase.jpg'
p776
I0
sS'daytimex_1184706028.Wed.Jul.18_07_00_28.AEST.2007.narrabn.c5.gamma.jpg'
p777
I2
sS'daytimex_1199653228.Mon.Jan.07_07_00_28.AEST.2008.narrabn.c5.erase.jpg'
p778
I4
sS'daytimex_1396818028.Mon.Apr.07_07_00_28.AEST.2014.narrabn.c5.erase.jpg'
p779
I1
sS'daytimex_1106514027.Mon.Jan.24_07_00_27.AEST.2005.narrabn.c5.erase.jpg'
p780
I3
sS'daytimex_1162674028.Sun.Nov.05_07_00_28.AEST.2006.narrabn.c5.jpg'
p781
I3
sS'daytimex_1207429228.Sun.Apr.06_07_00_28.AEST.2008.narrabn.c5.erase.jpg'
p782
I0
sS'daytimex_1176584427.Sun.Apr.15_07_00_27.AEST.2007.narrabn.c5.jpg'
p783
I1
sS'daytimex_1298926828.Tue.Mar.01_07_00_28.AEST.2011.narrabn.c5.rot.jpg'
p784
I0
sS'daytimex_1178226028.Fri.May.04_07_00_28.AEST.2007.narrabn.c5.jpg'
p785
I0
sS'daytimex_1115154028.Wed.May.04_07_00_28.AEST.2005.narrabn.c5.hflip.jpg'
p786
I1
sS'daytimex_1148331627.Tue.May.23_07_00_27.AEST.2006.narrabn.c5.jpg'
p787
I1
sS'daytimex_1335128427.Mon.Apr.23_07_00_27.AEST.2012.narrabn.c5.gamma.jpg'
p788
I3
sS'daytimex_1132088427.Wed.Nov.16_07_00_27.AEST.2005.narrabn.c5.erase.jpg'
p789
I2
sS'daytimex_1276635628.Wed.Jun.16_07_00_28.AEST.2010.narrabn.c5.vflip.jpg'
p790
I2
sS'daytimex_1205960427.Thu.Mar.20_07_00_27.AEST.2008.narrabn.c5.gamma.jpg'
p791
I1
sS'daytimex_1164488428.Sun.Nov.26_07_00_28.AEST.2006.narrabn.c5.hflip.jpg'
p792
I1
sS'daytimex_1244840427.Sat.Jun.13_07_00_27.AEST.2009.narrabn.c5.hflip.jpg'
p793
I0
sS'daytimex_1327093228.Sat.Jan.21_07_00_28.AEST.2012.narrabn.c5.jpg'
p794
I3
sS'daytimex_1275080427.Sat.May.29_07_00_27.AEST.2010.narrabn.c5.erase.jpg'
p795
I3
sS'daytimex_1382389228.Tue.Oct.22_07_00_28.AEST.2013.narrabn.c5.gamma.jpg'
p796
I3
sS'daytimex_1368478827.Tue.May.14_07_00_27.AEST.2013.narrabn.c5.vflip.jpg'
p797
I2
sS'daytimex_1349730027.Tue.Oct.09_07_00_27.AEST.2012.narrabn.c5.erase.jpg'
p798
I3
sS'daytimex_1216328427.Fri.Jul.18_07_00_27.AEST.2008.narrabn.c5.rot.jpg'
p799
I0
sS'daytimex_1194469228.Thu.Nov.08_07_00_28.AEST.2007.narrabn.c5.vflip.jpg'
p800
I3
sS'daytimex_1115586027.Mon.May.09_07_00_27.AEST.2005.narrabn.c5.vflip.jpg'
p801
I0
sS'daytimex_1099171245.Sun.Oct.31_07_20_45.AEST.2004.narrabn.c5.erase.jpg'
p802
I3
sS'daytimex_1243198828.Mon.May.25_07_00_28.AEST.2009.narrabn.c5.hflip.jpg'
p803
I1
sS'daytimex_1362776427.Sat.Mar.09_07_00_27.AEST.2013.narrabn.c5.hflip.jpg'
p804
I0
sS'daytimex_1344286827.Tue.Aug.07_07_00_27.AEST.2012.narrabn.c5.hflip.jpg'
p805
I2
sS'daytimex_1113598827.Sat.Apr.16_07_00_27.AEST.2005.narrabn.c5.hflip.jpg'
p806
I2
sS'daytimex_1106341227.Sat.Jan.22_07_00_27.AEST.2005.narrabn.c5.erase.jpg'
p807
I3
sS'daytimex_1298062827.Sat.Feb.19_07_00_27.AEST.2011.narrabn.c5.hflip.jpg'
p808
I1
sS'daytimex_1125867628.Mon.Sep.05_07_00_28.AEST.2005.narrabn.c5.jpg'
p809
I3
sS'daytimex_1174683628.Sat.Mar.24_07_00_28.AEST.2007.narrabn.c5.vflip.jpg'
p810
I0
sS'daytimex_1305752427.Thu.May.19_07_00_27.AEST.2011.narrabn.c5.jpg'
p811
I1
sS'daytimex_1174683628.Sat.Mar.24_07_00_28.AEST.2007.narrabn.c5.rot.jpg'
p812
I0
sS'daytimex_1337288428.Fri.May.18_07_00_28.AEST.2012.narrabn.c5.gamma.jpg'
p813
I3
sS'daytimex_1176066028.Mon.Apr.09_07_00_28.AEST.2007.narrabn.c5.hflip.jpg'
p814
I1
sS'daytimex_1244235628.Sat.Jun.06_07_00_28.AEST.2009.narrabn.c5.vflip.jpg'
p815
I0
sS'daytimex_1168981228.Wed.Jan.17_07_00_28.AEST.2007.narrabn.c5.rot.jpg'
p816
I3
sS'daytimex_1223931628.Tue.Oct.14_07_00_28.AEST.2008.narrabn.c5.hflip.jpg'
p817
I3
sS'daytimex_1215032428.Thu.Jul.03_07_00_28.AEST.2008.narrabn.c5.hflip.jpg'
p818
I1
sS'daytimex_1257195628.Tue.Nov.03_07_00_28.AEST.2009.narrabn.c5.erase.jpg'
p819
I2
sS'daytimex_1199307628.Thu.Jan.03_07_00_28.AEST.2008.narrabn.c5.jpg'
p820
I4
sS'daytimex_1362690026.Fri.Mar.08_07_00_26.AEST.2013.narrabn.c5.rot.jpg'
p821
I0
sS'daytimex_1180904428.Mon.Jun.04_07_00_28.AEST.2007.narrabn.c5.gamma.jpg'
p822
I0
sS'daytimex_1252184428.Sun.Sep.06_07_00_28.AEST.2009.narrabn.c5.rot.jpg'
p823
I1
sS'daytimex_1244667628.Thu.Jun.11_07_00_28.AEST.2009.narrabn.c5.hflip.jpg'
p824
I0
sS'daytimex_1365973226.Mon.Apr.15_07_00_26.AEST.2013.narrabn.c5.hflip.jpg'
p825
I4
sS'daytimex_1308430828.Sun.Jun.19_07_00_28.AEST.2011.narrabn.c5.erase.jpg'
p826
I2
sS'daytimex_1305579627.Tue.May.17_07_00_27.AEST.2011.narrabn.c5.vflip.jpg'
p827
I1
sS'daytimex_1104526828.Sat.Jan.01_07_00_28.AEST.2005.narrabn.c5.rot.jpg'
p828
I2
sS'daytimex_1230152428.Thu.Dec.25_07_00_28.AEST.2008.narrabn.c5.gamma.jpg'
p829
I3
sS'daytimex_1122843628.Mon.Aug.01_07_00_28.AEST.2005.narrabn.c5.jpg'
p830
I0
sS'daytimex_1364590827.Sat.Mar.30_07_00_27.AEST.2013.narrabn.c5.vflip.jpg'
p831
I3
sS'daytimex_1272315628.Tue.Apr.27_07_00_28.AEST.2010.narrabn.c5.vflip.jpg'
p832
I0
sS'daytimex_1160168427.Sat.Oct.07_07_00_27.AEST.2006.narrabn.c5.gamma.jpg'
p833
I1
sS'daytimex_1200344428.Tue.Jan.15_07_00_28.AEST.2008.narrabn.c5.jpg'
p834
I3
sS'daytimex_1425850207.Mon.Mar.09_07_30_07.AEST.2015.narrabn.c5.rot.jpg'
p835
I3
sS'daytimex_1363986027.Sat.Mar.23_07_00_27.AEST.2013.narrabn.c5.erase.jpg'
p836
I4
sS'daytimex_1266267628.Tue.Feb.16_07_00_28.AEST.2010.narrabn.c5.vflip.jpg'
p837
I2
sS'daytimex_1290459628.Tue.Nov.23_07_00_28.AEST.2010.narrabn.c5.erase.jpg'
p838
I2
sS'daytimex_1362690026.Fri.Mar.08_07_00_26.AEST.2013.narrabn.c5.gamma.jpg'
p839
I0
sS'daytimex_1199307628.Thu.Jan.03_07_00_28.AEST.2008.narrabn.c5.rot.jpg'
p840
I4
sS'daytimex_1178226028.Fri.May.04_07_00_28.AEST.2007.narrabn.c5.gamma.jpg'
p841
I0
sS'daytimex_1237323627.Wed.Mar.18_07_00_27.AEST.2009.narrabn.c5.rot.jpg'
p842
I2
sS'daytimex_1363899627.Fri.Mar.22_07_00_27.AEST.2013.narrabn.c5.gamma.jpg'
p843
I4
sS'daytimex_1269032427.Sat.Mar.20_07_00_27.AEST.2010.narrabn.c5.hflip.jpg'
p844
I0
sS'daytimex_1146258028.Sat.Apr.29_07_00_28.AEST.2006.narrabn.c5.jpg'
p845
I4
sS'daytimex_1364504427.Fri.Mar.29_07_00_27.AEST.2013.narrabn.c5.vflip.jpg'
p846
I4
sS'daytimex_1297890028.Thu.Feb.17_07_00_28.AEST.2011.narrabn.c5.erase.jpg'
p847
I1
sS'daytimex_1166907628.Sun.Dec.24_07_00_28.AEST.2006.narrabn.c5.vflip.jpg'
p848
I3
sS'daytimex_1390078828.Sun.Jan.19_07_00_28.AEST.2014.narrabn.c5.jpg'
p849
I4
sS'daytimex_1096752044.Sun.Oct.03_07_20_44.AEST.2004.narrabn.c5.gamma.jpg'
p850
I4
sS'daytimex_1210366827.Sat.May.10_07_00_27.AEST.2008.narrabn.c5.hflip.jpg'
p851
I1
sS'daytimex_1207429228.Sun.Apr.06_07_00_28.AEST.2008.narrabn.c5.hflip.jpg'
p852
I0
sS'daytimex_1252184428.Sun.Sep.06_07_00_28.AEST.2009.narrabn.c5.erase.jpg'
p853
I1
sS'daytimex_1100640044.Wed.Nov.17_07_20_44.AEST.2004.narrabn.c5.vflip.jpg'
p854
I3
sS'daytimex_1149195628.Fri.Jun.02_07_00_28.AEST.2006.narrabn.c5.erase.jpg'
p855
I0
sS'daytimex_1297803627.Wed.Feb.16_07_00_27.AEST.2011.narrabn.c5.vflip.jpg'
p856
I1
sS'daytimex_1391115627.Fri.Jan.31_07_00_27.AEST.2014.narrabn.c5.jpg'
p857
I0
sS'daytimex_1313614827.Thu.Aug.18_07_00_27.AEST.2011.narrabn.c5.jpg'
p858
I2
sS'daytimex_1119733228.Sun.Jun.26_07_00_28.AEST.2005.narrabn.c5.erase.jpg'
p859
I3
sS'daytimex_1113598827.Sat.Apr.16_07_00_27.AEST.2005.narrabn.c5.jpg'
p860
I2
sS'daytimex_1164488428.Sun.Nov.26_07_00_28.AEST.2006.narrabn.c5.gamma.jpg'
p861
I1
sS'daytimex_1280350828.Thu.Jul.29_07_00_28.AEST.2010.narrabn.c5.hflip.jpg'
p862
I1
sS'daytimex_1237323627.Wed.Mar.18_07_00_27.AEST.2009.narrabn.c5.gamma.jpg'
p863
I2
sS'daytimex_1193432428.Sat.Oct.27_07_00_28.AEST.2007.narrabn.c5.vflip.jpg'
p864
I1
sS'daytimex_1180213228.Sun.May.27_07_00_28.AEST.2007.narrabn.c5.jpg'
p865
I0
sS'daytimex_1194901228.Tue.Nov.13_07_00_28.AEST.2007.narrabn.c5.vflip.jpg'
p866
I2
sS'daytimex_1152478828.Mon.Jul.10_07_00_28.AEST.2006.narrabn.c5.vflip.jpg'
p867
I0
sS'daytimex_1223931628.Tue.Oct.14_07_00_28.AEST.2008.narrabn.c5.jpg'
p868
I3
sS'daytimex_1365109227.Fri.Apr.05_07_00_27.AEST.2013.narrabn.c5.vflip.jpg'
p869
I4
sS'daytimex_1363035626.Tue.Mar.12_07_00_26.AEST.2013.narrabn.c5.erase.jpg'
p870
I4
sS'daytimex_1407358807.Thu.Aug.07_07_00_07.AEST.2014.narrabn.c5.gamma.jpg'
p871
I1
sS'daytimex_1313182827.Sat.Aug.13_07_00_27.AEST.2011.narrabn.c5.jpg'
p872
I2
sS'daytimex_1103403628.Sun.Dec.19_07_00_28.AEST.2004.narrabn.c5.gamma.jpg'
p873
I3
sS'daytimex_1307134828.Sat.Jun.04_07_00_28.AEST.2011.narrabn.c5.vflip.jpg'
p874
I3
sS'daytimex_1407358807.Thu.Aug.07_07_00_07.AEST.2014.narrabn.c5.jpg'
p875
I1
sS'daytimex_1123362028.Sun.Aug.07_07_00_28.AEST.2005.narrabn.c5.erase.jpg'
p876
I3
sS'daytimex_1121893228.Thu.Jul.21_07_00_28.AEST.2005.narrabn.c5.jpg'
p877
I1
sS'daytimex_1144616428.Mon.Apr.10_07_00_28.AEST.2006.narrabn.c5.rot.jpg'
p878
I4
sS'daytimex_1169326827.Sun.Jan.21_07_00_27.AEST.2007.narrabn.c5.vflip.jpg'
p879
I4
sS'daytimex_1123362028.Sun.Aug.07_07_00_28.AEST.2005.narrabn.c5.hflip.jpg'
p880
I3
sS'daytimex_1389992427.Sat.Jan.18_07_00_27.AEST.2014.narrabn.c5.erase.jpg'
p881
I3
sS'daytimex_1382389228.Tue.Oct.22_07_00_28.AEST.2013.narrabn.c5.vflip.jpg'
p882
I3
sS'daytimex_1105822828.Sun.Jan.16_07_00_28.AEST.2005.narrabn.c5.gamma.jpg'
p883
I4
sS'daytimex_1203886827.Mon.Feb.25_07_00_27.AEST.2008.narrabn.c5.rot.jpg'
p884
I3
sS'daytimex_1304370028.Tue.May.03_07_00_28.AEST.2011.narrabn.c5.erase.jpg'
p885
I4
sS'daytimex_1365454827.Tue.Apr.09_07_00_27.AEST.2013.narrabn.c5.vflip.jpg'
p886
I4
sS'daytimex_1266267628.Tue.Feb.16_07_00_28.AEST.2010.narrabn.c5.rot.jpg'
p887
I2
sS'daytimex_1304715627.Sat.May.07_07_00_27.AEST.2011.narrabn.c5.gamma.jpg'
p888
I2
sS'daytimex_1365282027.Sun.Apr.07_07_00_27.AEST.2013.narrabn.c5.jpg'
p889
I0
sS'daytimex_1115413227.Sat.May.07_07_00_27.AEST.2005.narrabn.c5.hflip.jpg'
p890
I0
sS'daytimex_1362776427.Sat.Mar.09_07_00_27.AEST.2013.narrabn.c5.erase.jpg'
p891
I0
sS'daytimex_1364763627.Mon.Apr.01_07_00_27.AEST.2013.narrabn.c5.vflip.jpg'
p892
I4
sS'daytimex_1355518826.Sat.Dec.15_07_00_26.AEST.2012.narrabn.c5.erase.jpg'
p893
I3
sS'daytimex_1363986027.Sat.Mar.23_07_00_27.AEST.2013.narrabn.c5.rot.jpg'
p894
I4
sS'daytimex_1339448428.Tue.Jun.12_07_00_28.AEST.2012.narrabn.c5.vflip.jpg'
p895
I0
sS'daytimex_1321045227.Sat.Nov.12_07_00_27.AEST.2011.narrabn.c5.hflip.jpg'
p896
I1
sS'daytimex_1165611628.Sat.Dec.09_07_00_28.AEST.2006.narrabn.c5.jpg'
p897
I1
sS'daytimex_1363467627.Sun.Mar.17_07_00_27.AEST.2013.narrabn.c5.hflip.jpg'
p898
I4
sS'daytimex_1152738027.Thu.Jul.13_07_00_27.AEST.2006.narrabn.c5.hflip.jpg'
p899
I1
sS'daytimex_1296248427.Sat.Jan.29_07_00_27.AEST.2011.narrabn.c5.vflip.jpg'
p900
I2
sS'daytimex_1364504427.Fri.Mar.29_07_00_27.AEST.2013.narrabn.c5.rot.jpg'
p901
I4
sS'daytimex_1179435627.Fri.May.18_07_00_27.AEST.2007.narrabn.c5.gamma.jpg'
p902
I1
sS'daytimex_1344805229.Mon.Aug.13_07_00_29.AEST.2012.narrabn.c5.hflip.jpg'
p903
I3
sS'daytimex_1103058027.Wed.Dec.15_07_00_27.AEST.2004.narrabn.c5.jpg'
p904
I3
sS'daytimex_1382302828.Mon.Oct.21_07_00_28.AEST.2013.narrabn.c5.gamma.jpg'
p905
I2
sS'daytimex_1115586027.Mon.May.09_07_00_27.AEST.2005.narrabn.c5.hflip.jpg'
p906
I0
sS'daytimex_1156798828.Tue.Aug.29_07_00_28.AEST.2006.narrabn.c5.gamma.jpg'
p907
I1
sS'daytimex_1305752427.Thu.May.19_07_00_27.AEST.2011.narrabn.c5.gamma.jpg'
p908
I1
sS'daytimex_1148331627.Tue.May.23_07_00_27.AEST.2006.narrabn.c5.gamma.jpg'
p909
I1
sS'daytimex_1365714027.Fri.Apr.12_07_00_27.AEST.2013.narrabn.c5.hflip.jpg'
p910
I4
sS'daytimex_1327093228.Sat.Jan.21_07_00_28.AEST.2012.narrabn.c5.hflip.jpg'
p911
I3
sS'daytimex_1098739244.Tue.Oct.26_07_20_44.AEST.2004.narrabn.c5.erase.jpg'
p912
I4
sS'daytimex_1168981228.Wed.Jan.17_07_00_28.AEST.2007.narrabn.c5.gamma.jpg'
p913
I3
sS'daytimex_1193432428.Sat.Oct.27_07_00_28.AEST.2007.narrabn.c5.rot.jpg'
p914
I1
sS'daytimex_1243198828.Mon.May.25_07_00_28.AEST.2009.narrabn.c5.jpg'
p915
I1
sS'daytimex_1161205227.Thu.Oct.19_07_00_27.AEST.2006.narrabn.c5.vflip.jpg'
p916
I4
sS'daytimex_1396386028.Wed.Apr.02_07_00_28.AEST.2014.narrabn.c5.hflip.jpg'
p917
I1
sS'daytimex_1132261228.Fri.Nov.18_07_00_28.AEST.2005.narrabn.c5.rot.jpg'
p918
I3
sS'daytimex_1246654827.Sat.Jul.04_07_00_27.AEST.2009.narrabn.c5.erase.jpg'
p919
I2
sS'daytimex_1170968427.Fri.Feb.09_07_00_27.AEST.2007.narrabn.c5.vflip.jpg'
p920
I2
sS'daytimex_1383166828.Thu.Oct.31_07_00_28.AEST.2013.narrabn.c5.rot.jpg'
p921
I2
sS'daytimex_1390424427.Thu.Jan.23_07_00_27.AEST.2014.narrabn.c5.gamma.jpg'
p922
I2
sS'daytimex_1364158827.Mon.Mar.25_07_00_27.AEST.2013.narrabn.c5.erase.jpg'
p923
I4
sS'daytimex_1151701228.Sat.Jul.01_07_00_28.AEST.2006.narrabn.c5.hflip.jpg'
p924
I0
sS'daytimex_1320699628.Tue.Nov.08_07_00_28.AEST.2011.narrabn.c5.hflip.jpg'
p925
I1
sS'daytimex_1396040427.Sat.Mar.29_07_00_27.AEST.2014.narrabn.c5.vflip.jpg'
p926
I1
sS'daytimex_1112562027.Mon.Apr.04_07_00_27.AEST.2005.narrabn.c5.gamma.jpg'
p927
I2
sS'daytimex_1223931628.Tue.Oct.14_07_00_28.AEST.2008.narrabn.c5.rot.jpg'
p928
I3
sS'daytimex_1218574827.Wed.Aug.13_07_00_27.AEST.2008.narrabn.c5.vflip.jpg'
p929
I0
sS'daytimex_1244322027.Sun.Jun.07_07_00_27.AEST.2009.narrabn.c5.vflip.jpg'
p930
I0
sS'daytimex_1368478827.Tue.May.14_07_00_27.AEST.2013.narrabn.c5.gamma.jpg'
p931
I2
sS'daytimex_1115413227.Sat.May.07_07_00_27.AEST.2005.narrabn.c5.erase.jpg'
p932
I0
sS'daytimex_1172955628.Sun.Mar.04_07_00_28.AEST.2007.narrabn.c5.erase.jpg'
p933
I3
sS'daytimex_1165525227.Fri.Dec.08_07_00_27.AEST.2006.narrabn.c5.vflip.jpg'
p934
I0
sS'daytimex_1339448428.Tue.Jun.12_07_00_28.AEST.2012.narrabn.c5.rot.jpg'
p935
I0
sS'daytimex_1215032428.Thu.Jul.03_07_00_28.AEST.2008.narrabn.c5.jpg'
p936
I1
sS'daytimex_1364418026.Thu.Mar.28_07_00_26.AEST.2013.narrabn.c5.vflip.jpg'
p937
I4
sS'daytimex_1112562027.Mon.Apr.04_07_00_27.AEST.2005.narrabn.c5.vflip.jpg'
p938
I2
sS'daytimex_1297803627.Wed.Feb.16_07_00_27.AEST.2011.narrabn.c5.jpg'
p939
I1
sS'daytimex_1375736428.Tue.Aug.06_07_00_28.AEST.2013.narrabn.c5.rot.jpg'
p940
I2
sS'daytimex_1177102828.Sat.Apr.21_07_00_28.AEST.2007.narrabn.c5.gamma.jpg'
p941
I0
sS'daytimex_1102885227.Mon.Dec.13_07_00_27.AEST.2004.narrabn.c5.hflip.jpg'
p942
I3
sS'daytimex_1393707627.Sun.Mar.02_07_00_27.AEST.2014.narrabn.c5.hflip.jpg'
p943
I1
sS'daytimex_1200430827.Wed.Jan.16_07_00_27.AEST.2008.narrabn.c5.vflip.jpg'
p944
I3
sS'daytimex_1200171628.Sun.Jan.13_07_00_28.AEST.2008.narrabn.c5.gamma.jpg'
p945
I4
sS'daytimex_1301864427.Mon.Apr.04_07_00_27.AEST.2011.narrabn.c5.gamma.jpg'
p946
I4
sS'daytimex_1349730027.Tue.Oct.09_07_00_27.AEST.2012.narrabn.c5.jpg'
p947
I3
sS'daytimex_1165611628.Sat.Dec.09_07_00_28.AEST.2006.narrabn.c5.erase.jpg'
p948
I1
sS'daytimex_1189458027.Tue.Sep.11_07_00_27.AEST.2007.narrabn.c5.hflip.jpg'
p949
I3
sS'daytimex_1313614827.Thu.Aug.18_07_00_27.AEST.2011.narrabn.c5.erase.jpg'
p950
I2
sS'daytimex_1364158827.Mon.Mar.25_07_00_27.AEST.2013.narrabn.c5.rot.jpg'
p951
I4
sS'daytimex_1363035626.Tue.Mar.12_07_00_26.AEST.2013.narrabn.c5.vflip.jpg'
p952
I4
sS'daytimex_1258837227.Sun.Nov.22_07_00_27.AEST.2009.narrabn.c5.gamma.jpg'
p953
I4
sS'daytimex_1299358827.Sun.Mar.06_07_00_27.AEST.2011.narrabn.c5.hflip.jpg'
p954
I0
sS'daytimex_1095542444.Sun.Sep.19_07_20_44.AEST.2004.narrabn.c5.jpg'
p955
I1
sS'daytimex_1352667627.Mon.Nov.12_07_00_27.AEST.2012.narrabn.c5.erase.jpg'
p956
I2
sS'daytimex_1220043628.Sat.Aug.30_07_00_28.AEST.2008.narrabn.c5.jpg'
p957
I1
sS'daytimex_1119733228.Sun.Jun.26_07_00_28.AEST.2005.narrabn.c5.vflip.jpg'
p958
I3
sS'daytimex_1095456045.Sat.Sep.18_07_20_45.AEST.2004.narrabn.c5.gamma.jpg'
p959
I1
sS'daytimex_1391115627.Fri.Jan.31_07_00_27.AEST.2014.narrabn.c5.erase.jpg'
p960
I0
sS'daytimex_1103058027.Wed.Dec.15_07_00_27.AEST.2004.narrabn.c5.rot.jpg'
p961
I3
sS'daytimex_1269291628.Tue.Mar.23_07_00_28.AEST.2010.narrabn.c5.erase.jpg'
p962
I1
sS'daytimex_1365973226.Mon.Apr.15_07_00_26.AEST.2013.narrabn.c5.vflip.jpg'
p963
I4
sS'daytimex_1210194028.Thu.May.08_07_00_28.AEST.2008.narrabn.c5.rot.jpg'
p964
I1
sS'daytimex_1321822828.Mon.Nov.21_07_00_28.AEST.2011.narrabn.c5.hflip.jpg'
p965
I0
sS'daytimex_1422322207.Tue.Jan.27_11_30_07.AEST.2015.narrabn.c5.vflip.jpg'
p966
I3
sS'daytimex_1376859628.Mon.Aug.19_07_00_28.AEST.2013.narrabn.c5.hflip.jpg'
p967
I2
sS'daytimex_1100640044.Wed.Nov.17_07_20_44.AEST.2004.narrabn.c5.rot.jpg'
p968
I3
sS'daytimex_1238014828.Thu.Mar.26_07_00_28.AEST.2009.narrabn.c5.erase.jpg'
p969
I4
sS'daytimex_1307048427.Fri.Jun.03_07_00_27.AEST.2011.narrabn.c5.vflip.jpg'
p970
I4
sS'daytimex_1364331627.Wed.Mar.27_07_00_27.AEST.2013.narrabn.c5.gamma.jpg'
p971
I4
sS'daytimex_1238014828.Thu.Mar.26_07_00_28.AEST.2009.narrabn.c5.jpg'
p972
I4
sS'daytimex_1365714027.Fri.Apr.12_07_00_27.AEST.2013.narrabn.c5.gamma.jpg'
p973
I4
sS'daytimex_1346533227.Sun.Sep.02_07_00_27.AEST.2012.narrabn.c5.vflip.jpg'
p974
I2
sS'daytimex_1365714027.Fri.Apr.12_07_00_27.AEST.2013.narrabn.c5.rot.jpg'
p975
I4
sS'daytimex_1297890028.Thu.Feb.17_07_00_28.AEST.2011.narrabn.c5.gamma.jpg'
p976
I1
sS'daytimex_1390078828.Sun.Jan.19_07_00_28.AEST.2014.narrabn.c5.rot.jpg'
p977
I4
sS'daytimex_1277845228.Wed.Jun.30_07_00_28.AEST.2010.narrabn.c5.rot.jpg'
p978
I2
sS'daytimex_1407358807.Thu.Aug.07_07_00_07.AEST.2014.narrabn.c5.hflip.jpg'
p979
I1
sS'daytimex_1110920428.Wed.Mar.16_07_00_28.AEST.2005.narrabn.c5.erase.jpg'
p980
I4
sS'daytimex_1301864427.Mon.Apr.04_07_00_27.AEST.2011.narrabn.c5.rot.jpg'
p981
I4
sS'daytimex_1102885227.Mon.Dec.13_07_00_27.AEST.2004.narrabn.c5.vflip.jpg'
p982
I3
sS'daytimex_1110920428.Wed.Mar.16_07_00_28.AEST.2005.narrabn.c5.jpg'
p983
I4
sS'daytimex_1332795628.Tue.Mar.27_07_00_28.AEST.2012.narrabn.c5.rot.jpg'
p984
I2
sS'daytimex_1313182827.Sat.Aug.13_07_00_27.AEST.2011.narrabn.c5.erase.jpg'
p985
I2
sS'daytimex_1246309228.Tue.Jun.30_07_00_28.AEST.2009.narrabn.c5.rot.jpg'
p986
I0
sS'daytimex_1132088427.Wed.Nov.16_07_00_27.AEST.2005.narrabn.c5.rot.jpg'
p987
I2
sS'daytimex_1174424427.Wed.Mar.21_07_00_27.AEST.2007.narrabn.c5.vflip.jpg'
p988
I0
sS'daytimex_1152565228.Tue.Jul.11_07_00_28.AEST.2006.narrabn.c5.rot.jpg'
p989
I0
sS'daytimex_1311627628.Tue.Jul.26_07_00_28.AEST.2011.narrabn.c5.hflip.jpg'
p990
I3
sS'daytimex_1115067628.Tue.May.03_07_00_28.AEST.2005.narrabn.c5.gamma.jpg'
p991
I0
sS'daytimex_1104526828.Sat.Jan.01_07_00_28.AEST.2005.narrabn.c5.hflip.jpg'
p992
I2
sS'daytimex_1210366827.Sat.May.10_07_00_27.AEST.2008.narrabn.c5.gamma.jpg'
p993
I1
sS'daytimex_1219179627.Wed.Aug.20_07_00_27.AEST.2008.narrabn.c5.erase.jpg'
p994
I2
sS'daytimex_1124744428.Tue.Aug.23_07_00_28.AEST.2005.narrabn.c5.jpg'
p995
I1
sS'daytimex_1146258028.Sat.Apr.29_07_00_28.AEST.2006.narrabn.c5.vflip.jpg'
p996
I4
sS'daytimex_1244235628.Sat.Jun.06_07_00_28.AEST.2009.narrabn.c5.rot.jpg'
p997
I0
sS'daytimex_1144702827.Tue.Apr.11_07_00_27.AEST.2006.narrabn.c5.vflip.jpg'
p998
I3
sS'daytimex_1130446828.Fri.Oct.28_07_00_28.AEST.2005.narrabn.c5.gamma.jpg'
p999
I3
sS'daytimex_1396040427.Sat.Mar.29_07_00_27.AEST.2014.narrabn.c5.hflip.jpg'
p1000
I1
sS'daytimex_1179435627.Fri.May.18_07_00_27.AEST.2007.narrabn.c5.erase.jpg'
p1001
I1
sS'daytimex_1230152428.Thu.Dec.25_07_00_28.AEST.2008.narrabn.c5.rot.jpg'
p1002
I3
sS'daytimex_1297630827.Mon.Feb.14_07_00_27.AEST.2011.narrabn.c5.gamma.jpg'
p1003
I2
sS'daytimex_1149195628.Fri.Jun.02_07_00_28.AEST.2006.narrabn.c5.vflip.jpg'
p1004
I0
sS'daytimex_1286485227.Fri.Oct.08_07_00_27.AEST.2010.narrabn.c5.hflip.jpg'
p1005
I2
sS'daytimex_1124485228.Sat.Aug.20_07_00_28.AEST.2005.narrabn.c5.jpg'
p1006
I0
sS'daytimex_1377205228.Fri.Aug.23_07_00_28.AEST.2013.narrabn.c5.vflip.jpg'
p1007
I0
sS'daytimex_1297890028.Thu.Feb.17_07_00_28.AEST.2011.narrabn.c5.rot.jpg'
p1008
I1
sS'daytimex_1098652844.Mon.Oct.25_07_20_44.AEST.2004.narrabn.c5.erase.jpg'
p1009
I4
sS'daytimex_1210021227.Tue.May.06_07_00_27.AEST.2008.narrabn.c5.gamma.jpg'
p1010
I2
sS'daytimex_1205614828.Sun.Mar.16_07_00_28.AEST.2008.narrabn.c5.jpg'
p1011
I2
sS'daytimex_1095456045.Sat.Sep.18_07_20_45.AEST.2004.narrabn.c5.jpg'
p1012
I1
sS'daytimex_1183410028.Tue.Jul.03_07_00_28.AEST.2007.narrabn.c5.gamma.jpg'
p1013
I0
sS'daytimex_1096752044.Sun.Oct.03_07_20_44.AEST.2004.narrabn.c5.vflip.jpg'
p1014
I4
sS'daytimex_1107032427.Sun.Jan.30_07_00_27.AEST.2005.narrabn.c5.erase.jpg'
p1015
I3
sS'daytimex_1189458027.Tue.Sep.11_07_00_27.AEST.2007.narrabn.c5.gamma.jpg'
p1016
I3
sS'daytimex_1192568427.Wed.Oct.17_07_00_27.AEST.2007.narrabn.c5.jpg'
p1017
I1
sS'daytimex_1166994028.Mon.Dec.25_07_00_28.AEST.2006.narrabn.c5.rot.jpg'
p1018
I2
sS'daytimex_1118264428.Thu.Jun.09_07_00_28.AEST.2005.narrabn.c5.jpg'
p1019
I2
sS'daytimex_1223931628.Tue.Oct.14_07_00_28.AEST.2008.narrabn.c5.gamma.jpg'
p1020
I3
sS'daytimex_1289336428.Wed.Nov.10_07_00_28.AEST.2010.narrabn.c5.erase.jpg'
p1021
I3
sS'daytimex_1219179627.Wed.Aug.20_07_00_27.AEST.2008.narrabn.c5.hflip.jpg'
p1022
I2
sS'daytimex_1146258028.Sat.Apr.29_07_00_28.AEST.2006.narrabn.c5.hflip.jpg'
p1023
I4
sS'daytimex_1338670828.Sun.Jun.03_07_00_28.AEST.2012.narrabn.c5.vflip.jpg'
p1024
I1
sS'daytimex_1151701228.Sat.Jul.01_07_00_28.AEST.2006.narrabn.c5.vflip.jpg'
p1025
I0
sS'daytimex_1278018028.Fri.Jul.02_07_00_28.AEST.2010.narrabn.c5.jpg'
p1026
I1
sS'daytimex_1188853227.Tue.Sep.04_07_00_27.AEST.2007.narrabn.c5.rot.jpg'
p1027
I2
sS'daytimex_1364504427.Fri.Mar.29_07_00_27.AEST.2013.narrabn.c5.jpg'
p1028
I4
sS'daytimex_1136062828.Sun.Jan.01_07_00_28.AEST.2006.narrabn.c5.vflip.jpg'
p1029
I2
sS'daytimex_1243371628.Wed.May.27_07_00_28.AEST.2009.narrabn.c5.rot.jpg'
p1030
I0
sS'daytimex_1094764845.Fri.Sep.10_07_20_45.AEST.2004.narrabn.c5.jpg'
p1031
I3
sS'daytimex_1106600428.Tue.Jan.25_07_00_28.AEST.2005.narrabn.c5.jpg'
p1032
I2
sS'daytimex_1272747627.Sun.May.02_07_00_27.AEST.2010.narrabn.c5.gamma.jpg'
p1033
I0
sS'daytimex_1389992427.Sat.Jan.18_07_00_27.AEST.2014.narrabn.c5.gamma.jpg'
p1034
I3
sS'daytimex_1179435627.Fri.May.18_07_00_27.AEST.2007.narrabn.c5.jpg'
p1035
I1
sS'daytimex_1189890028.Sun.Sep.16_07_00_28.AEST.2007.narrabn.c5.rot.jpg'
p1036
I3
sS'daytimex_1244667628.Thu.Jun.11_07_00_28.AEST.2009.narrabn.c5.gamma.jpg'
p1037
I0
sS'daytimex_1115326827.Fri.May.06_07_00_27.AEST.2005.narrabn.c5.jpg'
p1038
I0
sS'daytimex_1327179628.Sun.Jan.22_07_00_28.AEST.2012.narrabn.c5.erase.jpg'
p1039
I3
sS'daytimex_1164229228.Thu.Nov.23_07_00_28.AEST.2006.narrabn.c5.gamma.jpg'
p1040
I3
sS'daytimex_1216587627.Mon.Jul.21_07_00_27.AEST.2008.narrabn.c5.gamma.jpg'
p1041
I0
sS'daytimex_1252357227.Tue.Sep.08_07_00_27.AEST.2009.narrabn.c5.gamma.jpg'
p1042
I4
sS'daytimex_1365109227.Fri.Apr.05_07_00_27.AEST.2013.narrabn.c5.jpg'
p1043
I4
sS'daytimex_1298926828.Tue.Mar.01_07_00_28.AEST.2011.narrabn.c5.vflip.jpg'
p1044
I0
sS'daytimex_1335128427.Mon.Apr.23_07_00_27.AEST.2012.narrabn.c5.erase.jpg'
p1045
I3
sS'daytimex_1115154028.Wed.May.04_07_00_28.AEST.2005.narrabn.c5.jpg'
p1046
I1
sS'daytimex_1338670828.Sun.Jun.03_07_00_28.AEST.2012.narrabn.c5.erase.jpg'
p1047
I1
sS'daytimex_1238360427.Mon.Mar.30_07_00_27.AEST.2009.narrabn.c5.hflip.jpg'
p1048
I4
sS'daytimex_1365282027.Sun.Apr.07_07_00_27.AEST.2013.narrabn.c5.vflip.jpg'
p1049
I0
sS'daytimex_1298062827.Sat.Feb.19_07_00_27.AEST.2011.narrabn.c5.rot.jpg'
p1050
I1
sS'daytimex_1159909227.Wed.Oct.04_07_00_27.AEST.2006.narrabn.c5.erase.jpg'
p1051
I2
sS'daytimex_1115326827.Fri.May.06_07_00_27.AEST.2005.narrabn.c5.hflip.jpg'
p1052
I0
sS'daytimex_1390078828.Sun.Jan.19_07_00_28.AEST.2014.narrabn.c5.gamma.jpg'
p1053
I4
sS'daytimex_1272315628.Tue.Apr.27_07_00_28.AEST.2010.narrabn.c5.erase.jpg'
p1054
I0
sS'daytimex_1102539628.Thu.Dec.09_07_00_28.AEST.2004.narrabn.c5.jpg'
p1055
I4
sS'daytimex_1194469228.Thu.Nov.08_07_00_28.AEST.2007.narrabn.c5.rot.jpg'
p1056
I3
sS'daytimex_1199653228.Mon.Jan.07_07_00_28.AEST.2008.narrabn.c5.vflip.jpg'
p1057
I4
sS'daytimex_1364763627.Mon.Apr.01_07_00_27.AEST.2013.narrabn.c5.erase.jpg'
p1058
I4
sS'daytimex_1192136427.Fri.Oct.12_07_00_27.AEST.2007.narrabn.c5.rot.jpg'
p1059
I1
sS'daytimex_1386536428.Mon.Dec.09_07_00_28.AEST.2013.narrabn.c5.erase.jpg'
p1060
I2
sS'daytimex_1176066028.Mon.Apr.09_07_00_28.AEST.2007.narrabn.c5.gamma.jpg'
p1061
I1
sS'daytimex_1239138028.Wed.Apr.08_07_00_28.AEST.2009.narrabn.c5.jpg'
p1062
I3
sS'daytimex_1188853227.Tue.Sep.04_07_00_27.AEST.2007.narrabn.c5.jpg'
p1063
I2
sS'daytimex_1327179628.Sun.Jan.22_07_00_28.AEST.2012.narrabn.c5.rot.jpg'
p1064
I3
sS'daytimex_1094764845.Fri.Sep.10_07_20_45.AEST.2004.narrabn.c5.gamma.jpg'
p1065
I3
sS'daytimex_1152565228.Tue.Jul.11_07_00_28.AEST.2006.narrabn.c5.hflip.jpg'
p1066
I0
sS'daytimex_1303506028.Sat.Apr.23_07_00_28.AEST.2011.narrabn.c5.gamma.jpg'
p1067
I0
sS'daytimex_1335128427.Mon.Apr.23_07_00_27.AEST.2012.narrabn.c5.jpg'
p1068
I3
sS'daytimex_1363381227.Sat.Mar.16_07_00_27.AEST.2013.narrabn.c5.jpg'
p1069
I4
sS'daytimex_1103058027.Wed.Dec.15_07_00_27.AEST.2004.narrabn.c5.hflip.jpg'
p1070
I3
sS'daytimex_1363294826.Fri.Mar.15_07_00_26.AEST.2013.narrabn.c5.vflip.jpg'
p1071
I4
sS'daytimex_1132347628.Sat.Nov.19_07_00_28.AEST.2005.narrabn.c5.erase.jpg'
p1072
I2
sS'daytimex_1102626027.Fri.Dec.10_07_00_27.AEST.2004.narrabn.c5.jpg'
p1073
I4
sS'daytimex_1200171628.Sun.Jan.13_07_00_28.AEST.2008.narrabn.c5.rot.jpg'
p1074
I4
sS'daytimex_1220043628.Sat.Aug.30_07_00_28.AEST.2008.narrabn.c5.rot.jpg'
p1075
I1
sS'daytimex_1091568045.Wed.Aug.04_07_20_45.AEST.2004.narrabn.c5.gamma.jpg'
p1076
I1
sS'daytimex_1422322207.Tue.Jan.27_11_30_07.AEST.2015.narrabn.c5.rot.jpg'
p1077
I3
sS'daytimex_1269291628.Tue.Mar.23_07_00_28.AEST.2010.narrabn.c5.vflip.jpg'
p1078
I1
sS'daytimex_1243976428.Wed.Jun.03_07_00_28.AEST.2009.narrabn.c5.gamma.jpg'
p1079
I0
sS'daytimex_1278795628.Sun.Jul.11_07_00_28.AEST.2010.narrabn.c5.erase.jpg'
p1080
I1
sS'daytimex_1209589228.Thu.May.01_07_00_28.AEST.2008.narrabn.c5.rot.jpg'
p1081
I2
sS'daytimex_1178398828.Sun.May.06_07_00_28.AEST.2007.narrabn.c5.hflip.jpg'
p1082
I0
sS'daytimex_1124744428.Tue.Aug.23_07_00_28.AEST.2005.narrabn.c5.rot.jpg'
p1083
I1
sS'daytimex_1321045227.Sat.Nov.12_07_00_27.AEST.2011.narrabn.c5.jpg'
p1084
I1
sS'daytimex_1362690026.Fri.Mar.08_07_00_26.AEST.2013.narrabn.c5.erase.jpg'
p1085
I0
sS'daytimex_1209589228.Thu.May.01_07_00_28.AEST.2008.narrabn.c5.vflip.jpg'
p1086
I2
sS'daytimex_1210280428.Fri.May.09_07_00_28.AEST.2008.narrabn.c5.vflip.jpg'
p1087
I1
sS'daytimex_1262379627.Sat.Jan.02_07_00_27.AEST.2010.narrabn.c5.erase.jpg'
p1088
I3
sS'daytimex_1113598827.Sat.Apr.16_07_00_27.AEST.2005.narrabn.c5.gamma.jpg'
p1089
I2
sS'daytimex_1166994028.Mon.Dec.25_07_00_28.AEST.2006.narrabn.c5.jpg'
p1090
I2
sS'daytimex_1141419628.Sat.Mar.04_07_00_28.AEST.2006.narrabn.c5.hflip.jpg'
p1091
I4
sS'daytimex_1098825644.Wed.Oct.27_07_20_44.AEST.2004.narrabn.c5.vflip.jpg'
p1092
I4
sS'daytimex_1132347628.Sat.Nov.19_07_00_28.AEST.2005.narrabn.c5.hflip.jpg'
p1093
I2
sS'daytimex_1263675627.Sun.Jan.17_07_00_27.AEST.2010.narrabn.c5.hflip.jpg'
p1094
I2
sS'daytimex_1304370028.Tue.May.03_07_00_28.AEST.2011.narrabn.c5.jpg'
p1095
I4
sS'daytimex_1233003628.Tue.Jan.27_07_00_28.AEST.2009.narrabn.c5.jpg'
p1096
I2
sS'daytimex_1199739627.Tue.Jan.08_07_00_27.AEST.2008.narrabn.c5.hflip.jpg'
p1097
I4
sS'daytimex_1364158827.Mon.Mar.25_07_00_27.AEST.2013.narrabn.c5.vflip.jpg'
p1098
I4
sS'daytimex_1269032427.Sat.Mar.20_07_00_27.AEST.2010.narrabn.c5.rot.jpg'
p1099
I0
sS'daytimex_1096492844.Thu.Sep.30_07_20_44.AEST.2004.narrabn.c5.gamma.jpg'
p1100
I1
sS'daytimex_1383339628.Sat.Nov.02_07_00_28.AEST.2013.narrabn.c5.jpg'
p1101
I2
sS'daytimex_1122843628.Mon.Aug.01_07_00_28.AEST.2005.narrabn.c5.vflip.jpg'
p1102
I0
sS'daytimex_1290459628.Tue.Nov.23_07_00_28.AEST.2010.narrabn.c5.vflip.jpg'
p1103
I2
sS'daytimex_1103058027.Wed.Dec.15_07_00_27.AEST.2004.narrabn.c5.gamma.jpg'
p1104
I3
sS'daytimex_1115499628.Sun.May.08_07_00_28.AEST.2005.narrabn.c5.jpg'
p1105
I0
sS'daytimex_1367182827.Mon.Apr.29_07_00_27.AEST.2013.narrabn.c5.erase.jpg'
p1106
I0
sS'daytimex_1102453228.Wed.Dec.08_07_00_28.AEST.2004.narrabn.c5.vflip.jpg'
p1107
I4
sS'daytimex_1095456045.Sat.Sep.18_07_20_45.AEST.2004.narrabn.c5.hflip.jpg'
p1108
I1
sS'daytimex_1178571627.Tue.May.08_07_00_27.AEST.2007.narrabn.c5.rot.jpg'
p1109
I0
sS'daytimex_1129755628.Thu.Oct.20_07_00_28.AEST.2005.narrabn.c5.jpg'
p1110
I4
sS'daytimex_1258837227.Sun.Nov.22_07_00_27.AEST.2009.narrabn.c5.rot.jpg'
p1111
I4
sS'daytimex_1211058028.Sun.May.18_07_00_28.AEST.2008.narrabn.c5.rot.jpg'
p1112
I3
sS'daytimex_1359579627.Thu.Jan.31_07_00_27.AEST.2013.narrabn.c5.vflip.jpg'
p1113
I4
sS'daytimex_1159909227.Wed.Oct.04_07_00_27.AEST.2006.narrabn.c5.gamma.jpg'
p1114
I2
sS'daytimex_1364677227.Sun.Mar.31_07_00_27.AEST.2013.narrabn.c5.jpg'
p1115
I0
sS'daytimex_1115413227.Sat.May.07_07_00_27.AEST.2005.narrabn.c5.vflip.jpg'
p1116
I0
sS'daytimex_1272747627.Sun.May.02_07_00_27.AEST.2010.narrabn.c5.jpg'
p1117
I0
sS'daytimex_1355518826.Sat.Dec.15_07_00_26.AEST.2012.narrabn.c5.gamma.jpg'
p1118
I3
sS'daytimex_1178226028.Fri.May.04_07_00_28.AEST.2007.narrabn.c5.erase.jpg'
p1119
I0
sS'daytimex_1166475628.Tue.Dec.19_07_00_28.AEST.2006.narrabn.c5.erase.jpg'
p1120
I1
sS'daytimex_1136062828.Sun.Jan.01_07_00_28.AEST.2006.narrabn.c5.erase.jpg'
p1121
I2
sS'daytimex_1390165228.Mon.Jan.20_07_00_28.AEST.2014.narrabn.c5.vflip.jpg'
p1122
I4
sS'daytimex_1244494828.Tue.Jun.09_07_00_28.AEST.2009.narrabn.c5.erase.jpg'
p1123
I0
sS'daytimex_1199653228.Mon.Jan.07_07_00_28.AEST.2008.narrabn.c5.hflip.jpg'
p1124
I4
sS'daytimex_1298062827.Sat.Feb.19_07_00_27.AEST.2011.narrabn.c5.erase.jpg'
p1125
I1
sS'daytimex_1263675627.Sun.Jan.17_07_00_27.AEST.2010.narrabn.c5.jpg'
p1126
I2
sS'daytimex_1365282027.Sun.Apr.07_07_00_27.AEST.2013.narrabn.c5.erase.jpg'
p1127
I0
sS'daytimex_1364072427.Sun.Mar.24_07_00_27.AEST.2013.narrabn.c5.hflip.jpg'
p1128
I4
sS'daytimex_1263070827.Sun.Jan.10_07_00_27.AEST.2010.narrabn.c5.hflip.jpg'
p1129
I2
sS'daytimex_1413493206.Fri.Oct.17_07_00_06.AEST.2014.narrabn.c5.hflip.jpg'
p1130
I3
sS'daytimex_1367182827.Mon.Apr.29_07_00_27.AEST.2013.narrabn.c5.gamma.jpg'
p1131
I0
sS'daytimex_1232744428.Sat.Jan.24_07_00_28.AEST.2009.narrabn.c5.gamma.jpg'
p1132
I3
sS'daytimex_1271278827.Thu.Apr.15_07_00_27.AEST.2010.narrabn.c5.gamma.jpg'
p1133
I1
sS'daytimex_1183410028.Tue.Jul.03_07_00_28.AEST.2007.narrabn.c5.rot.jpg'
p1134
I0
sS'daytimex_1366664426.Tue.Apr.23_07_00_26.AEST.2013.narrabn.c5.erase.jpg'
p1135
I3
sS'daytimex_1302123627.Thu.Apr.07_07_00_27.AEST.2011.narrabn.c5.jpg'
p1136
I1
sS'daytimex_1280523628.Sat.Jul.31_07_00_28.AEST.2010.narrabn.c5.gamma.jpg'
p1137
I0
sS'daytimex_1363467627.Sun.Mar.17_07_00_27.AEST.2013.narrabn.c5.rot.jpg'
p1138
I4
sS'daytimex_1129928428.Sat.Oct.22_07_00_28.AEST.2005.narrabn.c5.gamma.jpg'
p1139
I0
sS'daytimex_1305752427.Thu.May.19_07_00_27.AEST.2011.narrabn.c5.hflip.jpg'
p1140
I1
sS'daytimex_1106341227.Sat.Jan.22_07_00_27.AEST.2005.narrabn.c5.vflip.jpg'
p1141
I3
sS'daytimex_1202331628.Thu.Feb.07_07_00_28.AEST.2008.narrabn.c5.hflip.jpg'
p1142
I4
sS'daytimex_1407358807.Thu.Aug.07_07_00_07.AEST.2014.narrabn.c5.erase.jpg'
p1143
I1
sS'daytimex_1369515627.Sun.May.26_07_00_27.AEST.2013.narrabn.c5.rot.jpg'
p1144
I2
sS'daytimex_1231016428.Sun.Jan.04_07_00_28.AEST.2009.narrabn.c5.vflip.jpg'
p1145
I3
sS'daytimex_1110229228.Tue.Mar.08_07_00_28.AEST.2005.narrabn.c5.gamma.jpg'
p1146
I2
sS'daytimex_1396386028.Wed.Apr.02_07_00_28.AEST.2014.narrabn.c5.rot.jpg'
p1147
I1
sS'daytimex_1176066028.Mon.Apr.09_07_00_28.AEST.2007.narrabn.c5.rot.jpg'
p1148
I1
sS'daytimex_1192482027.Tue.Oct.16_07_00_27.AEST.2007.narrabn.c5.gamma.jpg'
p1149
I1
sS'daytimex_1244322027.Sun.Jun.07_07_00_27.AEST.2009.narrabn.c5.rot.jpg'
p1150
I0
sS'daytimex_1200171628.Sun.Jan.13_07_00_28.AEST.2008.narrabn.c5.vflip.jpg'
p1151
I4
sS'daytimex_1362776427.Sat.Mar.09_07_00_27.AEST.2013.narrabn.c5.gamma.jpg'
p1152
I0
sS'daytimex_1365282027.Sun.Apr.07_07_00_27.AEST.2013.narrabn.c5.hflip.jpg'
p1153
I0
sS'daytimex_1216414828.Sat.Jul.19_07_00_28.AEST.2008.narrabn.c5.vflip.jpg'
p1154
I0
sS'daytimex_1263070827.Sun.Jan.10_07_00_27.AEST.2010.narrabn.c5.jpg'
p1155
I2
sS'daytimex_1114117228.Fri.Apr.22_07_00_28.AEST.2005.narrabn.c5.jpg'
p1156
I1
sS'daytimex_1199739627.Tue.Jan.08_07_00_27.AEST.2008.narrabn.c5.gamma.jpg'
p1157
I4
sS'daytimex_1178226028.Fri.May.04_07_00_28.AEST.2007.narrabn.c5.vflip.jpg'
p1158
I0
sS'daytimex_1277758827.Tue.Jun.29_07_00_27.AEST.2010.narrabn.c5.hflip.jpg'
p1159
I2
sS'daytimex_1298926828.Tue.Mar.01_07_00_28.AEST.2011.narrabn.c5.jpg'
p1160
I0
sS'daytimex_1168722027.Sun.Jan.14_07_00_27.AEST.2007.narrabn.c5.erase.jpg'
p1161
I3
sS'daytimex_1253394027.Sun.Sep.20_07_00_27.AEST.2009.narrabn.c5.rot.jpg'
p1162
I1
sS'daytimex_1122843628.Mon.Aug.01_07_00_28.AEST.2005.narrabn.c5.erase.jpg'
p1163
I0
sS'daytimex_1311627628.Tue.Jul.26_07_00_28.AEST.2011.narrabn.c5.gamma.jpg'
p1164
I3
sS'daytimex_1115326827.Fri.May.06_07_00_27.AEST.2005.narrabn.c5.vflip.jpg'
p1165
I0
sS'daytimex_1113944427.Wed.Apr.20_07_00_27.AEST.2005.narrabn.c5.jpg'
p1166
I1
sS'daytimex_1103058027.Wed.Dec.15_07_00_27.AEST.2004.narrabn.c5.erase.jpg'
p1167
I3
sS'daytimex_1220043628.Sat.Aug.30_07_00_28.AEST.2008.narrabn.c5.erase.jpg'
p1168
I1
sS'daytimex_1386536428.Mon.Dec.09_07_00_28.AEST.2013.narrabn.c5.rot.jpg'
p1169
I2
sS'daytimex_1252357227.Tue.Sep.08_07_00_27.AEST.2009.narrabn.c5.vflip.jpg'
p1170
I4
sS'daytimex_1105822828.Sun.Jan.16_07_00_28.AEST.2005.narrabn.c5.jpg'
p1171
I4
sS'daytimex_1244235628.Sat.Jun.06_07_00_28.AEST.2009.narrabn.c5.gamma.jpg'
p1172
I0
sS'daytimex_1366491627.Sun.Apr.21_07_00_27.AEST.2013.narrabn.c5.rot.jpg'
p1173
I4
sS'daytimex_1210366827.Sat.May.10_07_00_27.AEST.2008.narrabn.c5.rot.jpg'
p1174
I1
sS'daytimex_1366750827.Wed.Apr.24_07_00_27.AEST.2013.narrabn.c5.rot.jpg'
p1175
I3
sS'daytimex_1152738027.Thu.Jul.13_07_00_27.AEST.2006.narrabn.c5.vflip.jpg'
p1176
I1
sS'daytimex_1246654827.Sat.Jul.04_07_00_27.AEST.2009.narrabn.c5.gamma.jpg'
p1177
I2
sS'daytimex_1365454827.Tue.Apr.09_07_00_27.AEST.2013.narrabn.c5.jpg'
p1178
I4
sS'daytimex_1295557227.Fri.Jan.21_07_00_27.AEST.2011.narrabn.c5.gamma.jpg'
p1179
I2
sS'daytimex_1124658027.Mon.Aug.22_07_00_27.AEST.2005.narrabn.c5.jpg'
p1180
I1
sS'daytimex_1269550828.Fri.Mar.26_07_00_28.AEST.2010.narrabn.c5.erase.jpg'
p1181
I1
sS'daytimex_1289422827.Thu.Nov.11_07_00_27.AEST.2010.narrabn.c5.jpg'
p1182
I3
sS'daytimex_1305579627.Tue.May.17_07_00_27.AEST.2011.narrabn.c5.hflip.jpg'
p1183
I1
sS'daytimex_1271624427.Mon.Apr.19_07_00_27.AEST.2010.narrabn.c5.erase.jpg'
p1184
I0
sS'daytimex_1200171628.Sun.Jan.13_07_00_28.AEST.2008.narrabn.c5.hflip.jpg'
p1185
I4
sS'daytimex_1297630827.Mon.Feb.14_07_00_27.AEST.2011.narrabn.c5.rot.jpg'
p1186
I2
sS'daytimex_1151614827.Fri.Jun.30_07_00_27.AEST.2006.narrabn.c5.jpg'
p1187
I0
sS'daytimex_1178571627.Tue.May.08_07_00_27.AEST.2007.narrabn.c5.gamma.jpg'
p1188
I0
sS'daytimex_1277845228.Wed.Jun.30_07_00_28.AEST.2010.narrabn.c5.gamma.jpg'
p1189
I2
sS'daytimex_1170104428.Tue.Jan.30_07_00_28.AEST.2007.narrabn.c5.jpg'
p1190
I2
sS'daytimex_1269032427.Sat.Mar.20_07_00_27.AEST.2010.narrabn.c5.vflip.jpg'
p1191
I0
sS'daytimex_1175547628.Tue.Apr.03_07_00_28.AEST.2007.narrabn.c5.jpg'
p1192
I2
sS'daytimex_1238360427.Mon.Mar.30_07_00_27.AEST.2009.narrabn.c5.gamma.jpg'
p1193
I4
sS'daytimex_1327179628.Sun.Jan.22_07_00_28.AEST.2012.narrabn.c5.hflip.jpg'
p1194
I3
sS'daytimex_1199912427.Thu.Jan.10_07_00_27.AEST.2008.narrabn.c5.gamma.jpg'
p1195
I4
sS'daytimex_1367182827.Mon.Apr.29_07_00_27.AEST.2013.narrabn.c5.hflip.jpg'
p1196
I0
sS'daytimex_1379624427.Fri.Sep.20_07_00_27.AEST.2013.narrabn.c5.hflip.jpg'
p1197
I4
sS'daytimex_1169326827.Sun.Jan.21_07_00_27.AEST.2007.narrabn.c5.rot.jpg'
p1198
I4
sS'daytimex_1129755628.Thu.Oct.20_07_00_28.AEST.2005.narrabn.c5.rot.jpg'
p1199
I4
sS'daytimex_1252270827.Mon.Sep.07_07_00_27.AEST.2009.narrabn.c5.gamma.jpg'
p1200
I4
sS'daytimex_1298926828.Tue.Mar.01_07_00_28.AEST.2011.narrabn.c5.erase.jpg'
p1201
I0
sS'daytimex_1218920428.Sun.Aug.17_07_00_28.AEST.2008.narrabn.c5.erase.jpg'
p1202
I1
sS'daytimex_1149195628.Fri.Jun.02_07_00_28.AEST.2006.narrabn.c5.hflip.jpg'
p1203
I0
sS'daytimex_1199912427.Thu.Jan.10_07_00_27.AEST.2008.narrabn.c5.vflip.jpg'
p1204
I4
sS'daytimex_1352667627.Mon.Nov.12_07_00_27.AEST.2012.narrabn.c5.jpg'
p1205
I2
sS'daytimex_1396818028.Mon.Apr.07_07_00_28.AEST.2014.narrabn.c5.jpg'
p1206
I1
sS'daytimex_1296421228.Mon.Jan.31_07_00_28.AEST.2011.narrabn.c5.erase.jpg'
p1207
I1
sS'daytimex_1413752407.Mon.Oct.20_07_00_07.AEST.2014.narrabn.c5.jpg'
p1208
I3
sS'daytimex_1238360427.Mon.Mar.30_07_00_27.AEST.2009.narrabn.c5.jpg'
p1209
I4
sS'daytimex_1365973226.Mon.Apr.15_07_00_26.AEST.2013.narrabn.c5.gamma.jpg'
p1210
I4
sS'daytimex_1278018028.Fri.Jul.02_07_00_28.AEST.2010.narrabn.c5.rot.jpg'
p1211
I1
sS'daytimex_1363122026.Wed.Mar.13_07_00_26.AEST.2013.narrabn.c5.gamma.jpg'
p1212
I4
sS'daytimex_1272056427.Sat.Apr.24_07_00_27.AEST.2010.narrabn.c5.rot.jpg'
p1213
I0
sS'daytimex_1106514027.Mon.Jan.24_07_00_27.AEST.2005.narrabn.c5.vflip.jpg'
p1214
I3
sS'daytimex_1100553644.Tue.Nov.16_07_20_44.AEST.2004.narrabn.c5.gamma.jpg'
p1215
I2
sS'daytimex_1132088427.Wed.Nov.16_07_00_27.AEST.2005.narrabn.c5.vflip.jpg'
p1216
I2
sS'daytimex_1096492844.Thu.Sep.30_07_20_44.AEST.2004.narrabn.c5.rot.jpg'
p1217
I1
sS'daytimex_1295730028.Sun.Jan.23_07_00_28.AEST.2011.narrabn.c5.jpg'
p1218
I1
sS'daytimex_1277758827.Tue.Jun.29_07_00_27.AEST.2010.narrabn.c5.erase.jpg'
p1219
I2
sS'daytimex_1114117228.Fri.Apr.22_07_00_28.AEST.2005.narrabn.c5.rot.jpg'
p1220
I1
sS'daytimex_1244581228.Wed.Jun.10_07_00_28.AEST.2009.narrabn.c5.erase.jpg'
p1221
I0
sS'daytimex_1364763627.Mon.Apr.01_07_00_27.AEST.2013.narrabn.c5.rot.jpg'
p1222
I4
sS'daytimex_1252357227.Tue.Sep.08_07_00_27.AEST.2009.narrabn.c5.erase.jpg'
p1223
I4
sS'daytimex_1244235628.Sat.Jun.06_07_00_28.AEST.2009.narrabn.c5.jpg'
p1224
I0
sS'daytimex_1362603627.Thu.Mar.07_07_00_27.AEST.2013.narrabn.c5.erase.jpg'
p1225
I0
sS'daytimex_1218315628.Sun.Aug.10_07_00_28.AEST.2008.narrabn.c5.erase.jpg'
p1226
I0
sS'daytimex_1305579627.Tue.May.17_07_00_27.AEST.2011.narrabn.c5.erase.jpg'
p1227
I1
sS'daytimex_1271278827.Thu.Apr.15_07_00_27.AEST.2010.narrabn.c5.rot.jpg'
p1228
I1
sS'daytimex_1304370028.Tue.May.03_07_00_28.AEST.2011.narrabn.c5.rot.jpg'
p1229
I4
sS'daytimex_1129842028.Fri.Oct.21_07_00_28.AEST.2005.narrabn.c5.gamma.jpg'
p1230
I4
sS'daytimex_1160168427.Sat.Oct.07_07_00_27.AEST.2006.narrabn.c5.rot.jpg'
p1231
I1
sS'daytimex_1199912427.Thu.Jan.10_07_00_27.AEST.2008.narrabn.c5.erase.jpg'
p1232
I4
sS'daytimex_1296421228.Mon.Jan.31_07_00_28.AEST.2011.narrabn.c5.rot.jpg'
p1233
I1
sS'daytimex_1259442028.Sun.Nov.29_07_00_28.AEST.2009.narrabn.c5.vflip.jpg'
p1234
I3
sS'daytimex_1114117228.Fri.Apr.22_07_00_28.AEST.2005.narrabn.c5.hflip.jpg'
p1235
I1
sS'daytimex_1129928428.Sat.Oct.22_07_00_28.AEST.2005.narrabn.c5.vflip.jpg'
p1236
I0
sS'daytimex_1144702827.Tue.Apr.11_07_00_27.AEST.2006.narrabn.c5.jpg'
p1237
I3
sS'daytimex_1366059626.Tue.Apr.16_07_00_26.AEST.2013.narrabn.c5.gamma.jpg'
p1238
I4
sS'daytimex_1320699628.Tue.Nov.08_07_00_28.AEST.2011.narrabn.c5.jpg'
p1239
I1
sS'daytimex_1244840427.Sat.Jun.13_07_00_27.AEST.2009.narrabn.c5.rot.jpg'
p1240
I0
sS'daytimex_1327352427.Tue.Jan.24_07_00_27.AEST.2012.narrabn.c5.jpg'
p1241
I3
sS'daytimex_1178571627.Tue.May.08_07_00_27.AEST.2007.narrabn.c5.jpg'
p1242
I0
sS'daytimex_1377205228.Fri.Aug.23_07_00_28.AEST.2013.narrabn.c5.gamma.jpg'
p1243
I0
sS'daytimex_1355432427.Fri.Dec.14_07_00_27.AEST.2012.narrabn.c5.rot.jpg'
p1244
I3
sS'daytimex_1178398828.Sun.May.06_07_00_28.AEST.2007.narrabn.c5.jpg'
p1245
I0
sS'daytimex_1355432427.Fri.Dec.14_07_00_27.AEST.2012.narrabn.c5.jpg'
p1246
I3
sS'daytimex_1099171245.Sun.Oct.31_07_20_45.AEST.2004.narrabn.c5.rot.jpg'
p1247
I3
sS'daytimex_1266267628.Tue.Feb.16_07_00_28.AEST.2010.narrabn.c5.erase.jpg'
p1248
I2
sS'daytimex_1166907628.Sun.Dec.24_07_00_28.AEST.2006.narrabn.c5.rot.jpg'
p1249
I3
sS'daytimex_1272747627.Sun.May.02_07_00_27.AEST.2010.narrabn.c5.erase.jpg'
p1250
I0
sS'daytimex_1231016428.Sun.Jan.04_07_00_28.AEST.2009.narrabn.c5.erase.jpg'
p1251
I3
sS'daytimex_1178571627.Tue.May.08_07_00_27.AEST.2007.narrabn.c5.hflip.jpg'
p1252
I0
sS'daytimex_1179522028.Sat.May.19_07_00_28.AEST.2007.narrabn.c5.erase.jpg'
p1253
I0
sS'daytimex_1180213228.Sun.May.27_07_00_28.AEST.2007.narrabn.c5.hflip.jpg'
p1254
I0
sS'daytimex_1156798828.Tue.Aug.29_07_00_28.AEST.2006.narrabn.c5.rot.jpg'
p1255
I1
sS'daytimex_1363294826.Fri.Mar.15_07_00_26.AEST.2013.narrabn.c5.rot.jpg'
p1256
I4
sS'daytimex_1269291628.Tue.Mar.23_07_00_28.AEST.2010.narrabn.c5.hflip.jpg'
p1257
I1
sS'daytimex_1348779627.Fri.Sep.28_07_00_27.AEST.2012.narrabn.c5.gamma.jpg'
p1258
I2
sS'daytimex_1230757227.Thu.Jan.01_07_00_27.AEST.2009.narrabn.c5.hflip.jpg'
p1259
I2
sS'daytimex_1161205227.Thu.Oct.19_07_00_27.AEST.2006.narrabn.c5.gamma.jpg'
p1260
I4
sS'daytimex_1129755628.Thu.Oct.20_07_00_28.AEST.2005.narrabn.c5.erase.jpg'
p1261
I4
sS'daytimex_1299358827.Sun.Mar.06_07_00_27.AEST.2011.narrabn.c5.gamma.jpg'
p1262
I0
sS'daytimex_1285362027.Sat.Sep.25_07_00_27.AEST.2010.narrabn.c5.jpg'
p1263
I1
sS'daytimex_1141506027.Sun.Mar.05_07_00_27.AEST.2006.narrabn.c5.jpg'
p1264
I4
sS'daytimex_1364504427.Fri.Mar.29_07_00_27.AEST.2013.narrabn.c5.hflip.jpg'
p1265
I4
sS'daytimex_1189890028.Sun.Sep.16_07_00_28.AEST.2007.narrabn.c5.vflip.jpg'
p1266
I3
sS'daytimex_1356382827.Tue.Dec.25_07_00_27.AEST.2012.narrabn.c5.jpg'
p1267
I3
sS'daytimex_1303160427.Tue.Apr.19_07_00_27.AEST.2011.narrabn.c5.jpg'
p1268
I1
sS'daytimex_1164229228.Thu.Nov.23_07_00_28.AEST.2006.narrabn.c5.jpg'
p1269
I3
sS'daytimex_1220043628.Sat.Aug.30_07_00_28.AEST.2008.narrabn.c5.vflip.jpg'
p1270
I1
sS'daytimex_1102885227.Mon.Dec.13_07_00_27.AEST.2004.narrabn.c5.erase.jpg'
p1271
I3
sS'daytimex_1297630827.Mon.Feb.14_07_00_27.AEST.2011.narrabn.c5.vflip.jpg'
p1272
I2
sS'daytimex_1396040427.Sat.Mar.29_07_00_27.AEST.2014.narrabn.c5.erase.jpg'
p1273
I1
sS'daytimex_1327093228.Sat.Jan.21_07_00_28.AEST.2012.narrabn.c5.rot.jpg'
p1274
I3
sS'daytimex_1359579627.Thu.Jan.31_07_00_27.AEST.2013.narrabn.c5.hflip.jpg'
p1275
I4
sS'daytimex_1132261228.Fri.Nov.18_07_00_28.AEST.2005.narrabn.c5.gamma.jpg'
p1276
I3
sS'daytimex_1320699628.Tue.Nov.08_07_00_28.AEST.2011.narrabn.c5.rot.jpg'
p1277
I1
sS'daytimex_1174338027.Tue.Mar.20_07_00_27.AEST.2007.narrabn.c5.vflip.jpg'
p1278
I0
sS'daytimex_1367701227.Sun.May.05_07_00_27.AEST.2013.narrabn.c5.vflip.jpg'
p1279
I3
sS'daytimex_1110229228.Tue.Mar.08_07_00_28.AEST.2005.narrabn.c5.jpg'
p1280
I2
sS'daytimex_1231016428.Sun.Jan.04_07_00_28.AEST.2009.narrabn.c5.hflip.jpg'
p1281
I3
sS'daytimex_1295557227.Fri.Jan.21_07_00_27.AEST.2011.narrabn.c5.jpg'
p1282
I2
sS'daytimex_1115758827.Wed.May.11_07_00_27.AEST.2005.narrabn.c5.hflip.jpg'
p1283
I0
sS'daytimex_1276635628.Wed.Jun.16_07_00_28.AEST.2010.narrabn.c5.gamma.jpg'
p1284
I2
sS'daytimex_1344286827.Tue.Aug.07_07_00_27.AEST.2012.narrabn.c5.jpg'
p1285
I2
sS'daytimex_1355518826.Sat.Dec.15_07_00_26.AEST.2012.narrabn.c5.hflip.jpg'
p1286
I3
sS'daytimex_1178398828.Sun.May.06_07_00_28.AEST.2007.narrabn.c5.gamma.jpg'
p1287
I0
sS'daytimex_1168722027.Sun.Jan.14_07_00_27.AEST.2007.narrabn.c5.hflip.jpg'
p1288
I3
sS'daytimex_1209589228.Thu.May.01_07_00_28.AEST.2008.narrabn.c5.gamma.jpg'
p1289
I2
sS'daytimex_1282856427.Fri.Aug.27_07_00_27.AEST.2010.narrabn.c5.jpg'
p1290
I2
sS'daytimex_1130446828.Fri.Oct.28_07_00_28.AEST.2005.narrabn.c5.hflip.jpg'
p1291
I3
sS'daytimex_1298062827.Sat.Feb.19_07_00_27.AEST.2011.narrabn.c5.gamma.jpg'
p1292
I1
sS'daytimex_1192482027.Tue.Oct.16_07_00_27.AEST.2007.narrabn.c5.rot.jpg'
p1293
I1
sS'daytimex_1148331627.Tue.May.23_07_00_27.AEST.2006.narrabn.c5.erase.jpg'
p1294
I1
sS'daytimex_1246654827.Sat.Jul.04_07_00_27.AEST.2009.narrabn.c5.jpg'
p1295
I2
sS'daytimex_1176584427.Sun.Apr.15_07_00_27.AEST.2007.narrabn.c5.hflip.jpg'
p1296
I1
sS'daytimex_1393707627.Sun.Mar.02_07_00_27.AEST.2014.narrabn.c5.vflip.jpg'
p1297
I1
sS'daytimex_1144702827.Tue.Apr.11_07_00_27.AEST.2006.narrabn.c5.rot.jpg'
p1298
I3
sS'daytimex_1098825644.Wed.Oct.27_07_20_44.AEST.2004.narrabn.c5.gamma.jpg'
p1299
I4
sS'daytimex_1172955628.Sun.Mar.04_07_00_28.AEST.2007.narrabn.c5.gamma.jpg'
p1300
I3
sS'daytimex_1272747627.Sun.May.02_07_00_27.AEST.2010.narrabn.c5.rot.jpg'
p1301
I0
sS'daytimex_1244408427.Mon.Jun.08_07_00_27.AEST.2009.narrabn.c5.hflip.jpg'
p1302
I0
sS'daytimex_1176584427.Sun.Apr.15_07_00_27.AEST.2007.narrabn.c5.rot.jpg'
p1303
I1
sS'daytimex_1129928428.Sat.Oct.22_07_00_28.AEST.2005.narrabn.c5.jpg'
p1304
I0
sS'daytimex_1114203627.Sat.Apr.23_07_00_27.AEST.2005.narrabn.c5.rot.jpg'
p1305
I1
sS'daytimex_1332795628.Tue.Mar.27_07_00_28.AEST.2012.narrabn.c5.vflip.jpg'
p1306
I2
sS'daytimex_1096492844.Thu.Sep.30_07_20_44.AEST.2004.narrabn.c5.hflip.jpg'
p1307
I1
sS'daytimex_1366664426.Tue.Apr.23_07_00_26.AEST.2013.narrabn.c5.hflip.jpg'
p1308
I3
sS'daytimex_1179522028.Sat.May.19_07_00_28.AEST.2007.narrabn.c5.hflip.jpg'
p1309
I0
sS'daytimex_1199826027.Wed.Jan.09_07_00_27.AEST.2008.narrabn.c5.erase.jpg'
p1310
I4
sS'daytimex_1362344426.Mon.Mar.04_07_00_26.AEST.2013.narrabn.c5.rot.jpg'
p1311
I0
sS'daytimex_1179435627.Fri.May.18_07_00_27.AEST.2007.narrabn.c5.hflip.jpg'
p1312
I1
sS'daytimex_1103403628.Sun.Dec.19_07_00_28.AEST.2004.narrabn.c5.hflip.jpg'
p1313
I3
sS'daytimex_1113771628.Mon.Apr.18_07_00_28.AEST.2005.narrabn.c5.hflip.jpg'
p1314
I2
sS'daytimex_1365714027.Fri.Apr.12_07_00_27.AEST.2013.narrabn.c5.jpg'
p1315
I4
sS'daytimex_1219179627.Wed.Aug.20_07_00_27.AEST.2008.narrabn.c5.gamma.jpg'
p1316
I2
sS'daytimex_1252184428.Sun.Sep.06_07_00_28.AEST.2009.narrabn.c5.vflip.jpg'
p1317
I1
sS'daytimex_1285448428.Sun.Sep.26_07_00_28.AEST.2010.narrabn.c5.rot.jpg'
p1318
I1
sS'daytimex_1095542444.Sun.Sep.19_07_20_44.AEST.2004.narrabn.c5.vflip.jpg'
p1319
I1
sS'daytimex_1104526828.Sat.Jan.01_07_00_28.AEST.2005.narrabn.c5.erase.jpg'
p1320
I2
sS'daytimex_1364504427.Fri.Mar.29_07_00_27.AEST.2013.narrabn.c5.gamma.jpg'
p1321
I4
sS'daytimex_1384462828.Fri.Nov.15_07_00_28.AEST.2013.narrabn.c5.erase.jpg'
p1322
I3
sS'daytimex_1308430828.Sun.Jun.19_07_00_28.AEST.2011.narrabn.c5.vflip.jpg'
p1323
I2
sS'daytimex_1367269226.Tue.Apr.30_07_00_26.AEST.2013.narrabn.c5.jpg'
p1324
I0
sS'daytimex_1191877228.Tue.Oct.09_07_00_28.AEST.2007.narrabn.c5.jpg'
p1325
I1
sS'daytimex_1165611628.Sat.Dec.09_07_00_28.AEST.2006.narrabn.c5.gamma.jpg'
p1326
I1
sS'daytimex_1300482028.Sat.Mar.19_07_00_28.AEST.2011.narrabn.c5.erase.jpg'
p1327
I1
sS'daytimex_1307134828.Sat.Jun.04_07_00_28.AEST.2011.narrabn.c5.jpg'
p1328
I3
sS'daytimex_1285621228.Tue.Sep.28_07_00_28.AEST.2010.narrabn.c5.vflip.jpg'
p1329
I0
sS'daytimex_1218747627.Fri.Aug.15_07_00_27.AEST.2008.narrabn.c5.jpg'
p1330
I1
sS'daytimex_1193346027.Fri.Oct.26_07_00_27.AEST.2007.narrabn.c5.jpg'
p1331
I1
sS'daytimex_1206997228.Tue.Apr.01_07_00_28.AEST.2008.narrabn.c5.rot.jpg'
p1332
I0
sS'daytimex_1156366828.Thu.Aug.24_07_00_28.AEST.2006.narrabn.c5.jpg'
p1333
I1
sS'daytimex_1395867628.Thu.Mar.27_07_00_28.AEST.2014.narrabn.c5.rot.jpg'
p1334
I1
sS'daytimex_1193432428.Sat.Oct.27_07_00_28.AEST.2007.narrabn.c5.erase.jpg'
p1335
I1
sS'daytimex_1425850207.Mon.Mar.09_07_30_07.AEST.2015.narrabn.c5.vflip.jpg'
p1336
I3
sS'daytimex_1137013242.Thu.Jan.12_07_00_42.AEST.2006.narrabn.c5.rot.jpg'
p1337
I3
sS'daytimex_1218574827.Wed.Aug.13_07_00_27.AEST.2008.narrabn.c5.jpg'
p1338
I0
sS'daytimex_1252270827.Mon.Sep.07_07_00_27.AEST.2009.narrabn.c5.jpg'
p1339
I4
sS'daytimex_1210021227.Tue.May.06_07_00_27.AEST.2008.narrabn.c5.erase.jpg'
p1340
I2
sS'daytimex_1269550828.Fri.Mar.26_07_00_28.AEST.2010.narrabn.c5.gamma.jpg'
p1341
I1
sS'daytimex_1244494828.Tue.Jun.09_07_00_28.AEST.2009.narrabn.c5.hflip.jpg'
p1342
I0
sS'daytimex_1152565228.Tue.Jul.11_07_00_28.AEST.2006.narrabn.c5.jpg'
p1343
I0
sS'daytimex_1233003628.Tue.Jan.27_07_00_28.AEST.2009.narrabn.c5.gamma.jpg'
p1344
I2
sS'daytimex_1249592428.Fri.Aug.07_07_00_28.AEST.2009.narrabn.c5.jpg'
p1345
I1
sS'daytimex_1184706028.Wed.Jul.18_07_00_28.AEST.2007.narrabn.c5.vflip.jpg'
p1346
I2
sS'daytimex_1295557227.Fri.Jan.21_07_00_27.AEST.2011.narrabn.c5.hflip.jpg'
p1347
I2
sS'daytimex_1392930028.Fri.Feb.21_07_00_28.AEST.2014.narrabn.c5.erase.jpg'
p1348
I2
sS'daytimex_1216328427.Fri.Jul.18_07_00_27.AEST.2008.narrabn.c5.erase.jpg'
p1349
I0
sS'daytimex_1102626027.Fri.Dec.10_07_00_27.AEST.2004.narrabn.c5.gamma.jpg'
p1350
I4
sS'daytimex_1114203627.Sat.Apr.23_07_00_27.AEST.2005.narrabn.c5.jpg'
p1351
I1
sS'daytimex_1100553644.Tue.Nov.16_07_20_44.AEST.2004.narrabn.c5.vflip.jpg'
p1352
I2
sS'daytimex_1162674028.Sun.Nov.05_07_00_28.AEST.2006.narrabn.c5.hflip.jpg'
p1353
I3
sS'daytimex_1245358827.Fri.Jun.19_07_00_27.AEST.2009.narrabn.c5.jpg'
p1354
I4
sS'daytimex_1162674028.Sun.Nov.05_07_00_28.AEST.2006.narrabn.c5.rot.jpg'
p1355
I3
sS'daytimex_1177880427.Mon.Apr.30_07_00_27.AEST.2007.narrabn.c5.jpg'
p1356
I1
sS'daytimex_1278018028.Fri.Jul.02_07_00_28.AEST.2010.narrabn.c5.erase.jpg'
p1357
I1
sS'daytimex_1277240427.Wed.Jun.23_07_00_27.AEST.2010.narrabn.c5.erase.jpg'
p1358
I2
sS'daytimex_1198875628.Sat.Dec.29_07_00_28.AEST.2007.narrabn.c5.jpg'
p1359
I2
sS'daytimex_1277845228.Wed.Jun.30_07_00_28.AEST.2010.narrabn.c5.vflip.jpg'
p1360
I2
sS'daytimex_1106600428.Tue.Jan.25_07_00_28.AEST.2005.narrabn.c5.gamma.jpg'
p1361
I2
sS'daytimex_1363381227.Sat.Mar.16_07_00_27.AEST.2013.narrabn.c5.hflip.jpg'
p1362
I4
sS'daytimex_1167858028.Thu.Jan.04_07_00_28.AEST.2007.narrabn.c5.jpg'
p1363
I0
sS'daytimex_1174683628.Sat.Mar.24_07_00_28.AEST.2007.narrabn.c5.gamma.jpg'
p1364
I0
sS'daytimex_1218574827.Wed.Aug.13_07_00_27.AEST.2008.narrabn.c5.rot.jpg'
p1365
I0
sS'daytimex_1320699628.Tue.Nov.08_07_00_28.AEST.2011.narrabn.c5.vflip.jpg'
p1366
I1
sS'daytimex_1165525227.Fri.Dec.08_07_00_27.AEST.2006.narrabn.c5.rot.jpg'
p1367
I0
sS'daytimex_1170968427.Fri.Feb.09_07_00_27.AEST.2007.narrabn.c5.jpg'
p1368
I2
sS'daytimex_1124744428.Tue.Aug.23_07_00_28.AEST.2005.narrabn.c5.hflip.jpg'
p1369
I1
sS'daytimex_1200949228.Tue.Jan.22_07_00_28.AEST.2008.narrabn.c5.rot.jpg'
p1370
I2
sS'daytimex_1364418026.Thu.Mar.28_07_00_26.AEST.2013.narrabn.c5.rot.jpg'
p1371
I4
sS'daytimex_1244581228.Wed.Jun.10_07_00_28.AEST.2009.narrabn.c5.vflip.jpg'
p1372
I0
sS'daytimex_1362603627.Thu.Mar.07_07_00_27.AEST.2013.narrabn.c5.jpg'
p1373
I0
sS'daytimex_1364590827.Sat.Mar.30_07_00_27.AEST.2013.narrabn.c5.rot.jpg'
p1374
I3
sS'daytimex_1289336428.Wed.Nov.10_07_00_28.AEST.2010.narrabn.c5.rot.jpg'
p1375
I3
sS'daytimex_1106514027.Mon.Jan.24_07_00_27.AEST.2005.narrabn.c5.jpg'
p1376
I3
sS'daytimex_1422322207.Tue.Jan.27_11_30_07.AEST.2015.narrabn.c5.gamma.jpg'
p1377
I3
sS'daytimex_1132261228.Fri.Nov.18_07_00_28.AEST.2005.narrabn.c5.erase.jpg'
p1378
I3
sS'daytimex_1299358827.Sun.Mar.06_07_00_27.AEST.2011.narrabn.c5.erase.jpg'
p1379
I0
sS'daytimex_1258837227.Sun.Nov.22_07_00_27.AEST.2009.narrabn.c5.hflip.jpg'
p1380
I4
sS'daytimex_1366837226.Thu.Apr.25_07_00_26.AEST.2013.narrabn.c5.erase.jpg'
p1381
I4
sS'daytimex_1367269226.Tue.Apr.30_07_00_26.AEST.2013.narrabn.c5.vflip.jpg'
p1382
I0
sS'daytimex_1359579627.Thu.Jan.31_07_00_27.AEST.2013.narrabn.c5.rot.jpg'
p1383
I4
sS'daytimex_1230152428.Thu.Dec.25_07_00_28.AEST.2008.narrabn.c5.vflip.jpg'
p1384
I3
sS'daytimex_1132347628.Sat.Nov.19_07_00_28.AEST.2005.narrabn.c5.gamma.jpg'
p1385
I2
sS'daytimex_1389992427.Sat.Jan.18_07_00_27.AEST.2014.narrabn.c5.hflip.jpg'
p1386
I3
sS'daytimex_1285621228.Tue.Sep.28_07_00_28.AEST.2010.narrabn.c5.jpg'
p1387
I0
sS'daytimex_1331499627.Mon.Mar.12_07_00_27.AEST.2012.narrabn.c5.jpg'
p1388
I2
sS'daytimex_1337288428.Fri.May.18_07_00_28.AEST.2012.narrabn.c5.erase.jpg'
p1389
I3
sS'daytimex_1307048427.Fri.Jun.03_07_00_27.AEST.2011.narrabn.c5.jpg'
p1390
I4
sS'daytimex_1105304428.Mon.Jan.10_07_00_28.AEST.2005.narrabn.c5.jpg'
p1391
I2
sS'daytimex_1365282027.Sun.Apr.07_07_00_27.AEST.2013.narrabn.c5.gamma.jpg'
p1392
I0
sS'daytimex_1367096427.Sun.Apr.28_07_00_27.AEST.2013.narrabn.c5.jpg'
p1393
I0
sS'daytimex_1252357227.Tue.Sep.08_07_00_27.AEST.2009.narrabn.c5.jpg'
p1394
I4
sS'daytimex_1327093228.Sat.Jan.21_07_00_28.AEST.2012.narrabn.c5.erase.jpg'
p1395
I3
sS'daytimex_1203886827.Mon.Feb.25_07_00_27.AEST.2008.narrabn.c5.vflip.jpg'
p1396
I3
sS'daytimex_1362344426.Mon.Mar.04_07_00_26.AEST.2013.narrabn.c5.hflip.jpg'
p1397
I0
sS'daytimex_1278018028.Fri.Jul.02_07_00_28.AEST.2010.narrabn.c5.vflip.jpg'
p1398
I1
sS'daytimex_1180213228.Sun.May.27_07_00_28.AEST.2007.narrabn.c5.gamma.jpg'
p1399
I0
sS'daytimex_1337288428.Fri.May.18_07_00_28.AEST.2012.narrabn.c5.rot.jpg'
p1400
I3
sS'daytimex_1384462828.Fri.Nov.15_07_00_28.AEST.2013.narrabn.c5.gamma.jpg'
p1401
I3
sS'daytimex_1308430828.Sun.Jun.19_07_00_28.AEST.2011.narrabn.c5.jpg'
p1402
I2
sS'daytimex_1103403628.Sun.Dec.19_07_00_28.AEST.2004.narrabn.c5.rot.jpg'
p1403
I3
sS'daytimex_1362690026.Fri.Mar.08_07_00_26.AEST.2013.narrabn.c5.jpg'
p1404
I0
sS'daytimex_1189890028.Sun.Sep.16_07_00_28.AEST.2007.narrabn.c5.gamma.jpg'
p1405
I3
sS'daytimex_1146258028.Sat.Apr.29_07_00_28.AEST.2006.narrabn.c5.rot.jpg'
p1406
I4
sS'daytimex_1156798828.Tue.Aug.29_07_00_28.AEST.2006.narrabn.c5.jpg'
p1407
I1
sS'daytimex_1115758827.Wed.May.11_07_00_27.AEST.2005.narrabn.c5.gamma.jpg'
p1408
I0
sS'daytimex_1216328427.Fri.Jul.18_07_00_27.AEST.2008.narrabn.c5.gamma.jpg'
p1409
I0
sS'daytimex_1189890028.Sun.Sep.16_07_00_28.AEST.2007.narrabn.c5.jpg'
p1410
I3
sS'daytimex_1114117228.Fri.Apr.22_07_00_28.AEST.2005.narrabn.c5.vflip.jpg'
p1411
I1
sS'daytimex_1100640044.Wed.Nov.17_07_20_44.AEST.2004.narrabn.c5.erase.jpg'
p1412
I3
sS'daytimex_1105131627.Sat.Jan.08_07_00_27.AEST.2005.narrabn.c5.hflip.jpg'
p1413
I3
sS'daytimex_1298494828.Thu.Feb.24_07_00_28.AEST.2011.narrabn.c5.rot.jpg'
p1414
I4
sS'daytimex_1390424427.Thu.Jan.23_07_00_27.AEST.2014.narrabn.c5.erase.jpg'
p1415
I2
sS'daytimex_1098566444.Sun.Oct.24_07_20_44.AEST.2004.narrabn.c5.jpg'
p1416
I4
sS'daytimex_1188853227.Tue.Sep.04_07_00_27.AEST.2007.narrabn.c5.vflip.jpg'
p1417
I2
sS'daytimex_1379624427.Fri.Sep.20_07_00_27.AEST.2013.narrabn.c5.erase.jpg'
p1418
I4
sS'daytimex_1130446828.Fri.Oct.28_07_00_28.AEST.2005.narrabn.c5.erase.jpg'
p1419
I3
sS'daytimex_1141246827.Thu.Mar.02_07_00_27.AEST.2006.narrabn.c5.jpg'
p1420
I1
sS'daytimex_1210021227.Tue.May.06_07_00_27.AEST.2008.narrabn.c5.rot.jpg'
p1421
I2
sS'daytimex_1237323627.Wed.Mar.18_07_00_27.AEST.2009.narrabn.c5.jpg'
p1422
I2
sS'daytimex_1394830828.Sat.Mar.15_07_00_28.AEST.2014.narrabn.c5.jpg'
p1423
I1
sS'daytimex_1205960427.Thu.Mar.20_07_00_27.AEST.2008.narrabn.c5.vflip.jpg'
p1424
I1
sS'daytimex_1095542444.Sun.Sep.19_07_20_44.AEST.2004.narrabn.c5.gamma.jpg'
p1425
I1
sS'daytimex_1239138028.Wed.Apr.08_07_00_28.AEST.2009.narrabn.c5.vflip.jpg'
p1426
I3
sS'daytimex_1366059626.Tue.Apr.16_07_00_26.AEST.2013.narrabn.c5.rot.jpg'
p1427
I4
sS'daytimex_1115586027.Mon.May.09_07_00_27.AEST.2005.narrabn.c5.erase.jpg'
p1428
I0
sS'daytimex_1184706028.Wed.Jul.18_07_00_28.AEST.2007.narrabn.c5.jpg'
p1429
I2
sS'daytimex_1102712427.Sat.Dec.11_07_00_27.AEST.2004.narrabn.c5.rot.jpg'
p1430
I4
sS'daytimex_1393707627.Sun.Mar.02_07_00_27.AEST.2014.narrabn.c5.rot.jpg'
p1431
I1
sS'daytimex_1363381227.Sat.Mar.16_07_00_27.AEST.2013.narrabn.c5.vflip.jpg'
p1432
I4
sS'daytimex_1339448428.Tue.Jun.12_07_00_28.AEST.2012.narrabn.c5.erase.jpg'
p1433
I0
sS'daytimex_1169326827.Sun.Jan.21_07_00_27.AEST.2007.narrabn.c5.gamma.jpg'
p1434
I4
sS'daytimex_1375736428.Tue.Aug.06_07_00_28.AEST.2013.narrabn.c5.jpg'
p1435
I2
sS'daytimex_1362603627.Thu.Mar.07_07_00_27.AEST.2013.narrabn.c5.rot.jpg'
p1436
I0
sS'daytimex_1168808428.Mon.Jan.15_07_00_28.AEST.2007.narrabn.c5.rot.jpg'
p1437
I3
sS'daytimex_1426642207.Wed.Mar.18_11_30_07.AEST.2015.narrabn.c5.jpg'
p1438
I1
sS'daytimex_1151614827.Fri.Jun.30_07_00_27.AEST.2006.narrabn.c5.rot.jpg'
p1439
I0
sS'daytimex_1269550828.Fri.Mar.26_07_00_28.AEST.2010.narrabn.c5.jpg'
p1440
I1
sS'daytimex_1091568045.Wed.Aug.04_07_20_45.AEST.2004.narrabn.c5.erase.jpg'
p1441
I1
sS'daytimex_1177966828.Tue.May.01_07_00_28.AEST.2007.narrabn.c5.jpg'
p1442
I0
sS'daytimex_1367701227.Sun.May.05_07_00_27.AEST.2013.narrabn.c5.hflip.jpg'
p1443
I3
sS'daytimex_1301864427.Mon.Apr.04_07_00_27.AEST.2011.narrabn.c5.jpg'
p1444
I4
sS'daytimex_1161205227.Thu.Oct.19_07_00_27.AEST.2006.narrabn.c5.rot.jpg'
p1445
I4
sS'daytimex_1106341227.Sat.Jan.22_07_00_27.AEST.2005.narrabn.c5.rot.jpg'
p1446
I3
sS'daytimex_1118264428.Thu.Jun.09_07_00_28.AEST.2005.narrabn.c5.gamma.jpg'
p1447
I2
sS'daytimex_1210280428.Fri.May.09_07_00_28.AEST.2008.narrabn.c5.rot.jpg'
p1448
I1
sS'daytimex_1179522028.Sat.May.19_07_00_28.AEST.2007.narrabn.c5.jpg'
p1449
I0
sS'daytimex_1206046827.Fri.Mar.21_07_00_27.AEST.2008.narrabn.c5.rot.jpg'
p1450
I1
sS'daytimex_1285621228.Tue.Sep.28_07_00_28.AEST.2010.narrabn.c5.hflip.jpg'
p1451
I0
sS'daytimex_1364072427.Sun.Mar.24_07_00_27.AEST.2013.narrabn.c5.jpg'
p1452
I4
sS'daytimex_1218574827.Wed.Aug.13_07_00_27.AEST.2008.narrabn.c5.hflip.jpg'
p1453
I0
sS'daytimex_1362344426.Mon.Mar.04_07_00_26.AEST.2013.narrabn.c5.vflip.jpg'
p1454
I0
sS'daytimex_1104699628.Mon.Jan.03_07_00_28.AEST.2005.narrabn.c5.vflip.jpg'
p1455
I2
sS'daytimex_1336770028.Sat.May.12_07_00_28.AEST.2012.narrabn.c5.vflip.jpg'
p1456
I2
sS'daytimex_1119733228.Sun.Jun.26_07_00_28.AEST.2005.narrabn.c5.hflip.jpg'
p1457
I3
sS'daytimex_1244667628.Thu.Jun.11_07_00_28.AEST.2009.narrabn.c5.erase.jpg'
p1458
I0
sS'daytimex_1166475628.Tue.Dec.19_07_00_28.AEST.2006.narrabn.c5.gamma.jpg'
p1459
I1
sS'daytimex_1358283627.Wed.Jan.16_07_00_27.AEST.2013.narrabn.c5.gamma.jpg'
p1460
I1
sS'daytimex_1296248427.Sat.Jan.29_07_00_27.AEST.2011.narrabn.c5.jpg'
p1461
I2
sS'daytimex_1299358827.Sun.Mar.06_07_00_27.AEST.2011.narrabn.c5.jpg'
p1462
I0
sS'daytimex_1106514027.Mon.Jan.24_07_00_27.AEST.2005.narrabn.c5.rot.jpg'
p1463
I3
sS'daytimex_1413493206.Fri.Oct.17_07_00_06.AEST.2014.narrabn.c5.erase.jpg'
p1464
I3
sS'daytimex_1253394027.Sun.Sep.20_07_00_27.AEST.2009.narrabn.c5.jpg'
p1465
I1
sS'daytimex_1377205228.Fri.Aug.23_07_00_28.AEST.2013.narrabn.c5.jpg'
p1466
I0
sS'daytimex_1311627628.Tue.Jul.26_07_00_28.AEST.2011.narrabn.c5.vflip.jpg'
p1467
I3
sS'daytimex_1266267628.Tue.Feb.16_07_00_28.AEST.2010.narrabn.c5.jpg'
p1468
I2
sS'daytimex_1192136427.Fri.Oct.12_07_00_27.AEST.2007.narrabn.c5.gamma.jpg'
p1469
I1
sS'daytimex_1269032427.Sat.Mar.20_07_00_27.AEST.2010.narrabn.c5.erase.jpg'
p1470
I0
sS'daytimex_1367701227.Sun.May.05_07_00_27.AEST.2013.narrabn.c5.gamma.jpg'
p1471
I3
sS'daytimex_1122843628.Mon.Aug.01_07_00_28.AEST.2005.narrabn.c5.gamma.jpg'
p1472
I0
sS'daytimex_1207429228.Sun.Apr.06_07_00_28.AEST.2008.narrabn.c5.gamma.jpg'
p1473
I0
sS'daytimex_1194469228.Thu.Nov.08_07_00_28.AEST.2007.narrabn.c5.hflip.jpg'
p1474
I3
sS'daytimex_1313614827.Thu.Aug.18_07_00_27.AEST.2011.narrabn.c5.vflip.jpg'
p1475
I2
sS'daytimex_1363294826.Fri.Mar.15_07_00_26.AEST.2013.narrabn.c5.jpg'
p1476
I4
sS'daytimex_1395867628.Thu.Mar.27_07_00_28.AEST.2014.narrabn.c5.erase.jpg'
p1477
I1
sS'daytimex_1179435627.Fri.May.18_07_00_27.AEST.2007.narrabn.c5.vflip.jpg'
p1478
I1
sS'daytimex_1363899627.Fri.Mar.22_07_00_27.AEST.2013.narrabn.c5.vflip.jpg'
p1479
I4
sS'daytimex_1125781227.Sun.Sep.04_07_00_27.AEST.2005.narrabn.c5.vflip.jpg'
p1480
I3
sS'daytimex_1264194027.Sat.Jan.23_07_00_27.AEST.2010.narrabn.c5.vflip.jpg'
p1481
I1
sS'daytimex_1335128427.Mon.Apr.23_07_00_27.AEST.2012.narrabn.c5.hflip.jpg'
p1482
I3
sS'daytimex_1244322027.Sun.Jun.07_07_00_27.AEST.2009.narrabn.c5.gamma.jpg'
p1483
I0
sS'daytimex_1178226028.Fri.May.04_07_00_28.AEST.2007.narrabn.c5.rot.jpg'
p1484
I0
sS'daytimex_1259442028.Sun.Nov.29_07_00_28.AEST.2009.narrabn.c5.erase.jpg'
p1485
I3
sS'daytimex_1102712427.Sat.Dec.11_07_00_27.AEST.2004.narrabn.c5.jpg'
p1486
I4
sS'daytimex_1358283627.Wed.Jan.16_07_00_27.AEST.2013.narrabn.c5.vflip.jpg'
p1487
I1
sS'daytimex_1278795628.Sun.Jul.11_07_00_28.AEST.2010.narrabn.c5.vflip.jpg'
p1488
I1
sS'daytimex_1249592428.Fri.Aug.07_07_00_28.AEST.2009.narrabn.c5.rot.jpg'
p1489
I1
sS'daytimex_1252270827.Mon.Sep.07_07_00_27.AEST.2009.narrabn.c5.vflip.jpg'
p1490
I4
sS'daytimex_1164229228.Thu.Nov.23_07_00_28.AEST.2006.narrabn.c5.vflip.jpg'
p1491
I3
sS'daytimex_1137013242.Thu.Jan.12_07_00_42.AEST.2006.narrabn.c5.hflip.jpg'
p1492
I3
sS'daytimex_1174338027.Tue.Mar.20_07_00_27.AEST.2007.narrabn.c5.hflip.jpg'
p1493
I0
sS'daytimex_1206046827.Fri.Mar.21_07_00_27.AEST.2008.narrabn.c5.gamma.jpg'
p1494
I1
sS'daytimex_1193346027.Fri.Oct.26_07_00_27.AEST.2007.narrabn.c5.erase.jpg'
p1495
I1
sS'daytimex_1303506028.Sat.Apr.23_07_00_28.AEST.2011.narrabn.c5.vflip.jpg'
p1496
I0
sS'daytimex_1189458027.Tue.Sep.11_07_00_27.AEST.2007.narrabn.c5.erase.jpg'
p1497
I3
sS'daytimex_1277758827.Tue.Jun.29_07_00_27.AEST.2010.narrabn.c5.rot.jpg'
p1498
I2
sS'daytimex_1307134828.Sat.Jun.04_07_00_28.AEST.2011.narrabn.c5.hflip.jpg'
p1499
I3
sS'daytimex_1367096427.Sun.Apr.28_07_00_27.AEST.2013.narrabn.c5.vflip.jpg'
p1500
I0
sS'daytimex_1130878828.Wed.Nov.02_07_00_28.AEST.2005.narrabn.c5.gamma.jpg'
p1501
I3
sS'daytimex_1276635628.Wed.Jun.16_07_00_28.AEST.2010.narrabn.c5.hflip.jpg'
p1502
I2
sS'daytimex_1300482028.Sat.Mar.19_07_00_28.AEST.2011.narrabn.c5.gamma.jpg'
p1503
I1
sS'daytimex_1382389228.Tue.Oct.22_07_00_28.AEST.2013.narrabn.c5.erase.jpg'
p1504
I3
sS'daytimex_1272056427.Sat.Apr.24_07_00_27.AEST.2010.narrabn.c5.hflip.jpg'
p1505
I0
sS'daytimex_1297803627.Wed.Feb.16_07_00_27.AEST.2011.narrabn.c5.hflip.jpg'
p1506
I1
sS'daytimex_1141506027.Sun.Mar.05_07_00_27.AEST.2006.narrabn.c5.rot.jpg'
p1507
I4
sS'daytimex_1352494827.Sat.Nov.10_07_00_27.AEST.2012.narrabn.c5.rot.jpg'
p1508
I3
sS'daytimex_1133470828.Fri.Dec.02_07_00_28.AEST.2005.narrabn.c5.vflip.jpg'
p1509
I3
sS'daytimex_1355432427.Fri.Dec.14_07_00_27.AEST.2012.narrabn.c5.gamma.jpg'
p1510
I3
sS'daytimex_1176066028.Mon.Apr.09_07_00_28.AEST.2007.narrabn.c5.jpg'
p1511
I1
sS'daytimex_1113771628.Mon.Apr.18_07_00_28.AEST.2005.narrabn.c5.vflip.jpg'
p1512
I2
sS'daytimex_1376859628.Mon.Aug.19_07_00_28.AEST.2013.narrabn.c5.erase.jpg'
p1513
I2
sS'daytimex_1218920428.Sun.Aug.17_07_00_28.AEST.2008.narrabn.c5.hflip.jpg'
p1514
I1
sS'daytimex_1338670828.Sun.Jun.03_07_00_28.AEST.2012.narrabn.c5.rot.jpg'
p1515
I1
sS'daytimex_1200085228.Sat.Jan.12_07_00_28.AEST.2008.narrabn.c5.jpg'
p1516
I4
sS'daytimex_1216328427.Fri.Jul.18_07_00_27.AEST.2008.narrabn.c5.vflip.jpg'
p1517
I0
sS'daytimex_1136062828.Sun.Jan.01_07_00_28.AEST.2006.narrabn.c5.hflip.jpg'
p1518
I2
sS'daytimex_1321045227.Sat.Nov.12_07_00_27.AEST.2011.narrabn.c5.gamma.jpg'
p1519
I1
sS'daytimex_1123448428.Mon.Aug.08_07_00_28.AEST.2005.narrabn.c5.jpg'
p1520
I2
sS'daytimex_1421803807.Wed.Jan.21_11_30_07.AEST.2015.narrabn.c5.vflip.jpg'
p1521
I1
sS'daytimex_1304370028.Tue.May.03_07_00_28.AEST.2011.narrabn.c5.hflip.jpg'
p1522
I4
sS'daytimex_1303160427.Tue.Apr.19_07_00_27.AEST.2011.narrabn.c5.vflip.jpg'
p1523
I1
sS'daytimex_1369515627.Sun.May.26_07_00_27.AEST.2013.narrabn.c5.gamma.jpg'
p1524
I2
sS'daytimex_1098652844.Mon.Oct.25_07_20_44.AEST.2004.narrabn.c5.vflip.jpg'
p1525
I4
sS'daytimex_1280350828.Thu.Jul.29_07_00_28.AEST.2010.narrabn.c5.vflip.jpg'
p1526
I1
sS'daytimex_1352494827.Sat.Nov.10_07_00_27.AEST.2012.narrabn.c5.gamma.jpg'
p1527
I3
sS'daytimex_1282856427.Fri.Aug.27_07_00_27.AEST.2010.narrabn.c5.hflip.jpg'
p1528
I2
sS'daytimex_1375736428.Tue.Aug.06_07_00_28.AEST.2013.narrabn.c5.vflip.jpg'
p1529
I2
sS'daytimex_1110920428.Wed.Mar.16_07_00_28.AEST.2005.narrabn.c5.hflip.jpg'
p1530
I4
sS'daytimex_1115413227.Sat.May.07_07_00_27.AEST.2005.narrabn.c5.rot.jpg'
p1531
I0
sS'daytimex_1397077227.Thu.Apr.10_07_00_27.AEST.2014.narrabn.c5.hflip.jpg'
p1532
I1
sS'daytimex_1174683628.Sat.Mar.24_07_00_28.AEST.2007.narrabn.c5.erase.jpg'
p1533
I0
sS'daytimex_1289336428.Wed.Nov.10_07_00_28.AEST.2010.narrabn.c5.hflip.jpg'
p1534
I3
sS'daytimex_1363899627.Fri.Mar.22_07_00_27.AEST.2013.narrabn.c5.erase.jpg'
p1535
I4
sS'daytimex_1233608428.Tue.Feb.03_07_00_28.AEST.2009.narrabn.c5.jpg'
p1536
I1
sS'daytimex_1390078828.Sun.Jan.19_07_00_28.AEST.2014.narrabn.c5.hflip.jpg'
p1537
I4
sS'daytimex_1363122026.Wed.Mar.13_07_00_26.AEST.2013.narrabn.c5.erase.jpg'
p1538
I4
sS'daytimex_1176066028.Mon.Apr.09_07_00_28.AEST.2007.narrabn.c5.vflip.jpg'
p1539
I1
sS'daytimex_1304370028.Tue.May.03_07_00_28.AEST.2011.narrabn.c5.gamma.jpg'
p1540
I4
sS'daytimex_1290459628.Tue.Nov.23_07_00_28.AEST.2010.narrabn.c5.rot.jpg'
p1541
I2
sS'daytimex_1413493206.Fri.Oct.17_07_00_06.AEST.2014.narrabn.c5.jpg'
p1542
I3
sS'daytimex_1123362028.Sun.Aug.07_07_00_28.AEST.2005.narrabn.c5.vflip.jpg'
p1543
I3
sS'daytimex_1098566444.Sun.Oct.24_07_20_44.AEST.2004.narrabn.c5.gamma.jpg'
p1544
I4
sS'daytimex_1395867628.Thu.Mar.27_07_00_28.AEST.2014.narrabn.c5.hflip.jpg'
p1545
I1
sS'daytimex_1199653228.Mon.Jan.07_07_00_28.AEST.2008.narrabn.c5.rot.jpg'
p1546
I4
sS'daytimex_1151701228.Sat.Jul.01_07_00_28.AEST.2006.narrabn.c5.gamma.jpg'
p1547
I0
sS'daytimex_1262379627.Sat.Jan.02_07_00_27.AEST.2010.narrabn.c5.hflip.jpg'
p1548
I3
sS'daytimex_1349730027.Tue.Oct.09_07_00_27.AEST.2012.narrabn.c5.hflip.jpg'
p1549
I3
sS'daytimex_1179435627.Fri.May.18_07_00_27.AEST.2007.narrabn.c5.rot.jpg'
p1550
I1
sS'daytimex_1102712427.Sat.Dec.11_07_00_27.AEST.2004.narrabn.c5.erase.jpg'
p1551
I4
sS'daytimex_1199739627.Tue.Jan.08_07_00_27.AEST.2008.narrabn.c5.rot.jpg'
p1552
I4
sS'daytimex_1362690026.Fri.Mar.08_07_00_26.AEST.2013.narrabn.c5.hflip.jpg'
p1553
I0
sS'daytimex_1193432428.Sat.Oct.27_07_00_28.AEST.2007.narrabn.c5.gamma.jpg'
p1554
I1
sS'daytimex_1141506027.Sun.Mar.05_07_00_27.AEST.2006.narrabn.c5.vflip.jpg'
p1555
I4
sS'daytimex_1272315628.Tue.Apr.27_07_00_28.AEST.2010.narrabn.c5.jpg'
p1556
I0
sS'daytimex_1202331628.Thu.Feb.07_07_00_28.AEST.2008.narrabn.c5.rot.jpg'
p1557
I4
sS'daytimex_1200949228.Tue.Jan.22_07_00_28.AEST.2008.narrabn.c5.jpg'
p1558
I2
sS'daytimex_1390165228.Mon.Jan.20_07_00_28.AEST.2014.narrabn.c5.hflip.jpg'
p1559
I4
sS'daytimex_1366750827.Wed.Apr.24_07_00_27.AEST.2013.narrabn.c5.hflip.jpg'
p1560
I3
sS'daytimex_1218747627.Fri.Aug.15_07_00_27.AEST.2008.narrabn.c5.gamma.jpg'
p1561
I1
sS'daytimex_1119733228.Sun.Jun.26_07_00_28.AEST.2005.narrabn.c5.jpg'
p1562
I3
sS'daytimex_1413493206.Fri.Oct.17_07_00_06.AEST.2014.narrabn.c5.gamma.jpg'
p1563
I3
sS'daytimex_1365454827.Tue.Apr.09_07_00_27.AEST.2013.narrabn.c5.gamma.jpg'
p1564
I4
sS'daytimex_1231016428.Sun.Jan.04_07_00_28.AEST.2009.narrabn.c5.rot.jpg'
p1565
I3
sS'daytimex_1244494828.Tue.Jun.09_07_00_28.AEST.2009.narrabn.c5.rot.jpg'
p1566
I0
sS'daytimex_1390424427.Thu.Jan.23_07_00_27.AEST.2014.narrabn.c5.vflip.jpg'
p1567
I2
sS'daytimex_1422322207.Tue.Jan.27_11_30_07.AEST.2015.narrabn.c5.jpg'
p1568
I3
sS'daytimex_1367269226.Tue.Apr.30_07_00_26.AEST.2013.narrabn.c5.hflip.jpg'
p1569
I0
sS'daytimex_1199307628.Thu.Jan.03_07_00_28.AEST.2008.narrabn.c5.vflip.jpg'
p1570
I4
sS'daytimex_1246309228.Tue.Jun.30_07_00_28.AEST.2009.narrabn.c5.erase.jpg'
p1571
I0
sS'daytimex_1166907628.Sun.Dec.24_07_00_28.AEST.2006.narrabn.c5.gamma.jpg'
p1572
I3
sS'daytimex_1303506028.Sat.Apr.23_07_00_28.AEST.2011.narrabn.c5.rot.jpg'
p1573
I0
sS'daytimex_1364245227.Tue.Mar.26_07_00_27.AEST.2013.narrabn.c5.vflip.jpg'
p1574
I3
sS'daytimex_1367701227.Sun.May.05_07_00_27.AEST.2013.narrabn.c5.jpg'
p1575
I3
sS'daytimex_1414357207.Mon.Oct.27_07_00_07.AEST.2014.narrabn.c5.jpg'
p1576
I2
sS'daytimex_1118264428.Thu.Jun.09_07_00_28.AEST.2005.narrabn.c5.hflip.jpg'
p1577
I2
sS'daytimex_1368478827.Tue.May.14_07_00_27.AEST.2013.narrabn.c5.rot.jpg'
p1578
I2
sS'daytimex_1170104428.Tue.Jan.30_07_00_28.AEST.2007.narrabn.c5.rot.jpg'
p1579
I2
sS'daytimex_1232658027.Fri.Jan.23_07_00_27.AEST.2009.narrabn.c5.gamma.jpg'
p1580
I3
sS'daytimex_1112562027.Mon.Apr.04_07_00_27.AEST.2005.narrabn.c5.erase.jpg'
p1581
I2
sS'daytimex_1158613228.Tue.Sep.19_07_00_28.AEST.2006.narrabn.c5.erase.jpg'
p1582
I2
sS'daytimex_1165525227.Fri.Dec.08_07_00_27.AEST.2006.narrabn.c5.jpg'
p1583
I0
sS'daytimex_1129755628.Thu.Oct.20_07_00_28.AEST.2005.narrabn.c5.hflip.jpg'
p1584
I4
sS'daytimex_1129842028.Fri.Oct.21_07_00_28.AEST.2005.narrabn.c5.hflip.jpg'
p1585
I4
sS'daytimex_1115067628.Tue.May.03_07_00_28.AEST.2005.narrabn.c5.erase.jpg'
p1586
I0
sS'daytimex_1115413227.Sat.May.07_07_00_27.AEST.2005.narrabn.c5.gamma.jpg'
p1587
I0
sS'daytimex_1279141227.Thu.Jul.15_07_00_27.AEST.2010.narrabn.c5.jpg'
p1588
I0
sS'daytimex_1421803807.Wed.Jan.21_11_30_07.AEST.2015.narrabn.c5.jpg'
p1589
I1
sS'daytimex_1169326827.Sun.Jan.21_07_00_27.AEST.2007.narrabn.c5.erase.jpg'
p1590
I4
sS'daytimex_1102453228.Wed.Dec.08_07_00_28.AEST.2004.narrabn.c5.jpg'
p1591
I4
sS'daytimex_1298926828.Tue.Mar.01_07_00_28.AEST.2011.narrabn.c5.hflip.jpg'
p1592
I0
sS'daytimex_1199912427.Thu.Jan.10_07_00_27.AEST.2008.narrabn.c5.rot.jpg'
p1593
I4
sS'daytimex_1297803627.Wed.Feb.16_07_00_27.AEST.2011.narrabn.c5.gamma.jpg'
p1594
I1
sS'daytimex_1230757227.Thu.Jan.01_07_00_27.AEST.2009.narrabn.c5.erase.jpg'
p1595
I2
sS'daytimex_1305752427.Thu.May.19_07_00_27.AEST.2011.narrabn.c5.vflip.jpg'
p1596
I1
sS'daytimex_1115586027.Mon.May.09_07_00_27.AEST.2005.narrabn.c5.gamma.jpg'
p1597
I0
sS'daytimex_1298926828.Tue.Mar.01_07_00_28.AEST.2011.narrabn.c5.gamma.jpg'
p1598
I0
sS'daytimex_1125781227.Sun.Sep.04_07_00_27.AEST.2005.narrabn.c5.gamma.jpg'
p1599
I3
sS'daytimex_1272056427.Sat.Apr.24_07_00_27.AEST.2010.narrabn.c5.erase.jpg'
p1600
I0
sS'daytimex_1258837227.Sun.Nov.22_07_00_27.AEST.2009.narrabn.c5.jpg'
p1601
I4
sS'daytimex_1365109227.Fri.Apr.05_07_00_27.AEST.2013.narrabn.c5.gamma.jpg'
p1602
I4
sS'daytimex_1093641644.Sat.Aug.28_07_20_44.AEST.2004.narrabn.c5.rot.jpg'
p1603
I2
sS'daytimex_1276635628.Wed.Jun.16_07_00_28.AEST.2010.narrabn.c5.jpg'
p1604
I2
sS'daytimex_1272747627.Sun.May.02_07_00_27.AEST.2010.narrabn.c5.hflip.jpg'
p1605
I0
sS'daytimex_1422322207.Tue.Jan.27_11_30_07.AEST.2015.narrabn.c5.hflip.jpg'
p1606
I3
sS'daytimex_1366750827.Wed.Apr.24_07_00_27.AEST.2013.narrabn.c5.gamma.jpg'
p1607
I3
sS'daytimex_1297890028.Thu.Feb.17_07_00_28.AEST.2011.narrabn.c5.hflip.jpg'
p1608
I1
sS'daytimex_1295643628.Sat.Jan.22_07_00_28.AEST.2011.narrabn.c5.gamma.jpg'
p1609
I2
sS'daytimex_1366750827.Wed.Apr.24_07_00_27.AEST.2013.narrabn.c5.jpg'
p1610
I3
sS'daytimex_1349730027.Tue.Oct.09_07_00_27.AEST.2012.narrabn.c5.gamma.jpg'
p1611
I3
sS'daytimex_1300482028.Sat.Mar.19_07_00_28.AEST.2011.narrabn.c5.rot.jpg'
p1612
I1
sS'daytimex_1207429228.Sun.Apr.06_07_00_28.AEST.2008.narrabn.c5.jpg'
p1613
I0
sS'daytimex_1096752044.Sun.Oct.03_07_20_44.AEST.2004.narrabn.c5.jpg'
p1614
I4
sS'daytimex_1303160427.Tue.Apr.19_07_00_27.AEST.2011.narrabn.c5.rot.jpg'
p1615
I1
sS'daytimex_1166907628.Sun.Dec.24_07_00_28.AEST.2006.narrabn.c5.jpg'
p1616
I3
sS'daytimex_1131915627.Mon.Nov.14_07_00_27.AEST.2005.narrabn.c5.jpg'
p1617
I3
sS'daytimex_1160082028.Fri.Oct.06_07_00_28.AEST.2006.narrabn.c5.jpg'
p1618
I1
sS'daytimex_1269032427.Sat.Mar.20_07_00_27.AEST.2010.narrabn.c5.gamma.jpg'
p1619
I0
sS'daytimex_1382302828.Mon.Oct.21_07_00_28.AEST.2013.narrabn.c5.erase.jpg'
p1620
I2
sS'daytimex_1364763627.Mon.Apr.01_07_00_27.AEST.2013.narrabn.c5.hflip.jpg'
p1621
I4
sS'daytimex_1238360427.Mon.Mar.30_07_00_27.AEST.2009.narrabn.c5.erase.jpg'
p1622
I4
sS'daytimex_1278795628.Sun.Jul.11_07_00_28.AEST.2010.narrabn.c5.jpg'
p1623
I1
sS'daytimex_1119733228.Sun.Jun.26_07_00_28.AEST.2005.narrabn.c5.gamma.jpg'
p1624
I3
sS'daytimex_1390424427.Thu.Jan.23_07_00_27.AEST.2014.narrabn.c5.jpg'
p1625
I2
sS'daytimex_1161205227.Thu.Oct.19_07_00_27.AEST.2006.narrabn.c5.hflip.jpg'
p1626
I4
sS'daytimex_1252184428.Sun.Sep.06_07_00_28.AEST.2009.narrabn.c5.hflip.jpg'
p1627
I1
sS'daytimex_1118264428.Thu.Jun.09_07_00_28.AEST.2005.narrabn.c5.erase.jpg'
p1628
I2
sS'daytimex_1338670828.Sun.Jun.03_07_00_28.AEST.2012.narrabn.c5.hflip.jpg'
p1629
I1
sS'daytimex_1391115627.Fri.Jan.31_07_00_27.AEST.2014.narrabn.c5.vflip.jpg'
p1630
I0
sS'daytimex_1115067628.Tue.May.03_07_00_28.AEST.2005.narrabn.c5.jpg'
p1631
I0
sS'daytimex_1112130027.Wed.Mar.30_07_00_27.AEST.2005.narrabn.c5.jpg'
p1632
I3
sS'daytimex_1252184428.Sun.Sep.06_07_00_28.AEST.2009.narrabn.c5.gamma.jpg'
p1633
I1
sS'daytimex_1311627628.Tue.Jul.26_07_00_28.AEST.2011.narrabn.c5.jpg'
p1634
I3
sS'daytimex_1223931628.Tue.Oct.14_07_00_28.AEST.2008.narrabn.c5.vflip.jpg'
p1635
I3
sS'daytimex_1141506027.Sun.Mar.05_07_00_27.AEST.2006.narrabn.c5.erase.jpg'
p1636
I4
sS'daytimex_1366837226.Thu.Apr.25_07_00_26.AEST.2013.narrabn.c5.jpg'
p1637
I4
sS'daytimex_1364331627.Wed.Mar.27_07_00_27.AEST.2013.narrabn.c5.vflip.jpg'
p1638
I4
sS'daytimex_1166475628.Tue.Dec.19_07_00_28.AEST.2006.narrabn.c5.vflip.jpg'
p1639
I1
sS'daytimex_1174683628.Sat.Mar.24_07_00_28.AEST.2007.narrabn.c5.jpg'
p1640
I0
sS'daytimex_1263675627.Sun.Jan.17_07_00_27.AEST.2010.narrabn.c5.rot.jpg'
p1641
I2
sS'daytimex_1390165228.Mon.Jan.20_07_00_28.AEST.2014.narrabn.c5.gamma.jpg'
p1642
I4
sS'daytimex_1313182827.Sat.Aug.13_07_00_27.AEST.2011.narrabn.c5.vflip.jpg'
p1643
I2
sS'daytimex_1105131627.Sat.Jan.08_07_00_27.AEST.2005.narrabn.c5.jpg'
p1644
I3
sS'daytimex_1238014828.Thu.Mar.26_07_00_28.AEST.2009.narrabn.c5.rot.jpg'
p1645
I4
sS'daytimex_1238014828.Thu.Mar.26_07_00_28.AEST.2009.narrabn.c5.vflip.jpg'
p1646
I4
sS'daytimex_1210366827.Sat.May.10_07_00_27.AEST.2008.narrabn.c5.erase.jpg'
p1647
I1
sS'daytimex_1200430827.Wed.Jan.16_07_00_27.AEST.2008.narrabn.c5.jpg'
p1648
I3
sS'daytimex_1132088427.Wed.Nov.16_07_00_27.AEST.2005.narrabn.c5.hflip.jpg'
p1649
I2
sS'daytimex_1364763627.Mon.Apr.01_07_00_27.AEST.2013.narrabn.c5.jpg'
p1650
I4
sS'daytimex_1382389228.Tue.Oct.22_07_00_28.AEST.2013.narrabn.c5.jpg'
p1651
I3
sS'daytimex_1289336428.Wed.Nov.10_07_00_28.AEST.2010.narrabn.c5.jpg'
p1652
I3
sS'daytimex_1364590827.Sat.Mar.30_07_00_27.AEST.2013.narrabn.c5.jpg'
p1653
I3
sS'daytimex_1112562027.Mon.Apr.04_07_00_27.AEST.2005.narrabn.c5.jpg'
p1654
I2
sS'daytimex_1102626027.Fri.Dec.10_07_00_27.AEST.2004.narrabn.c5.hflip.jpg'
p1655
I4
sS'daytimex_1396990828.Wed.Apr.09_07_00_28.AEST.2014.narrabn.c5.jpg'
p1656
I1
sS'daytimex_1177102828.Sat.Apr.21_07_00_28.AEST.2007.narrabn.c5.rot.jpg'
p1657
I0
sS'daytimex_1160082028.Fri.Oct.06_07_00_28.AEST.2006.narrabn.c5.rot.jpg'
p1658
I1
sS'daytimex_1113598827.Sat.Apr.16_07_00_27.AEST.2005.narrabn.c5.erase.jpg'
p1659
I2
sS'daytimex_1322686827.Thu.Dec.01_07_00_27.AEST.2011.narrabn.c5.jpg'
p1660
I4
sS'daytimex_1269118827.Sun.Mar.21_07_00_27.AEST.2010.narrabn.c5.jpg'
p1661
I1
sS'daytimex_1218920428.Sun.Aug.17_07_00_28.AEST.2008.narrabn.c5.vflip.jpg'
p1662
I1
sS'daytimex_1156798828.Tue.Aug.29_07_00_28.AEST.2006.narrabn.c5.hflip.jpg'
p1663
I1
sS'daytimex_1113339627.Wed.Apr.13_07_00_27.AEST.2005.narrabn.c5.jpg'
p1664
I2
sS'daytimex_1363467627.Sun.Mar.17_07_00_27.AEST.2013.narrabn.c5.jpg'
p1665
I4
sS'daytimex_1311973227.Sat.Jul.30_07_00_27.AEST.2011.narrabn.c5.jpg'
p1666
I3
sS'daytimex_1200171628.Sun.Jan.13_07_00_28.AEST.2008.narrabn.c5.erase.jpg'
p1667
I4
sS'daytimex_1272056427.Sat.Apr.24_07_00_27.AEST.2010.narrabn.c5.vflip.jpg'
p1668
I0
sS'daytimex_1199566827.Sun.Jan.06_07_00_27.AEST.2008.narrabn.c5.jpg'
p1669
I4
sS'daytimex_1168722027.Sun.Jan.14_07_00_27.AEST.2007.narrabn.c5.gamma.jpg'
p1670
I3
sS'daytimex_1115326827.Fri.May.06_07_00_27.AEST.2005.narrabn.c5.gamma.jpg'
p1671
I0
sS'daytimex_1396040427.Sat.Mar.29_07_00_27.AEST.2014.narrabn.c5.gamma.jpg'
p1672
I1
sS'daytimex_1406322007.Sat.Jul.26_07_00_07.AEST.2014.narrabn.c5.jpg'
p1673
I1
sS'daytimex_1300482028.Sat.Mar.19_07_00_28.AEST.2011.narrabn.c5.jpg'
p1674
I1
sS'daytimex_1169413228.Mon.Jan.22_07_00_28.AEST.2007.narrabn.c5.jpg'
p1675
I4
sS'daytimex_1382302828.Mon.Oct.21_07_00_28.AEST.2013.narrabn.c5.hflip.jpg'
p1676
I2
sS'daytimex_1146258028.Sat.Apr.29_07_00_28.AEST.2006.narrabn.c5.gamma.jpg'
p1677
I4
sS'daytimex_1244667628.Thu.Jun.11_07_00_28.AEST.2009.narrabn.c5.rot.jpg'
p1678
I0
sS'daytimex_1098825644.Wed.Oct.27_07_20_44.AEST.2004.narrabn.c5.hflip.jpg'
p1679
I4
sS'daytimex_1367269226.Tue.Apr.30_07_00_26.AEST.2013.narrabn.c5.rot.jpg'
p1680
I0
sS'daytimex_1278018028.Fri.Jul.02_07_00_28.AEST.2010.narrabn.c5.gamma.jpg'
p1681
I1
sS'daytimex_1132347628.Sat.Nov.19_07_00_28.AEST.2005.narrabn.c5.rot.jpg'
p1682
I2
sS'daytimex_1169413228.Mon.Jan.22_07_00_28.AEST.2007.narrabn.c5.vflip.jpg'
p1683
I4
sS'daytimex_1307048427.Fri.Jun.03_07_00_27.AEST.2011.narrabn.c5.rot.jpg'
p1684
I4
sS'daytimex_1366837226.Thu.Apr.25_07_00_26.AEST.2013.narrabn.c5.vflip.jpg'
p1685
I4
sS'daytimex_1099171245.Sun.Oct.31_07_20_45.AEST.2004.narrabn.c5.gamma.jpg'
p1686
I3
sS'daytimex_1115586027.Mon.May.09_07_00_27.AEST.2005.narrabn.c5.jpg'
p1687
I0
sS'daytimex_1249592428.Fri.Aug.07_07_00_28.AEST.2009.narrabn.c5.gamma.jpg'
p1688
I1
sS'daytimex_1230757227.Thu.Jan.01_07_00_27.AEST.2009.narrabn.c5.rot.jpg'
p1689
I2
sS'daytimex_1244581228.Wed.Jun.10_07_00_28.AEST.2009.narrabn.c5.hflip.jpg'
p1690
I0
sS'daytimex_1168981228.Wed.Jan.17_07_00_28.AEST.2007.narrabn.c5.jpg'
p1691
I3
sS'daytimex_1389992427.Sat.Jan.18_07_00_27.AEST.2014.narrabn.c5.vflip.jpg'
p1692
I3
sS'daytimex_1203886827.Mon.Feb.25_07_00_27.AEST.2008.narrabn.c5.gamma.jpg'
p1693
I3
sS'daytimex_1168808428.Mon.Jan.15_07_00_28.AEST.2007.narrabn.c5.erase.jpg'
p1694
I3
sS'daytimex_1199998828.Fri.Jan.11_07_00_28.AEST.2008.narrabn.c5.hflip.jpg'
p1695
I4
sS'daytimex_1285362027.Sat.Sep.25_07_00_27.AEST.2010.narrabn.c5.rot.jpg'
p1696
I1
sS'daytimex_1363208427.Thu.Mar.14_07_00_27.AEST.2013.narrabn.c5.gamma.jpg'
p1697
I4
sS'daytimex_1295557227.Fri.Jan.21_07_00_27.AEST.2011.narrabn.c5.erase.jpg'
p1698
I2
sS'daytimex_1324760428.Sun.Dec.25_07_00_28.AEST.2011.narrabn.c5.jpg'
p1699
I1
sS'daytimex_1321045227.Sat.Nov.12_07_00_27.AEST.2011.narrabn.c5.vflip.jpg'
p1700
I1
sS'daytimex_1382389228.Tue.Oct.22_07_00_28.AEST.2013.narrabn.c5.hflip.jpg'
p1701
I3
sS'daytimex_1280523628.Sat.Jul.31_07_00_28.AEST.2010.narrabn.c5.jpg'
p1702
I0
sS'daytimex_1132261228.Fri.Nov.18_07_00_28.AEST.2005.narrabn.c5.hflip.jpg'
p1703
I3
sS'daytimex_1203886827.Mon.Feb.25_07_00_27.AEST.2008.narrabn.c5.hflip.jpg'
p1704
I3
sS'daytimex_1178312428.Sat.May.05_07_00_28.AEST.2007.narrabn.c5.jpg'
p1705
I0
sS'daytimex_1216414828.Sat.Jul.19_07_00_28.AEST.2008.narrabn.c5.hflip.jpg'
p1706
I0
sS'daytimex_1364072427.Sun.Mar.24_07_00_27.AEST.2013.narrabn.c5.gamma.jpg'
p1707
I4
sS'daytimex_1154120427.Sat.Jul.29_07_00_27.AEST.2006.narrabn.c5.jpg'
p1708
I4
sS'daytimex_1210021227.Tue.May.06_07_00_27.AEST.2008.narrabn.c5.hflip.jpg'
p1709
I2
sS'daytimex_1369515627.Sun.May.26_07_00_27.AEST.2013.narrabn.c5.vflip.jpg'
p1710
I2
sS'daytimex_1244235628.Sat.Jun.06_07_00_28.AEST.2009.narrabn.c5.hflip.jpg'
p1711
I0
sS'daytimex_1105304428.Mon.Jan.10_07_00_28.AEST.2005.narrabn.c5.vflip.jpg'
p1712
I2
sS'daytimex_1166475628.Tue.Dec.19_07_00_28.AEST.2006.narrabn.c5.hflip.jpg'
p1713
I1
sS'daytimex_1290459628.Tue.Nov.23_07_00_28.AEST.2010.narrabn.c5.gamma.jpg'
p1714
I2
sS'daytimex_1296248427.Sat.Jan.29_07_00_27.AEST.2011.narrabn.c5.rot.jpg'
p1715
I2
sS'daytimex_1332795628.Tue.Mar.27_07_00_28.AEST.2012.narrabn.c5.jpg'
p1716
I2
sS'daytimex_1220043628.Sat.Aug.30_07_00_28.AEST.2008.narrabn.c5.hflip.jpg'
p1717
I1
sS'daytimex_1096752044.Sun.Oct.03_07_20_44.AEST.2004.narrabn.c5.rot.jpg'
p1718
I4
sS'daytimex_1321822828.Mon.Nov.21_07_00_28.AEST.2011.narrabn.c5.vflip.jpg'
p1719
I0
sS'daytimex_1207429228.Sun.Apr.06_07_00_28.AEST.2008.narrabn.c5.rot.jpg'
p1720
I0
sS'daytimex_1211058028.Sun.May.18_07_00_28.AEST.2008.narrabn.c5.hflip.jpg'
p1721
I3
sS'daytimex_1200430827.Wed.Jan.16_07_00_27.AEST.2008.narrabn.c5.erase.jpg'
p1722
I3
sS'daytimex_1216414828.Sat.Jul.19_07_00_28.AEST.2008.narrabn.c5.jpg'
p1723
I0
sS'daytimex_1390165228.Mon.Jan.20_07_00_28.AEST.2014.narrabn.c5.rot.jpg'
p1724
I4
sS'daytimex_1249592428.Fri.Aug.07_07_00_28.AEST.2009.narrabn.c5.erase.jpg'
p1725
I1
sS'daytimex_1105822828.Sun.Jan.16_07_00_28.AEST.2005.narrabn.c5.hflip.jpg'
p1726
I4
sS'daytimex_1099171245.Sun.Oct.31_07_20_45.AEST.2004.narrabn.c5.jpg'
p1727
I3
sS'daytimex_1102712427.Sat.Dec.11_07_00_27.AEST.2004.narrabn.c5.hflip.jpg'
p1728
I4
sS'daytimex_1206046827.Fri.Mar.21_07_00_27.AEST.2008.narrabn.c5.erase.jpg'
p1729
I1
sS'daytimex_1298494828.Thu.Feb.24_07_00_28.AEST.2011.narrabn.c5.vflip.jpg'
p1730
I4
sS'daytimex_1386536428.Mon.Dec.09_07_00_28.AEST.2013.narrabn.c5.vflip.jpg'
p1731
I2
sS'daytimex_1210194028.Thu.May.08_07_00_28.AEST.2008.narrabn.c5.gamma.jpg'
p1732
I1
sS'daytimex_1362776427.Sat.Mar.09_07_00_27.AEST.2013.narrabn.c5.jpg'
p1733
I0
sS'daytimex_1210194028.Thu.May.08_07_00_28.AEST.2008.narrabn.c5.jpg'
p1734
I1
sS'daytimex_1336770028.Sat.May.12_07_00_28.AEST.2012.narrabn.c5.erase.jpg'
p1735
I2
sS'daytimex_1362862827.Sun.Mar.10_07_00_27.AEST.2013.narrabn.c5.gamma.jpg'
p1736
I4
sS'daytimex_1246309228.Tue.Jun.30_07_00_28.AEST.2009.narrabn.c5.gamma.jpg'
p1737
I0
sS'daytimex_1297890028.Thu.Feb.17_07_00_28.AEST.2011.narrabn.c5.jpg'
p1738
I1
sS'daytimex_1094764845.Fri.Sep.10_07_20_45.AEST.2004.narrabn.c5.rot.jpg'
p1739
I3
sS'daytimex_1170104428.Tue.Jan.30_07_00_28.AEST.2007.narrabn.c5.erase.jpg'
p1740
I2
sS'daytimex_1218747627.Fri.Aug.15_07_00_27.AEST.2008.narrabn.c5.vflip.jpg'
p1741
I1
sS'daytimex_1346533227.Sun.Sep.02_07_00_27.AEST.2012.narrabn.c5.gamma.jpg'
p1742
I2
sS'daytimex_1421803807.Wed.Jan.21_11_30_07.AEST.2015.narrabn.c5.hflip.jpg'
p1743
I1
sS'daytimex_1394658027.Thu.Mar.13_07_00_27.AEST.2014.narrabn.c5.jpg'
p1744
I0
sS'daytimex_1125781227.Sun.Sep.04_07_00_27.AEST.2005.narrabn.c5.rot.jpg'
p1745
I3
sS'daytimex_1115586027.Mon.May.09_07_00_27.AEST.2005.narrabn.c5.rot.jpg'
p1746
I0
sS'daytimex_1367096427.Sun.Apr.28_07_00_27.AEST.2013.narrabn.c5.erase.jpg'
p1747
I0
sS'daytimex_1093641644.Sat.Aug.28_07_20_44.AEST.2004.narrabn.c5.gamma.jpg'
p1748
I2
sS'daytimex_1296421228.Mon.Jan.31_07_00_28.AEST.2011.narrabn.c5.gamma.jpg'
p1749
I1
sS'daytimex_1106341227.Sat.Jan.22_07_00_27.AEST.2005.narrabn.c5.hflip.jpg'
p1750
I3
sS'daytimex_1364418026.Thu.Mar.28_07_00_26.AEST.2013.narrabn.c5.jpg'
p1751
I4
sS'daytimex_1369515627.Sun.May.26_07_00_27.AEST.2013.narrabn.c5.hflip.jpg'
p1752
I2
sS'daytimex_1286485227.Fri.Oct.08_07_00_27.AEST.2010.narrabn.c5.vflip.jpg'
p1753
I2
sS'daytimex_1246309228.Tue.Jun.30_07_00_28.AEST.2009.narrabn.c5.jpg'
p1754
I0
sS'daytimex_1244408427.Mon.Jun.08_07_00_27.AEST.2009.narrabn.c5.rot.jpg'
p1755
I0
sS'daytimex_1215032428.Thu.Jul.03_07_00_28.AEST.2008.narrabn.c5.rot.jpg'
p1756
I1
sS'daytimex_1149195628.Fri.Jun.02_07_00_28.AEST.2006.narrabn.c5.gamma.jpg'
p1757
I0
sS'daytimex_1282856427.Fri.Aug.27_07_00_27.AEST.2010.narrabn.c5.gamma.jpg'
p1758
I2
sS'daytimex_1358024426.Sun.Jan.13_07_00_26.AEST.2013.narrabn.c5.jpg'
p1759
I1
sS'daytimex_1363986027.Sat.Mar.23_07_00_27.AEST.2013.narrabn.c5.hflip.jpg'
p1760
I4
sS'daytimex_1148331627.Tue.May.23_07_00_27.AEST.2006.narrabn.c5.rot.jpg'
p1761
I1
sS'daytimex_1367701227.Sun.May.05_07_00_27.AEST.2013.narrabn.c5.erase.jpg'
p1762
I3
sS'daytimex_1264194027.Sat.Jan.23_07_00_27.AEST.2010.narrabn.c5.jpg'
p1763
I1
sS'daytimex_1366059626.Tue.Apr.16_07_00_26.AEST.2013.narrabn.c5.jpg'
p1764
I4
sS'daytimex_1091568045.Wed.Aug.04_07_20_45.AEST.2004.narrabn.c5.jpg'
p1765
I1
sS'daytimex_1364331627.Wed.Mar.27_07_00_27.AEST.2013.narrabn.c5.jpg'
p1766
I4
sS'daytimex_1199826027.Wed.Jan.09_07_00_27.AEST.2008.narrabn.c5.hflip.jpg'
p1767
I4
sS'daytimex_1129928428.Sat.Oct.22_07_00_28.AEST.2005.narrabn.c5.hflip.jpg'
p1768
I0
sS'daytimex_1202331628.Thu.Feb.07_07_00_28.AEST.2008.narrabn.c5.jpg'
p1769
I4
sS'daytimex_1246654827.Sat.Jul.04_07_00_27.AEST.2009.narrabn.c5.hflip.jpg'
p1770
I2
sS'daytimex_1154120427.Sat.Jul.29_07_00_27.AEST.2006.narrabn.c5.gamma.jpg'
p1771
I4
sS'daytimex_1169413228.Mon.Jan.22_07_00_28.AEST.2007.narrabn.c5.erase.jpg'
p1772
I4
sS'daytimex_1115154028.Wed.May.04_07_00_28.AEST.2005.narrabn.c5.vflip.jpg'
p1773
I1
sS'daytimex_1355432427.Fri.Dec.14_07_00_27.AEST.2012.narrabn.c5.hflip.jpg'
p1774
I3
sS'daytimex_1194469228.Thu.Nov.08_07_00_28.AEST.2007.narrabn.c5.gamma.jpg'
p1775
I3
sS'daytimex_1144702827.Tue.Apr.11_07_00_27.AEST.2006.narrabn.c5.gamma.jpg'
p1776
I3
sS'daytimex_1364245227.Tue.Mar.26_07_00_27.AEST.2013.narrabn.c5.erase.jpg'
p1777
I3
sS'daytimex_1215032428.Thu.Jul.03_07_00_28.AEST.2008.narrabn.c5.gamma.jpg'
p1778
I1
sS'daytimex_1192309228.Sun.Oct.14_07_00_28.AEST.2007.narrabn.c5.jpg'
p1779
I1
sS'daytimex_1232658027.Fri.Jan.23_07_00_27.AEST.2009.narrabn.c5.vflip.jpg'
p1780
I3
sS'daytimex_1180904428.Mon.Jun.04_07_00_28.AEST.2007.narrabn.c5.vflip.jpg'
p1781
I0
sS'daytimex_1113598827.Sat.Apr.16_07_00_27.AEST.2005.narrabn.c5.vflip.jpg'
p1782
I2
sS'daytimex_1280523628.Sat.Jul.31_07_00_28.AEST.2010.narrabn.c5.vflip.jpg'
p1783
I0
sS'daytimex_1206997228.Tue.Apr.01_07_00_28.AEST.2008.narrabn.c5.jpg'
p1784
I0
sS'daytimex_1295557227.Fri.Jan.21_07_00_27.AEST.2011.narrabn.c5.rot.jpg'
p1785
I2
sS'daytimex_1282856427.Fri.Aug.27_07_00_27.AEST.2010.narrabn.c5.rot.jpg'
p1786
I2
sS'daytimex_1199307628.Thu.Jan.03_07_00_28.AEST.2008.narrabn.c5.erase.jpg'
p1787
I4
sS'daytimex_1199307628.Thu.Jan.03_07_00_28.AEST.2008.narrabn.c5.hflip.jpg'
p1788
I4
sS'daytimex_1304715627.Sat.May.07_07_00_27.AEST.2011.narrabn.c5.hflip.jpg'
p1789
I2
sS'daytimex_1244581228.Wed.Jun.10_07_00_28.AEST.2009.narrabn.c5.rot.jpg'
p1790
I0
sS'daytimex_1096492844.Thu.Sep.30_07_20_44.AEST.2004.narrabn.c5.vflip.jpg'
p1791
I1
sS'daytimex_1199826027.Wed.Jan.09_07_00_27.AEST.2008.narrabn.c5.vflip.jpg'
p1792
I4
sS'daytimex_1199998828.Fri.Jan.11_07_00_28.AEST.2008.narrabn.c5.erase.jpg'
p1793
I4
sS'daytimex_1352667627.Mon.Nov.12_07_00_27.AEST.2012.narrabn.c5.gamma.jpg'
p1794
I2
sS'daytimex_1141419628.Sat.Mar.04_07_00_28.AEST.2006.narrabn.c5.vflip.jpg'
p1795
I4
sS'daytimex_1383166828.Thu.Oct.31_07_00_28.AEST.2013.narrabn.c5.jpg'
p1796
I2
sS'daytimex_1366491627.Sun.Apr.21_07_00_27.AEST.2013.narrabn.c5.erase.jpg'
p1797
I4
sS'daytimex_1331499627.Mon.Mar.12_07_00_27.AEST.2012.narrabn.c5.vflip.jpg'
p1798
I2
sS'daytimex_1104699628.Mon.Jan.03_07_00_28.AEST.2005.narrabn.c5.gamma.jpg'
p1799
I2
sS'daytimex_1363381227.Sat.Mar.16_07_00_27.AEST.2013.narrabn.c5.gamma.jpg'
p1800
I4
sS'daytimex_1363208427.Thu.Mar.14_07_00_27.AEST.2013.narrabn.c5.vflip.jpg'
p1801
I4
sS'daytimex_1390165228.Mon.Jan.20_07_00_28.AEST.2014.narrabn.c5.erase.jpg'
p1802
I4
sS'daytimex_1390078828.Sun.Jan.19_07_00_28.AEST.2014.narrabn.c5.erase.jpg'
p1803
I4
sS'daytimex_1118264428.Thu.Jun.09_07_00_28.AEST.2005.narrabn.c5.vflip.jpg'
p1804
I2
sS'daytimex_1364418026.Thu.Mar.28_07_00_26.AEST.2013.narrabn.c5.hflip.jpg'
p1805
I4
sS'daytimex_1296421228.Mon.Jan.31_07_00_28.AEST.2011.narrabn.c5.vflip.jpg'
p1806
I1
sS'daytimex_1168808428.Mon.Jan.15_07_00_28.AEST.2007.narrabn.c5.jpg'
p1807
I3
sS'daytimex_1395867628.Thu.Mar.27_07_00_28.AEST.2014.narrabn.c5.jpg'
p1808
I1
sS'daytimex_1377205228.Fri.Aug.23_07_00_28.AEST.2013.narrabn.c5.rot.jpg'
p1809
I0
sS'daytimex_1295643628.Sat.Jan.22_07_00_28.AEST.2011.narrabn.c5.rot.jpg'
p1810
I2
sS'daytimex_1193346027.Fri.Oct.26_07_00_27.AEST.2007.narrabn.c5.vflip.jpg'
p1811
I1
sS'daytimex_1278882027.Mon.Jul.12_07_00_27.AEST.2010.narrabn.c5.jpg'
p1812
I1
sS'daytimex_1232658027.Fri.Jan.23_07_00_27.AEST.2009.narrabn.c5.hflip.jpg'
p1813
I3
sS'daytimex_1200258027.Mon.Jan.14_07_00_27.AEST.2008.narrabn.c5.gamma.jpg'
p1814
I4
sS'daytimex_1269291628.Tue.Mar.23_07_00_28.AEST.2010.narrabn.c5.gamma.jpg'
p1815
I1
sS'daytimex_1304370028.Tue.May.03_07_00_28.AEST.2011.narrabn.c5.vflip.jpg'
p1816
I4
sS'daytimex_1364245227.Tue.Mar.26_07_00_27.AEST.2013.narrabn.c5.rot.jpg'
p1817
I3
sS'daytimex_1102626027.Fri.Dec.10_07_00_27.AEST.2004.narrabn.c5.vflip.jpg'
p1818
I4
sS'daytimex_1363381227.Sat.Mar.16_07_00_27.AEST.2013.narrabn.c5.rot.jpg'
p1819
I4
sS'daytimex_1164488428.Sun.Nov.26_07_00_28.AEST.2006.narrabn.c5.vflip.jpg'
p1820
I1
sS'daytimex_1295643628.Sat.Jan.22_07_00_28.AEST.2011.narrabn.c5.jpg'
p1821
I2
sS'daytimex_1100553644.Tue.Nov.16_07_20_44.AEST.2004.narrabn.c5.rot.jpg'
p1822
I2
sS'daytimex_1308430828.Sun.Jun.19_07_00_28.AEST.2011.narrabn.c5.hflip.jpg'
p1823
I2
sS'daytimex_1144616428.Mon.Apr.10_07_00_28.AEST.2006.narrabn.c5.hflip.jpg'
p1824
I4
sS'daytimex_1203886827.Mon.Feb.25_07_00_27.AEST.2008.narrabn.c5.jpg'
p1825
I3
sS'daytimex_1321045227.Sat.Nov.12_07_00_27.AEST.2011.narrabn.c5.erase.jpg'
p1826
I1
sS'daytimex_1218315628.Sun.Aug.10_07_00_28.AEST.2008.narrabn.c5.jpg'
p1827
I0
sS'daytimex_1174424427.Wed.Mar.21_07_00_27.AEST.2007.narrabn.c5.gamma.jpg'
p1828
I0
sS'daytimex_1364504427.Fri.Mar.29_07_00_27.AEST.2013.narrabn.c5.erase.jpg'
p1829
I4
sS'daytimex_1362862827.Sun.Mar.10_07_00_27.AEST.2013.narrabn.c5.hflip.jpg'
p1830
I4
sS'daytimex_1363986027.Sat.Mar.23_07_00_27.AEST.2013.narrabn.c5.gamma.jpg'
p1831
I4
sS'daytimex_1100640044.Wed.Nov.17_07_20_44.AEST.2004.narrabn.c5.gamma.jpg'
p1832
I3
sS'daytimex_1348779627.Fri.Sep.28_07_00_27.AEST.2012.narrabn.c5.rot.jpg'
p1833
I2
sS'daytimex_1263070827.Sun.Jan.10_07_00_27.AEST.2010.narrabn.c5.gamma.jpg'
p1834
I2
sS'daytimex_1244494828.Tue.Jun.09_07_00_28.AEST.2009.narrabn.c5.vflip.jpg'
p1835
I0
sS'daytimex_1413493206.Fri.Oct.17_07_00_06.AEST.2014.narrabn.c5.vflip.jpg'
p1836
I3
sS'daytimex_1285362027.Sat.Sep.25_07_00_27.AEST.2010.narrabn.c5.vflip.jpg'
p1837
I1
sS'daytimex_1384462828.Fri.Nov.15_07_00_28.AEST.2013.narrabn.c5.jpg'
p1838
I3
sS'daytimex_1122843628.Mon.Aug.01_07_00_28.AEST.2005.narrabn.c5.hflip.jpg'
p1839
I0
sS'daytimex_1297803627.Wed.Feb.16_07_00_27.AEST.2011.narrabn.c5.erase.jpg'
p1840
I1
sS'daytimex_1243371628.Wed.May.27_07_00_28.AEST.2009.narrabn.c5.hflip.jpg'
p1841
I0
sS'daytimex_1303506028.Sat.Apr.23_07_00_28.AEST.2011.narrabn.c5.erase.jpg'
p1842
I0
sS'daytimex_1366059626.Tue.Apr.16_07_00_26.AEST.2013.narrabn.c5.erase.jpg'
p1843
I4
sS'daytimex_1124744428.Tue.Aug.23_07_00_28.AEST.2005.narrabn.c5.vflip.jpg'
p1844
I1
sS'daytimex_1194901228.Tue.Nov.13_07_00_28.AEST.2007.narrabn.c5.hflip.jpg'
p1845
I2
sS'daytimex_1104267628.Wed.Dec.29_07_00_28.AEST.2004.narrabn.c5.jpg'
p1846
I2
sS'daytimex_1151614827.Fri.Jun.30_07_00_27.AEST.2006.narrabn.c5.erase.jpg'
p1847
I0
sS'daytimex_1363035626.Tue.Mar.12_07_00_26.AEST.2013.narrabn.c5.hflip.jpg'
p1848
I4
sS'daytimex_1232744428.Sat.Jan.24_07_00_28.AEST.2009.narrabn.c5.rot.jpg'
p1849
I3
sS'daytimex_1348779627.Fri.Sep.28_07_00_27.AEST.2012.narrabn.c5.vflip.jpg'
p1850
I2
sS'daytimex_1210366827.Sat.May.10_07_00_27.AEST.2008.narrabn.c5.jpg'
p1851
I1
sS'daytimex_1130878828.Wed.Nov.02_07_00_28.AEST.2005.narrabn.c5.rot.jpg'
p1852
I3
sS'daytimex_1206046827.Fri.Mar.21_07_00_27.AEST.2008.narrabn.c5.hflip.jpg'
p1853
I1
sS'daytimex_1132261228.Fri.Nov.18_07_00_28.AEST.2005.narrabn.c5.vflip.jpg'
p1854
I3
sS'daytimex_1233003628.Tue.Jan.27_07_00_28.AEST.2009.narrabn.c5.hflip.jpg'
p1855
I2
sS'daytimex_1363122026.Wed.Mar.13_07_00_26.AEST.2013.narrabn.c5.vflip.jpg'
p1856
I4
sS'daytimex_1369515627.Sun.May.26_07_00_27.AEST.2013.narrabn.c5.erase.jpg'
p1857
I2
sS'daytimex_1275080427.Sat.May.29_07_00_27.AEST.2010.narrabn.c5.jpg'
p1858
I3
sS'daytimex_1199826027.Wed.Jan.09_07_00_27.AEST.2008.narrabn.c5.jpg'
p1859
I4
sS'daytimex_1141419628.Sat.Mar.04_07_00_28.AEST.2006.narrabn.c5.jpg'
p1860
I4
sS'daytimex_1200430827.Wed.Jan.16_07_00_27.AEST.2008.narrabn.c5.hflip.jpg'
p1861
I3
sS'daytimex_1200258027.Mon.Jan.14_07_00_27.AEST.2008.narrabn.c5.erase.jpg'
p1862
I4
sS'daytimex_1263675627.Sun.Jan.17_07_00_27.AEST.2010.narrabn.c5.gamma.jpg'
p1863
I2
sS'daytimex_1362776427.Sat.Mar.09_07_00_27.AEST.2013.narrabn.c5.rot.jpg'
p1864
I0
sS'daytimex_1271278827.Thu.Apr.15_07_00_27.AEST.2010.narrabn.c5.jpg'
p1865
I1
sS'daytimex_1188853227.Tue.Sep.04_07_00_27.AEST.2007.narrabn.c5.gamma.jpg'
p1866
I2
sS'daytimex_1177102828.Sat.Apr.21_07_00_28.AEST.2007.narrabn.c5.vflip.jpg'
p1867
I0
sS'daytimex_1363381227.Sat.Mar.16_07_00_27.AEST.2013.narrabn.c5.erase.jpg'
p1868
I4
sS'daytimex_1348779627.Fri.Sep.28_07_00_27.AEST.2012.narrabn.c5.erase.jpg'
p1869
I2
sS'daytimex_1244667628.Thu.Jun.11_07_00_28.AEST.2009.narrabn.c5.vflip.jpg'
p1870
I0
sS'daytimex_1365973226.Mon.Apr.15_07_00_26.AEST.2013.narrabn.c5.erase.jpg'
p1871
I4
sS'daytimex_1339448428.Tue.Jun.12_07_00_28.AEST.2012.narrabn.c5.hflip.jpg'
p1872
I0
sS'daytimex_1364158827.Mon.Mar.25_07_00_27.AEST.2013.narrabn.c5.jpg'
p1873
I4
sS'daytimex_1269291628.Tue.Mar.23_07_00_28.AEST.2010.narrabn.c5.rot.jpg'
p1874
I1
sS'daytimex_1355432427.Fri.Dec.14_07_00_27.AEST.2012.narrabn.c5.vflip.jpg'
p1875
I3
sS'daytimex_1166475628.Tue.Dec.19_07_00_28.AEST.2006.narrabn.c5.rot.jpg'
p1876
I1
sS'daytimex_1303160427.Tue.Apr.19_07_00_27.AEST.2011.narrabn.c5.hflip.jpg'
p1877
I1
sS'daytimex_1363035626.Tue.Mar.12_07_00_26.AEST.2013.narrabn.c5.gamma.jpg'
p1878
I4
sS'daytimex_1114203627.Sat.Apr.23_07_00_27.AEST.2005.narrabn.c5.vflip.jpg'
p1879
I1
sS'daytimex_1148331627.Tue.May.23_07_00_27.AEST.2006.narrabn.c5.vflip.jpg'
p1880
I1
sS'daytimex_1363035626.Tue.Mar.12_07_00_26.AEST.2013.narrabn.c5.jpg'
p1881
I4
sS'daytimex_1216328427.Fri.Jul.18_07_00_27.AEST.2008.narrabn.c5.hflip.jpg'
p1882
I0
sS'daytimex_1362603627.Thu.Mar.07_07_00_27.AEST.2013.narrabn.c5.gamma.jpg'
p1883
I0
sS'daytimex_1098739244.Tue.Oct.26_07_20_44.AEST.2004.narrabn.c5.rot.jpg'
p1884
I4
sS'daytimex_1104699628.Mon.Jan.03_07_00_28.AEST.2005.narrabn.c5.erase.jpg'
p1885
I2
sS'daytimex_1364072427.Sun.Mar.24_07_00_27.AEST.2013.narrabn.c5.rot.jpg'
p1886
I4
sS'daytimex_1104699628.Mon.Jan.03_07_00_28.AEST.2005.narrabn.c5.hflip.jpg'
p1887
I2
sS'daytimex_1304715627.Sat.May.07_07_00_27.AEST.2011.narrabn.c5.erase.jpg'
p1888
I2
sS'daytimex_1277240427.Wed.Jun.23_07_00_27.AEST.2010.narrabn.c5.gamma.jpg'
p1889
I2
sS'daytimex_1194901228.Tue.Nov.13_07_00_28.AEST.2007.narrabn.c5.jpg'
p1890
I2
sS'daytimex_1244840427.Sat.Jun.13_07_00_27.AEST.2009.narrabn.c5.vflip.jpg'
p1891
I0
sS'daytimex_1162674028.Sun.Nov.05_07_00_28.AEST.2006.narrabn.c5.vflip.jpg'
p1892
I3
sS'daytimex_1192136427.Fri.Oct.12_07_00_27.AEST.2007.narrabn.c5.vflip.jpg'
p1893
I1
sS'daytimex_1218747627.Fri.Aug.15_07_00_27.AEST.2008.narrabn.c5.erase.jpg'
p1894
I1
sS'daytimex_1188853227.Tue.Sep.04_07_00_27.AEST.2007.narrabn.c5.hflip.jpg'
p1895
I2
sS'daytimex_1257195628.Tue.Nov.03_07_00_28.AEST.2009.narrabn.c5.rot.jpg'
p1896
I2
sS'daytimex_1156798828.Tue.Aug.29_07_00_28.AEST.2006.narrabn.c5.erase.jpg'
p1897
I1
sS'daytimex_1259442028.Sun.Nov.29_07_00_28.AEST.2009.narrabn.c5.gamma.jpg'
p1898
I3
sS'daytimex_1305579627.Tue.May.17_07_00_27.AEST.2011.narrabn.c5.gamma.jpg'
p1899
I1
sS'daytimex_1151701228.Sat.Jul.01_07_00_28.AEST.2006.narrabn.c5.rot.jpg'
p1900
I0
sS'daytimex_1358283627.Wed.Jan.16_07_00_27.AEST.2013.narrabn.c5.erase.jpg'
p1901
I1
sS'daytimex_1272056427.Sat.Apr.24_07_00_27.AEST.2010.narrabn.c5.gamma.jpg'
p1902
I0
sS'daytimex_1365714027.Fri.Apr.12_07_00_27.AEST.2013.narrabn.c5.vflip.jpg'
p1903
I4
sS'daytimex_1363122026.Wed.Mar.13_07_00_26.AEST.2013.narrabn.c5.hflip.jpg'
p1904
I4
sS'daytimex_1252357227.Tue.Sep.08_07_00_27.AEST.2009.narrabn.c5.hflip.jpg'
p1905
I4
sS'daytimex_1115758827.Wed.May.11_07_00_27.AEST.2005.narrabn.c5.erase.jpg'
p1906
I0
sS'daytimex_1243198828.Mon.May.25_07_00_28.AEST.2009.narrabn.c5.rot.jpg'
p1907
I1
sS'daytimex_1348779627.Fri.Sep.28_07_00_27.AEST.2012.narrabn.c5.jpg'
p1908
I2
sS'daytimex_1337288428.Fri.May.18_07_00_28.AEST.2012.narrabn.c5.vflip.jpg'
p1909
I3
sS'daytimex_1183410028.Tue.Jul.03_07_00_28.AEST.2007.narrabn.c5.hflip.jpg'
p1910
I0
sS'daytimex_1307134828.Sat.Jun.04_07_00_28.AEST.2011.narrabn.c5.erase.jpg'
p1911
I3
sS'daytimex_1193432428.Sat.Oct.27_07_00_28.AEST.2007.narrabn.c5.hflip.jpg'
p1912
I1
sS'daytimex_1094764845.Fri.Sep.10_07_20_45.AEST.2004.narrabn.c5.vflip.jpg'
p1913
I3
sS'daytimex_1115413227.Sat.May.07_07_00_27.AEST.2005.narrabn.c5.jpg'
p1914
I0
sS'daytimex_1170968427.Fri.Feb.09_07_00_27.AEST.2007.narrabn.c5.gamma.jpg'
p1915
I2
sS'daytimex_1209589228.Thu.May.01_07_00_28.AEST.2008.narrabn.c5.hflip.jpg'
p1916
I2
sS'daytimex_1164488428.Sun.Nov.26_07_00_28.AEST.2006.narrabn.c5.rot.jpg'
p1917
I1
sS'daytimex_1327093228.Sat.Jan.21_07_00_28.AEST.2012.narrabn.c5.vflip.jpg'
p1918
I3
sS'daytimex_1230152428.Thu.Dec.25_07_00_28.AEST.2008.narrabn.c5.jpg'
p1919
I3
sS'daytimex_1113771628.Mon.Apr.18_07_00_28.AEST.2005.narrabn.c5.rot.jpg'
p1920
I2
sS'daytimex_1210021227.Tue.May.06_07_00_27.AEST.2008.narrabn.c5.vflip.jpg'
p1921
I2
sS'daytimex_1243371628.Wed.May.27_07_00_28.AEST.2009.narrabn.c5.jpg'
p1922
I0
sS'daytimex_1095542444.Sun.Sep.19_07_20_44.AEST.2004.narrabn.c5.hflip.jpg'
p1923
I1
sS'daytimex_1397077227.Thu.Apr.10_07_00_27.AEST.2014.narrabn.c5.gamma.jpg'
p1924
I1
sS'daytimex_1365454827.Tue.Apr.09_07_00_27.AEST.2013.narrabn.c5.hflip.jpg'
p1925
I4
sS'daytimex_1303160427.Tue.Apr.19_07_00_27.AEST.2011.narrabn.c5.erase.jpg'
p1926
I1
sS'daytimex_1199653228.Mon.Jan.07_07_00_28.AEST.2008.narrabn.c5.jpg'
p1927
I4
sS'daytimex_1321822828.Mon.Nov.21_07_00_28.AEST.2011.narrabn.c5.jpg'
p1928
I0
sS'daytimex_1368478827.Tue.May.14_07_00_27.AEST.2013.narrabn.c5.jpg'
p1929
I2
sS'daytimex_1091568045.Wed.Aug.04_07_20_45.AEST.2004.narrabn.c5.rot.jpg'
p1930
I1
sS'daytimex_1252184428.Sun.Sep.06_07_00_28.AEST.2009.narrabn.c5.jpg'
p1931
I1
sS'daytimex_1200949228.Tue.Jan.22_07_00_28.AEST.2008.narrabn.c5.erase.jpg'
p1932
I2
sS'daytimex_1244408427.Mon.Jun.08_07_00_27.AEST.2009.narrabn.c5.jpg'
p1933
I0
sS'daytimex_1151701228.Sat.Jul.01_07_00_28.AEST.2006.narrabn.c5.jpg'
p1934
I0
sS'daytimex_1103058027.Wed.Dec.15_07_00_27.AEST.2004.narrabn.c5.vflip.jpg'
p1935
I3
sS'daytimex_1194901228.Tue.Nov.13_07_00_28.AEST.2007.narrabn.c5.gamma.jpg'
p1936
I2
sS'daytimex_1286485227.Fri.Oct.08_07_00_27.AEST.2010.narrabn.c5.gamma.jpg'
p1937
I2
sS'daytimex_1199307628.Thu.Jan.03_07_00_28.AEST.2008.narrabn.c5.gamma.jpg'
p1938
I4
sS'daytimex_1144616428.Mon.Apr.10_07_00_28.AEST.2006.narrabn.c5.erase.jpg'
p1939
I4
sS'daytimex_1210280428.Fri.May.09_07_00_28.AEST.2008.narrabn.c5.jpg'
p1940
I1
sS'daytimex_1244667628.Thu.Jun.11_07_00_28.AEST.2009.narrabn.c5.jpg'
p1941
I0
sS'daytimex_1178398828.Sun.May.06_07_00_28.AEST.2007.narrabn.c5.rot.jpg'
p1942
I0
sS'daytimex_1180213228.Sun.May.27_07_00_28.AEST.2007.narrabn.c5.erase.jpg'
p1943
I0
sS'daytimex_1304715627.Sat.May.07_07_00_27.AEST.2011.narrabn.c5.vflip.jpg'
p1944
I2
sS'daytimex_1301864427.Mon.Apr.04_07_00_27.AEST.2011.narrabn.c5.hflip.jpg'
p1945
I4
sS'daytimex_1383166828.Thu.Oct.31_07_00_28.AEST.2013.narrabn.c5.vflip.jpg'
p1946
I2
sS'daytimex_1105822828.Sun.Jan.16_07_00_28.AEST.2005.narrabn.c5.vflip.jpg'
p1947
I4
sS'daytimex_1152478828.Mon.Jul.10_07_00_28.AEST.2006.narrabn.c5.jpg'
p1948
I0
sS'daytimex_1165611628.Sat.Dec.09_07_00_28.AEST.2006.narrabn.c5.vflip.jpg'
p1949
I1
sS'daytimex_1346533227.Sun.Sep.02_07_00_27.AEST.2012.narrabn.c5.jpg'
p1950
I2
sS'daytimex_1200085228.Sat.Jan.12_07_00_28.AEST.2008.narrabn.c5.gamma.jpg'
p1951
I4
sS'daytimex_1102712427.Sat.Dec.11_07_00_27.AEST.2004.narrabn.c5.gamma.jpg'
p1952
I4
sS'daytimex_1137013242.Thu.Jan.12_07_00_42.AEST.2006.narrabn.c5.vflip.jpg'
p1953
I3
sS'daytimex_1339448428.Tue.Jun.12_07_00_28.AEST.2012.narrabn.c5.gamma.jpg'
p1954
I0
sS'daytimex_1364590827.Sat.Mar.30_07_00_27.AEST.2013.narrabn.c5.gamma.jpg'
p1955
I3
sS'daytimex_1297803627.Wed.Feb.16_07_00_27.AEST.2011.narrabn.c5.rot.jpg'
p1956
I1
sS'daytimex_1332795628.Tue.Mar.27_07_00_28.AEST.2012.narrabn.c5.erase.jpg'
p1957
I2
sS'daytimex_1114117228.Fri.Apr.22_07_00_28.AEST.2005.narrabn.c5.erase.jpg'
p1958
I1
sS'daytimex_1301864427.Mon.Apr.04_07_00_27.AEST.2011.narrabn.c5.erase.jpg'
p1959
I4
sS'daytimex_1168722027.Sun.Jan.14_07_00_27.AEST.2007.narrabn.c5.vflip.jpg'
p1960
I3
sS'daytimex_1158613228.Tue.Sep.19_07_00_28.AEST.2006.narrabn.c5.gamma.jpg'
p1961
I2
sS'daytimex_1170968427.Fri.Feb.09_07_00_27.AEST.2007.narrabn.c5.rot.jpg'
p1962
I2
sS'daytimex_1133470828.Fri.Dec.02_07_00_28.AEST.2005.narrabn.c5.rot.jpg'
p1963
I3
sS'daytimex_1110488428.Fri.Mar.11_07_00_28.AEST.2005.narrabn.c5.jpg'
p1964
I1
sS'daytimex_1231707628.Mon.Jan.12_07_00_28.AEST.2009.narrabn.c5.jpg'
p1965
I2
sS'daytimex_1114203627.Sat.Apr.23_07_00_27.AEST.2005.narrabn.c5.erase.jpg'
p1966
I1
sS'daytimex_1151614827.Fri.Jun.30_07_00_27.AEST.2006.narrabn.c5.gamma.jpg'
p1967
I0
sS'daytimex_1313182827.Sat.Aug.13_07_00_27.AEST.2011.narrabn.c5.rot.jpg'
p1968
I2
sS'daytimex_1392930028.Fri.Feb.21_07_00_28.AEST.2014.narrabn.c5.jpg'
p1969
I2
sS'daytimex_1150318827.Thu.Jun.15_07_00_27.AEST.2006.narrabn.c5.jpg'
p1970
I2
sS'daytimex_1218315628.Sun.Aug.10_07_00_28.AEST.2008.narrabn.c5.rot.jpg'
p1971
I0
sS'daytimex_1393707627.Sun.Mar.02_07_00_27.AEST.2014.narrabn.c5.jpg'
p1972
I1
sS'daytimex_1200085228.Sat.Jan.12_07_00_28.AEST.2008.narrabn.c5.hflip.jpg'
p1973
I4
sS'daytimex_1244322027.Sun.Jun.07_07_00_27.AEST.2009.narrabn.c5.hflip.jpg'
p1974
I0
sS'daytimex_1194469228.Thu.Nov.08_07_00_28.AEST.2007.narrabn.c5.jpg'
p1975
I3
sS'daytimex_1115067628.Tue.May.03_07_00_28.AEST.2005.narrabn.c5.vflip.jpg'
p1976
I0
sS'daytimex_1277240427.Wed.Jun.23_07_00_27.AEST.2010.narrabn.c5.hflip.jpg'
p1977
I2
sS'daytimex_1296248427.Sat.Jan.29_07_00_27.AEST.2011.narrabn.c5.erase.jpg'
p1978
I2
sS'daytimex_1149195628.Fri.Jun.02_07_00_28.AEST.2006.narrabn.c5.jpg'
p1979
I0
sS'daytimex_1154120427.Sat.Jul.29_07_00_27.AEST.2006.narrabn.c5.rot.jpg'
p1980
I4
sS'daytimex_1129842028.Fri.Oct.21_07_00_28.AEST.2005.narrabn.c5.erase.jpg'
p1981
I4
sS'daytimex_1130878828.Wed.Nov.02_07_00_28.AEST.2005.narrabn.c5.jpg'
p1982
I3
sS'daytimex_1180213228.Sun.May.27_07_00_28.AEST.2007.narrabn.c5.rot.jpg'
p1983
I0
sS'daytimex_1407358807.Thu.Aug.07_07_00_07.AEST.2014.narrabn.c5.vflip.jpg'
p1984
I1
sS'daytimex_1282856427.Fri.Aug.27_07_00_27.AEST.2010.narrabn.c5.erase.jpg'
p1985
I2
sS'daytimex_1166994028.Mon.Dec.25_07_00_28.AEST.2006.narrabn.c5.vflip.jpg'
p1986
I2
sS'daytimex_1164229228.Thu.Nov.23_07_00_28.AEST.2006.narrabn.c5.hflip.jpg'
p1987
I3
sS'daytimex_1298062827.Sat.Feb.19_07_00_27.AEST.2011.narrabn.c5.jpg'
p1988
I1
sS'daytimex_1363986027.Sat.Mar.23_07_00_27.AEST.2013.narrabn.c5.vflip.jpg'
p1989
I4
sS'daytimex_1133470828.Fri.Dec.02_07_00_28.AEST.2005.narrabn.c5.jpg'
p1990
I3
sS'daytimex_1192482027.Tue.Oct.16_07_00_27.AEST.2007.narrabn.c5.vflip.jpg'
p1991
I1
sS'daytimex_1393707627.Sun.Mar.02_07_00_27.AEST.2014.narrabn.c5.gamma.jpg'
p1992
I1
sS'daytimex_1359579627.Thu.Jan.31_07_00_27.AEST.2013.narrabn.c5.erase.jpg'
p1993
I4
sS'daytimex_1102453228.Wed.Dec.08_07_00_28.AEST.2004.narrabn.c5.rot.jpg'
p1994
I4
sS'daytimex_1224622828.Wed.Oct.22_07_00_28.AEST.2008.narrabn.c5.jpg'
p1995
I2
sS'daytimex_1243198828.Mon.May.25_07_00_28.AEST.2009.narrabn.c5.vflip.jpg'
p1996
I1
sS'daytimex_1152478828.Mon.Jul.10_07_00_28.AEST.2006.narrabn.c5.hflip.jpg'
p1997
I0
sS'daytimex_1328389227.Sun.Feb.05_07_00_27.AEST.2012.narrabn.c5.jpg'
p1998
I2
sS'daytimex_1166907628.Sun.Dec.24_07_00_28.AEST.2006.narrabn.c5.hflip.jpg'
p1999
I3
sS'daytimex_1364331627.Wed.Mar.27_07_00_27.AEST.2013.narrabn.c5.erase.jpg'
p2000
I4
sS'daytimex_1206046827.Fri.Mar.21_07_00_27.AEST.2008.narrabn.c5.vflip.jpg'
p2001
I1
sS'daytimex_1308430828.Sun.Jun.19_07_00_28.AEST.2011.narrabn.c5.rot.jpg'
p2002
I2
sS'daytimex_1200085228.Sat.Jan.12_07_00_28.AEST.2008.narrabn.c5.erase.jpg'
p2003
I4
sS'daytimex_1160168427.Sat.Oct.07_07_00_27.AEST.2006.narrabn.c5.erase.jpg'
p2004
I1
sS'daytimex_1223931628.Tue.Oct.14_07_00_28.AEST.2008.narrabn.c5.erase.jpg'
p2005
I3
sS'daytimex_1365109227.Fri.Apr.05_07_00_27.AEST.2013.narrabn.c5.hflip.jpg'
p2006
I4
sS'daytimex_1279141227.Thu.Jul.15_07_00_27.AEST.2010.narrabn.c5.vflip.jpg'
p2007
I0
sS'daytimex_1105822828.Sun.Jan.16_07_00_28.AEST.2005.narrabn.c5.erase.jpg'
p2008
I4
sS'daytimex_1177102828.Sat.Apr.21_07_00_28.AEST.2007.narrabn.c5.hflip.jpg'
p2009
I0
sS'daytimex_1193346027.Fri.Oct.26_07_00_27.AEST.2007.narrabn.c5.gamma.jpg'
p2010
I1
sS'daytimex_1098739244.Tue.Oct.26_07_20_44.AEST.2004.narrabn.c5.jpg'
p2011
I4
sS'daytimex_1275080427.Sat.May.29_07_00_27.AEST.2010.narrabn.c5.rot.jpg'
p2012
I3
sS'daytimex_1105822828.Sun.Jan.16_07_00_28.AEST.2005.narrabn.c5.rot.jpg'
p2013
I4
sS'daytimex_1115154028.Wed.May.04_07_00_28.AEST.2005.narrabn.c5.rot.jpg'
p2014
I1
sS'daytimex_1177102828.Sat.Apr.21_07_00_28.AEST.2007.narrabn.c5.erase.jpg'
p2015
I0
sS'daytimex_1110920428.Wed.Mar.16_07_00_28.AEST.2005.narrabn.c5.gamma.jpg'
p2016
I4
sS'daytimex_1152738027.Thu.Jul.13_07_00_27.AEST.2006.narrabn.c5.gamma.jpg'
p2017
I1
sS'daytimex_1344805229.Mon.Aug.13_07_00_29.AEST.2012.narrabn.c5.jpg'
p2018
I3
sS'daytimex_1205960427.Thu.Mar.20_07_00_27.AEST.2008.narrabn.c5.erase.jpg'
p2019
I1
sS'daytimex_1230757227.Thu.Jan.01_07_00_27.AEST.2009.narrabn.c5.jpg'
p2020
I2
sS'daytimex_1170104428.Tue.Jan.30_07_00_28.AEST.2007.narrabn.c5.hflip.jpg'
p2021
I2
sS'daytimex_1154120427.Sat.Jul.29_07_00_27.AEST.2006.narrabn.c5.hflip.jpg'
p2022
I4
sS'daytimex_1179262828.Wed.May.16_07_00_28.AEST.2007.narrabn.c5.vflip.jpg'
p2023
I0
sS'daytimex_1176584427.Sun.Apr.15_07_00_27.AEST.2007.narrabn.c5.gamma.jpg'
p2024
I1
sS'daytimex_1211058028.Sun.May.18_07_00_28.AEST.2008.narrabn.c5.erase.jpg'
p2025
I3
sS'daytimex_1174338027.Tue.Mar.20_07_00_27.AEST.2007.narrabn.c5.rot.jpg'
p2026
I0
sS'daytimex_1098652844.Mon.Oct.25_07_20_44.AEST.2004.narrabn.c5.hflip.jpg'
p2027
I4
sS'daytimex_1289336428.Wed.Nov.10_07_00_28.AEST.2010.narrabn.c5.gamma.jpg'
p2028
I3
sS'daytimex_1363467627.Sun.Mar.17_07_00_27.AEST.2013.narrabn.c5.gamma.jpg'
p2029
I4
sS'daytimex_1098825644.Wed.Oct.27_07_20_44.AEST.2004.narrabn.c5.rot.jpg'
p2030
I4
sS'daytimex_1205960427.Thu.Mar.20_07_00_27.AEST.2008.narrabn.c5.jpg'
p2031
I1
sS'daytimex_1209589228.Thu.May.01_07_00_28.AEST.2008.narrabn.c5.jpg'
p2032
I2
sS'daytimex_1271624427.Mon.Apr.19_07_00_27.AEST.2010.narrabn.c5.hflip.jpg'
p2033
I0
sS'daytimex_1110229228.Tue.Mar.08_07_00_28.AEST.2005.narrabn.c5.rot.jpg'
p2034
I2
sS'daytimex_1230152428.Thu.Dec.25_07_00_28.AEST.2008.narrabn.c5.hflip.jpg'
p2035
I3
sS'daytimex_1324674027.Sat.Dec.24_07_00_27.AEST.2011.narrabn.c5.jpg'
p2036
I1
sS'daytimex_1289336428.Wed.Nov.10_07_00_28.AEST.2010.narrabn.c5.vflip.jpg'
p2037
I3
s.