(lp0
S'daytimex_1362344426.Mon.Mar.04_07_00_26.AEST.2013.narrabn.c5.jpg'
p1
aS'daytimex_1269032427.Sat.Mar.20_07_00_27.AEST.2010.narrabn.c5.jpg'
p2
aS'daytimex_1174683628.Sat.Mar.24_07_00_28.AEST.2007.narrabn.c5.jpg'
p3
aS'daytimex_1166475628.Tue.Dec.19_07_00_28.AEST.2006.narrabn.c5.jpg'
p4
aS'daytimex_1174424427.Wed.Mar.21_07_00_27.AEST.2007.narrabn.c5.jpg'
p5
aS'daytimex_1180213228.Sun.May.27_07_00_28.AEST.2007.narrabn.c5.jpg'
p6
aS'daytimex_1272056427.Sat.Apr.24_07_00_27.AEST.2010.narrabn.c5.jpg'
p7
aS'daytimex_1115154028.Wed.May.04_07_00_28.AEST.2005.narrabn.c5.jpg'
p8
aS'daytimex_1218315628.Sun.Aug.10_07_00_28.AEST.2008.narrabn.c5.jpg'
p9
aS'daytimex_1321822828.Mon.Nov.21_07_00_28.AEST.2011.narrabn.c5.jpg'
p10
aS'daytimex_1244408427.Mon.Jun.08_07_00_27.AEST.2009.narrabn.c5.jpg'
p11
aS'daytimex_1152478828.Mon.Jul.10_07_00_28.AEST.2006.narrabn.c5.jpg'
p12
aS'daytimex_1367182827.Mon.Apr.29_07_00_27.AEST.2013.narrabn.c5.jpg'
p13
aS'daytimex_1395867628.Thu.Mar.27_07_00_28.AEST.2014.narrabn.c5.jpg'
p14
aS'daytimex_1303506028.Sat.Apr.23_07_00_28.AEST.2011.narrabn.c5.jpg'
p15
aS'daytimex_1299358827.Sun.Mar.06_07_00_27.AEST.2011.narrabn.c5.jpg'
p16
aS'daytimex_1367269226.Tue.Apr.30_07_00_26.AEST.2013.narrabn.c5.jpg'
p17
aS'daytimex_1165525227.Fri.Dec.08_07_00_27.AEST.2006.narrabn.c5.jpg'
p18
aS'daytimex_1243371628.Wed.May.27_07_00_28.AEST.2009.narrabn.c5.jpg'
p19
aS'daytimex_1272747627.Sun.May.02_07_00_27.AEST.2010.narrabn.c5.jpg'
p20
aS'daytimex_1272315628.Tue.Apr.27_07_00_28.AEST.2010.narrabn.c5.jpg'
p21
aS'daytimex_1174338027.Tue.Mar.20_07_00_27.AEST.2007.narrabn.c5.jpg'
p22
aS'daytimex_1244581228.Wed.Jun.10_07_00_28.AEST.2009.narrabn.c5.jpg'
p23
aS'daytimex_1177966828.Tue.May.01_07_00_28.AEST.2007.narrabn.c5.jpg'
p24
aS'daytimex_1151701228.Sat.Jul.01_07_00_28.AEST.2006.narrabn.c5.jpg'
p25
aS'daytimex_1280523628.Sat.Jul.31_07_00_28.AEST.2010.narrabn.c5.jpg'
p26
aS'daytimex_1098912044.Thu.Oct.28_07_20_44.AEST.2004.narrabn.c5.jpg'
p27
aS'daytimex_1271624427.Mon.Apr.19_07_00_27.AEST.2010.narrabn.c5.jpg'
p28
aS'daytimex_1279141227.Thu.Jul.15_07_00_27.AEST.2010.narrabn.c5.jpg'
p29
aS'daytimex_1384462828.Fri.Nov.15_07_00_28.AEST.2013.narrabn.c5.jpg'
p30
aS'daytimex_1177102828.Sat.Apr.21_07_00_28.AEST.2007.narrabn.c5.jpg'
p31
aS'daytimex_1394658027.Thu.Mar.13_07_00_27.AEST.2014.narrabn.c5.jpg'
p32
aS'daytimex_1179522028.Sat.May.19_07_00_28.AEST.2007.narrabn.c5.jpg'
p33
aS'daytimex_1298926828.Tue.Mar.01_07_00_28.AEST.2011.narrabn.c5.jpg'
p34
aS'daytimex_1244235628.Sat.Jun.06_07_00_28.AEST.2009.narrabn.c5.jpg'
p35
aS'daytimex_1178398828.Sun.May.06_07_00_28.AEST.2007.narrabn.c5.jpg'
p36
aS'daytimex_1244322027.Sun.Jun.07_07_00_27.AEST.2009.narrabn.c5.jpg'
p37
aS'daytimex_1180904428.Mon.Jun.04_07_00_28.AEST.2007.narrabn.c5.jpg'
p38
aS'daytimex_1106341227.Sat.Jan.22_07_00_27.AEST.2005.narrabn.c5.jpg'
p39
aS'daytimex_1200258027.Mon.Jan.14_07_00_27.AEST.2008.narrabn.c5.jpg'
p40
aS'daytimex_1339448428.Tue.Jun.12_07_00_28.AEST.2012.narrabn.c5.jpg'
p41
aS'daytimex_1207429228.Sun.Apr.06_07_00_28.AEST.2008.narrabn.c5.jpg'
p42
aS'daytimex_1192568427.Wed.Oct.17_07_00_27.AEST.2007.narrabn.c5.jpg'
p43
aS'daytimex_1152565228.Tue.Jul.11_07_00_28.AEST.2006.narrabn.c5.jpg'
p44
aS'daytimex_1129928428.Sat.Oct.22_07_00_28.AEST.2005.narrabn.c5.jpg'
p45
ag13
aS'daytimex_1115326827.Fri.May.06_07_00_27.AEST.2005.narrabn.c5.jpg'
p46
aS'daytimex_1285621228.Tue.Sep.28_07_00_28.AEST.2010.narrabn.c5.jpg'
p47
aS'daytimex_1102453228.Wed.Dec.08_07_00_28.AEST.2004.narrabn.c5.jpg'
p48
aS'daytimex_1176498028.Sat.Apr.14_07_00_28.AEST.2007.narrabn.c5.jpg'
p49
ag1
aS'daytimex_1152738027.Thu.Jul.13_07_00_27.AEST.2006.narrabn.c5.jpg'
p50
aS'daytimex_1215032428.Thu.Jul.03_07_00_28.AEST.2008.narrabn.c5.jpg'
p51
aS'daytimex_1132347628.Sat.Nov.19_07_00_28.AEST.2005.narrabn.c5.jpg'
p52
aS'daytimex_1169326827.Sun.Jan.21_07_00_27.AEST.2007.narrabn.c5.jpg'
p53
aS'daytimex_1305752427.Thu.May.19_07_00_27.AEST.2011.narrabn.c5.jpg'
p54
aS'daytimex_1321045227.Sat.Nov.12_07_00_27.AEST.2011.narrabn.c5.jpg'
p55
ag44
aS'daytimex_1124658027.Mon.Aug.22_07_00_27.AEST.2005.narrabn.c5.jpg'
p56
ag6
aS'daytimex_1313614827.Thu.Aug.18_07_00_27.AEST.2011.narrabn.c5.jpg'
p57
aS'daytimex_1324674027.Sat.Dec.24_07_00_27.AEST.2011.narrabn.c5.jpg'
p58
aS'daytimex_1193346027.Fri.Oct.26_07_00_27.AEST.2007.narrabn.c5.jpg'
p59
aS'daytimex_1304370028.Tue.May.03_07_00_28.AEST.2011.narrabn.c5.jpg'
p60
aS'daytimex_1179435627.Fri.May.18_07_00_27.AEST.2007.narrabn.c5.jpg'
p61
aS'daytimex_1376946027.Tue.Aug.20_07_00_27.AEST.2013.narrabn.c5.jpg'
p62
aS'daytimex_1098652844.Mon.Oct.25_07_20_44.AEST.2004.narrabn.c5.jpg'
p63
aS'daytimex_1192482027.Tue.Oct.16_07_00_27.AEST.2007.narrabn.c5.jpg'
p64
aS'daytimex_1269118827.Sun.Mar.21_07_00_27.AEST.2010.narrabn.c5.jpg'
p65
aS'daytimex_1295730028.Sun.Jan.23_07_00_28.AEST.2011.narrabn.c5.jpg'
p66
aS'daytimex_1206046827.Fri.Mar.21_07_00_27.AEST.2008.narrabn.c5.jpg'
p67
aS'daytimex_1210280428.Fri.May.09_07_00_28.AEST.2008.narrabn.c5.jpg'
p68
aS'daytimex_1396040427.Sat.Mar.29_07_00_27.AEST.2014.narrabn.c5.jpg'
p69
aS'daytimex_1278018028.Fri.Jul.02_07_00_28.AEST.2010.narrabn.c5.jpg'
p70
aS'daytimex_1148331627.Tue.May.23_07_00_27.AEST.2006.narrabn.c5.jpg'
p71
aS'daytimex_1303160427.Tue.Apr.19_07_00_27.AEST.2011.narrabn.c5.jpg'
p72
aS'daytimex_1280350828.Thu.Jul.29_07_00_28.AEST.2010.narrabn.c5.jpg'
p73
aS'daytimex_1114203627.Sat.Apr.23_07_00_27.AEST.2005.narrabn.c5.jpg'
p74
aS'daytimex_1175547628.Tue.Apr.03_07_00_28.AEST.2007.narrabn.c5.jpg'
p75
ag4
aS'daytimex_1102626027.Fri.Dec.10_07_00_27.AEST.2004.narrabn.c5.jpg'
p76
aS'daytimex_1269550828.Fri.Mar.26_07_00_28.AEST.2010.narrabn.c5.jpg'
p77
ag62
ag45
aS'daytimex_1160168427.Sat.Oct.07_07_00_27.AEST.2006.narrabn.c5.jpg'
p78
aS'daytimex_1220043628.Sat.Aug.30_07_00_28.AEST.2008.narrabn.c5.jpg'
p79
aS'daytimex_1114117228.Fri.Apr.22_07_00_28.AEST.2005.narrabn.c5.jpg'
p80
aS'daytimex_1193432428.Sat.Oct.27_07_00_28.AEST.2007.narrabn.c5.jpg'
p81
aS'daytimex_1093641644.Sat.Aug.28_07_20_44.AEST.2004.narrabn.c5.jpg'
p82
aS'daytimex_1121893228.Thu.Jul.21_07_00_28.AEST.2005.narrabn.c5.jpg'
p83
aS'daytimex_1297890028.Thu.Feb.17_07_00_28.AEST.2011.narrabn.c5.jpg'
p84
aS'daytimex_1358024426.Sun.Jan.13_07_00_26.AEST.2013.narrabn.c5.jpg'
p85
aS'daytimex_1095456045.Sat.Sep.18_07_20_45.AEST.2004.narrabn.c5.jpg'
p86
aS'daytimex_1113771628.Mon.Apr.18_07_00_28.AEST.2005.narrabn.c5.jpg'
p87
aS'daytimex_1124744428.Tue.Aug.23_07_00_28.AEST.2005.narrabn.c5.jpg'
p88
aS'daytimex_1156366828.Thu.Aug.24_07_00_28.AEST.2006.narrabn.c5.jpg'
p89
aS'daytimex_1176066028.Mon.Apr.09_07_00_28.AEST.2007.narrabn.c5.jpg'
p90
aS'daytimex_1210366827.Sat.May.10_07_00_27.AEST.2008.narrabn.c5.jpg'
p91
aS'daytimex_1205960427.Thu.Mar.20_07_00_27.AEST.2008.narrabn.c5.jpg'
p92
aS'daytimex_1141246827.Thu.Mar.02_07_00_27.AEST.2006.narrabn.c5.jpg'
p93
ag74
aS'daytimex_1194901228.Tue.Nov.13_07_00_28.AEST.2007.narrabn.c5.jpg'
p94
aS'daytimex_1118437228.Sat.Jun.11_07_00_28.AEST.2005.narrabn.c5.jpg'
p95
aS'daytimex_1159822828.Tue.Oct.03_07_00_28.AEST.2006.narrabn.c5.jpg'
p96
aS'daytimex_1104267628.Wed.Dec.29_07_00_28.AEST.2004.narrabn.c5.jpg'
p97
aS'daytimex_1376859628.Mon.Aug.19_07_00_28.AEST.2013.narrabn.c5.jpg'
p98
aS'daytimex_1199826027.Wed.Jan.09_07_00_27.AEST.2008.narrabn.c5.jpg'
p99
aS'daytimex_1313182827.Sat.Aug.13_07_00_27.AEST.2011.narrabn.c5.jpg'
p100
aS'daytimex_1123448428.Mon.Aug.08_07_00_28.AEST.2005.narrabn.c5.jpg'
p101
aS'daytimex_1309554027.Sat.Jul.02_07_00_27.AEST.2011.narrabn.c5.jpg'
p102
aS'daytimex_1382648427.Fri.Oct.25_07_00_27.AEST.2013.narrabn.c5.jpg'
p103
aS'daytimex_1239138028.Wed.Apr.08_07_00_28.AEST.2009.narrabn.c5.jpg'
p104
aS'daytimex_1276635628.Wed.Jun.16_07_00_28.AEST.2010.narrabn.c5.jpg'
p105
aS'daytimex_1100553644.Tue.Nov.16_07_20_44.AEST.2004.narrabn.c5.jpg'
p106
ag64
aS'daytimex_1266267628.Tue.Feb.16_07_00_28.AEST.2010.narrabn.c5.jpg'
p107
aS'daytimex_1355259627.Wed.Dec.12_07_00_27.AEST.2012.narrabn.c5.jpg'
p108
aS'daytimex_1277758827.Tue.Jun.29_07_00_27.AEST.2010.narrabn.c5.jpg'
p109
aS'daytimex_1394830828.Sat.Mar.15_07_00_28.AEST.2014.narrabn.c5.jpg'
p110
aS'daytimex_1192136427.Fri.Oct.12_07_00_27.AEST.2007.narrabn.c5.jpg'
p111
aS'daytimex_1159909227.Wed.Oct.04_07_00_27.AEST.2006.narrabn.c5.jpg'
p112
aS'daytimex_1390165228.Mon.Jan.20_07_00_28.AEST.2014.narrabn.c5.jpg'
p113
aS'daytimex_1104526828.Sat.Jan.01_07_00_28.AEST.2005.narrabn.c5.jpg'
p114
aS'daytimex_1246654827.Sat.Jul.04_07_00_27.AEST.2009.narrabn.c5.jpg'
p115
aS'daytimex_1289336428.Wed.Nov.10_07_00_28.AEST.2010.narrabn.c5.jpg'
p116
aS'daytimex_1099171245.Sun.Oct.31_07_20_45.AEST.2004.narrabn.c5.jpg'
p117
ag54
aS'daytimex_1375736428.Tue.Aug.06_07_00_28.AEST.2013.narrabn.c5.jpg'
p118
aS'daytimex_1112562027.Mon.Apr.04_07_00_27.AEST.2005.narrabn.c5.jpg'
p119
aS'daytimex_1363381227.Sat.Mar.16_07_00_27.AEST.2013.narrabn.c5.jpg'
p120
aS'daytimex_1119733228.Sun.Jun.26_07_00_28.AEST.2005.narrabn.c5.jpg'
p121
aS'daytimex_1282856427.Fri.Aug.27_07_00_27.AEST.2010.narrabn.c5.jpg'
p122
ag57
ag82
aS'daytimex_1110229228.Tue.Mar.08_07_00_28.AEST.2005.narrabn.c5.jpg'
p123
aS'daytimex_1277240427.Wed.Jun.23_07_00_27.AEST.2010.narrabn.c5.jpg'
p124
aS'daytimex_1201035627.Wed.Jan.23_07_00_27.AEST.2008.narrabn.c5.jpg'
p125
aS'daytimex_1334523627.Mon.Apr.16_07_00_27.AEST.2012.narrabn.c5.jpg'
p126
aS'daytimex_1224622828.Wed.Oct.22_07_00_28.AEST.2008.narrabn.c5.jpg'
p127
aS'daytimex_1297630827.Mon.Feb.14_07_00_27.AEST.2011.narrabn.c5.jpg'
p128
aS'daytimex_1348952427.Sun.Sep.30_07_00_27.AEST.2012.narrabn.c5.jpg'
p129
ag9
aS'daytimex_1200949228.Tue.Jan.22_07_00_28.AEST.2008.narrabn.c5.jpg'
p130
aS'daytimex_1176584427.Sun.Apr.15_07_00_27.AEST.2007.narrabn.c5.jpg'
p131
aS'daytimex_1263070827.Sun.Jan.10_07_00_27.AEST.2010.narrabn.c5.jpg'
p132
aS'daytimex_1295643628.Sat.Jan.22_07_00_28.AEST.2011.narrabn.c5.jpg'
p133
ag125
aS'daytimex_1106600428.Tue.Jan.25_07_00_28.AEST.2005.narrabn.c5.jpg'
p134
aS'daytimex_1118264428.Thu.Jun.09_07_00_28.AEST.2005.narrabn.c5.jpg'
p135
aS'daytimex_1105304428.Mon.Jan.10_07_00_28.AEST.2005.narrabn.c5.jpg'
p136
ag39
aS'daytimex_1166907628.Sun.Dec.24_07_00_28.AEST.2006.narrabn.c5.jpg'
p137
aS'daytimex_1094764845.Fri.Sep.10_07_20_45.AEST.2004.narrabn.c5.jpg'
p138
aS'daytimex_1132261228.Fri.Nov.18_07_00_28.AEST.2005.narrabn.c5.jpg'
p139
aS'daytimex_1115758827.Wed.May.11_07_00_27.AEST.2005.narrabn.c5.jpg'
p140
aS'daytimex_1364245227.Tue.Mar.26_07_00_27.AEST.2013.narrabn.c5.jpg'
p141
ag17
aS'daytimex_1130446828.Fri.Oct.28_07_00_28.AEST.2005.narrabn.c5.jpg'
p142
aS'daytimex_1232658027.Fri.Jan.23_07_00_27.AEST.2009.narrabn.c5.jpg'
p143
aS'daytimex_1335128427.Mon.Apr.23_07_00_27.AEST.2012.narrabn.c5.jpg'
p144
aS'daytimex_1200430827.Wed.Jan.16_07_00_27.AEST.2008.narrabn.c5.jpg'
p145
aS'daytimex_1259442028.Sun.Nov.29_07_00_28.AEST.2009.narrabn.c5.jpg'
p146
aS'daytimex_1133470828.Fri.Dec.02_07_00_28.AEST.2005.narrabn.c5.jpg'
p147
aS'daytimex_1231016428.Sun.Jan.04_07_00_28.AEST.2009.narrabn.c5.jpg'
p148
aS'daytimex_1367701227.Sun.May.05_07_00_27.AEST.2013.narrabn.c5.jpg'
p149
aS'daytimex_1355432427.Fri.Dec.14_07_00_27.AEST.2012.narrabn.c5.jpg'
p150
ag146
ag96
aS'daytimex_1349730027.Tue.Oct.09_07_00_27.AEST.2012.narrabn.c5.jpg'
p151
ag103
aS'daytimex_1344805229.Mon.Aug.13_07_00_29.AEST.2012.narrabn.c5.jpg'
p152
aS'daytimex_1232744428.Sat.Jan.24_07_00_28.AEST.2009.narrabn.c5.jpg'
p153
aS'daytimex_1112130027.Wed.Mar.30_07_00_27.AEST.2005.narrabn.c5.jpg'
p154
aS'daytimex_1382389228.Tue.Oct.22_07_00_28.AEST.2013.narrabn.c5.jpg'
p155
aS'daytimex_1397077227.Thu.Apr.10_07_00_27.AEST.2014.narrabn.c5.jpg'
p156
aS'daytimex_1123362028.Sun.Aug.07_07_00_28.AEST.2005.narrabn.c5.jpg'
p157
aS'daytimex_1307134828.Sat.Jun.04_07_00_28.AEST.2011.narrabn.c5.jpg'
p158
ag144
aS'daytimex_1366750827.Wed.Apr.24_07_00_27.AEST.2013.narrabn.c5.jpg'
p159
aS'daytimex_1125867628.Mon.Sep.05_07_00_28.AEST.2005.narrabn.c5.jpg'
p160
aS'daytimex_1105131627.Sat.Jan.08_07_00_27.AEST.2005.narrabn.c5.jpg'
p161
aS'daytimex_1172955628.Sun.Mar.04_07_00_28.AEST.2007.narrabn.c5.jpg'
p162
aS'daytimex_1366664426.Tue.Apr.23_07_00_26.AEST.2013.narrabn.c5.jpg'
p163
ag117
aS'daytimex_1100640044.Wed.Nov.17_07_20_44.AEST.2004.narrabn.c5.jpg'
p164
ag162
ag121
aS'daytimex_1289422827.Thu.Nov.11_07_00_27.AEST.2010.narrabn.c5.jpg'
p165
aS'daytimex_1137013242.Thu.Jan.12_07_00_42.AEST.2006.narrabn.c5.jpg'
p166
aS'daytimex_1223931628.Tue.Oct.14_07_00_28.AEST.2008.narrabn.c5.jpg'
p167
aS'daytimex_1130878828.Wed.Nov.02_07_00_28.AEST.2005.narrabn.c5.jpg'
p168
aS'daytimex_1179608427.Sun.May.20_07_00_27.AEST.2007.narrabn.c5.jpg'
p169
aS'daytimex_1327352427.Tue.Jan.24_07_00_27.AEST.2012.narrabn.c5.jpg'
p170
aS'daytimex_1141506027.Sun.Mar.05_07_00_27.AEST.2006.narrabn.c5.jpg'
p171
ag86
aS'daytimex_1230152428.Thu.Dec.25_07_00_28.AEST.2008.narrabn.c5.jpg'
p172
ag30
ag160
aS'daytimex_1189458027.Tue.Sep.11_07_00_27.AEST.2007.narrabn.c5.jpg'
p173
ag55
aS'daytimex_1363122026.Wed.Mar.13_07_00_26.AEST.2013.narrabn.c5.jpg'
p174
ag27
aS'daytimex_1364763627.Mon.Apr.01_07_00_27.AEST.2013.narrabn.c5.jpg'
p175
aS'daytimex_1363467627.Sun.Mar.17_07_00_27.AEST.2013.narrabn.c5.jpg'
p176
aS'daytimex_1363986027.Sat.Mar.23_07_00_27.AEST.2013.narrabn.c5.jpg'
p177
aS'daytimex_1129755628.Thu.Oct.20_07_00_28.AEST.2005.narrabn.c5.jpg'
p178
ag60
aS'daytimex_1364158827.Mon.Mar.25_07_00_27.AEST.2013.narrabn.c5.jpg'
p179
aS'daytimex_1199566827.Sun.Jan.06_07_00_27.AEST.2008.narrabn.c5.jpg'
p180
aS'daytimex_1200171628.Sun.Jan.13_07_00_28.AEST.2008.narrabn.c5.jpg'
p181
aS'daytimex_1362862827.Sun.Mar.10_07_00_27.AEST.2013.narrabn.c5.jpg'
p182
aS'daytimex_1365109227.Fri.Apr.05_07_00_27.AEST.2013.narrabn.c5.jpg'
p183
aS'daytimex_1199998828.Fri.Jan.11_07_00_28.AEST.2008.narrabn.c5.jpg'
p184
aS'daytimex_1325019628.Wed.Dec.28_07_00_28.AEST.2011.narrabn.c5.jpg'
p185
aS'daytimex_1129842028.Fri.Oct.21_07_00_28.AEST.2005.narrabn.c5.jpg'
p186
aS'daytimex_1161205227.Thu.Oct.19_07_00_27.AEST.2006.narrabn.c5.jpg'
p187
aS'daytimex_1364504427.Fri.Mar.29_07_00_27.AEST.2013.narrabn.c5.jpg'
p188
aS'daytimex_1200085228.Sat.Jan.12_07_00_28.AEST.2008.narrabn.c5.jpg'
p189
aS'daytimex_1390078828.Sun.Jan.19_07_00_28.AEST.2014.narrabn.c5.jpg'
p190
aS'daytimex_1365714027.Fri.Apr.12_07_00_27.AEST.2013.narrabn.c5.jpg'
p191
ag101
aS'daytimex_1199307628.Thu.Jan.03_07_00_28.AEST.2008.narrabn.c5.jpg'
p192
ag99
aS'daytimex_1098739244.Tue.Oct.26_07_20_44.AEST.2004.narrabn.c5.jpg'
p193
aS'daytimex_1141419628.Sat.Mar.04_07_00_28.AEST.2006.narrabn.c5.jpg'
p194
ag63
ag18
aS'daytimex_1199653228.Mon.Jan.07_07_00_28.AEST.2008.narrabn.c5.jpg'
p195
aS'daytimex_1365454827.Tue.Apr.09_07_00_27.AEST.2013.narrabn.c5.jpg'
p196
aS'daytimex_1238360427.Mon.Mar.30_07_00_27.AEST.2009.narrabn.c5.jpg'
p197
aS'daytimex_1245358827.Fri.Jun.19_07_00_27.AEST.2009.narrabn.c5.jpg'
p198
ag189
ag158
aS'daytimex_1098825644.Wed.Oct.27_07_20_44.AEST.2004.narrabn.c5.jpg'
p199
aS'daytimex_1098566444.Sun.Oct.24_07_20_44.AEST.2004.narrabn.c5.jpg'
p200
ag76
aS'daytimex_1364072427.Sun.Mar.24_07_00_27.AEST.2013.narrabn.c5.jpg'
p201
aS'daytimex_1169413228.Mon.Jan.22_07_00_28.AEST.2007.narrabn.c5.jpg'
p202
ag174
aS'daytimex_1146258028.Sat.Apr.29_07_00_28.AEST.2006.narrabn.c5.jpg'
p203
ag53
aS'daytimex_1191877228.Tue.Oct.09_07_00_28.AEST.2007.narrabn.c5.jpg'
p204
aS'daytimex_1307048427.Fri.Jun.03_07_00_27.AEST.2011.narrabn.c5.jpg'
p205
aS'daytimex_1391115627.Fri.Jan.31_07_00_27.AEST.2014.narrabn.c5.jpg'
p206
ag115
aS'daytimex_1319749225.Fri.Oct.28_07_00_25.AEST.2011.narrabn.c5.jpg'
p207
aS'daytimex_1363035626.Tue.Mar.12_07_00_26.AEST.2013.narrabn.c5.jpg'
p208
aS'daytimex_1364418026.Thu.Mar.28_07_00_26.AEST.2013.narrabn.c5.jpg'
p209
aS'daytimex_1285448428.Sun.Sep.26_07_00_28.AEST.2010.narrabn.c5.jpg'
p210
aS'daytimex_1252357227.Tue.Sep.08_07_00_27.AEST.2009.narrabn.c5.jpg'
p211
a.