(lp0
Vdaytimex_1377205228.Fri.Aug.23_07_00_28.AEST.2013.narrabn.c5.jpg
p1
aS'daytimex_1394226027.Sat.Mar.08_07_00_27.AEST.2014.narrabn.c5.jpg'
p2
aS'daytimex_1394658027.Thu.Mar.13_07_00_27.AEST.2014.narrabn.c5.rot.jpg'
p3
aVdaytimex_1394658027.Thu.Mar.13_07_00_27.AEST.2014.narrabn.c5.jpg
p4
aVdaytimex_1396472427.Thu.Apr.03_07_00_27.AEST.2014.narrabn.c5.jpg
p5
aS'daytimex_1396645228.Sat.Apr.05_07_00_28.AEST.2014.narrabn.c5.jpg'
p6
aS'daytimex_1400187607.Fri.May.16_07_00_07.AEST.2014.narrabn.c5.jpg'
p7
aS'daytimex_1400706007.Thu.May.22_07_00_07.AEST.2014.narrabn.c5.jpg'
p8
aS'daytimex_1427765407.Tue.Mar.31_11_30_07.AEST.2015.narrabn.c5.jpg'
p9
aS'daytimex_1431309606.Mon.May.11_12_00_06.AEST.2015.narrabn.c5.jpg'
p10
aS'daytimex_1433813407.Tue.Jun.09_11_30_07.AEST.2015.narrabn.c5.jpg'
p11
aS'daytimex_1436477406.Fri.Jul.10_07_30_06.AEST.2015.narrabn.c5.jpg'
p12
aS'daytimex_1458334806.Sat.Mar.19_07_00_06.AEST.2016.narrabn.c5.jpg'
p13
aS'daytimex_1462325407.Wed.May.04_11_30_07.AEST.2016.narrabn.c5.jpg'
p14
aS'daytimex_1462914006.Wed.May.11_07_00_06.AEST.2016.narrabn.c5.jpg'
p15
aS'daytimex_1475458207.Mon.Oct.03_12_30_07.AEST.2016.narrabn.c5.jpg'
p16
aS'daytimex_1525467606.Sat.May.05_07_00_06.AEST.2018.narrabn.c5.jpg'
p17
aS'daytimex_1529182806.Sun.Jun.17_07_00_06.AEST.2018.narrabn.c5.jpg'
p18
aS'daytimex_1530307806.Sat.Jun.30_07_30_06.AEST.2018.narrabn.c5.jpg'
p19
aS'daytimex_1530392406.Sun.Jul.01_07_00_06.AEST.2018.narrabn.c5.jpg'
p20
aS'daytimex_1532898005.Mon.Jul.30_07_00_05.AEST.2018.narrabn.c5.jpg'
p21
aS'daytimex_1533070806.Wed.Aug.01_07_00_06.AEST.2018.narrabn.c5.jpg'
p22
aS'daytimex_1533432607.Sun.Aug.05_11_30_07.AEST.2018.narrabn.c5.jpg'
p23
aS'daytimex_1534555807.Sat.Aug.18_11_30_07.AEST.2018.narrabn.c5.jpg'
p24
aS'daytimex_1538271006.Sun.Sep.30_11_30_06.AEST.2018.narrabn.c5.jpg'
p25
aVdaytimex_1299272428.Sat.Mar.05_07_00_28.AEST.2011.narrabn.c5.jpg
p26
aVdaytimex_1299358827.Sun.Mar.06_07_00_27.AEST.2011.narrabn.c5.jpg
p27
aVdaytimex_1299790827.Fri.Mar.11_07_00_27.AEST.2011.narrabn.c5.jpg
p28
aVdaytimex_1300482028.Sat.Mar.19_07_00_28.AEST.2011.narrabn.c5.jpg
p29
aVdaytimex_1301691628.Sat.Apr.02_07_00_28.AEST.2011.narrabn.c5.jpg
p30
aVdaytimex_1301950828.Tue.Apr.05_07_00_28.AEST.2011.narrabn.c5.jpg
p31
aVdaytimex_1302123627.Thu.Apr.07_07_00_27.AEST.2011.narrabn.c5.jpg
p32
aVdaytimex_1302987627.Sun.Apr.17_07_00_27.AEST.2011.narrabn.c5.jpg
p33
aVdaytimex_1303074028.Mon.Apr.18_07_00_28.AEST.2011.narrabn.c5.jpg
p34
aVdaytimex_1303160427.Tue.Apr.19_07_00_27.AEST.2011.narrabn.c5.jpg
p35
aVdaytimex_1305666027.Wed.May.18_07_00_27.AEST.2011.narrabn.c5.jpg
p36
aVdaytimex_1305752427.Thu.May.19_07_00_27.AEST.2011.narrabn.c5.jpg
p37
aVdaytimex_1321045227.Sat.Nov.12_07_00_27.AEST.2011.narrabn.c5.jpg
p38
aVdaytimex_1338670828.Sun.Jun.03_07_00_28.AEST.2012.narrabn.c5.jpg
p39
aVdaytimex_1349125227.Tue.Oct.02_07_00_27.AEST.2012.narrabn.c5.jpg
p40
aVdaytimex_1349470828.Sat.Oct.06_07_00_28.AEST.2012.narrabn.c5.jpg
p41
aVdaytimex_1358024426.Sun.Jan.13_07_00_26.AEST.2013.narrabn.c5.jpg
p42
aVdaytimex_1358370027.Thu.Jan.17_07_00_27.AEST.2013.narrabn.c5.jpg
p43
aVdaytimex_1383339628.Sat.Nov.02_07_00_28.AEST.2013.narrabn.c5.jpg
p44
aVdaytimex_1383512428.Mon.Nov.04_07_00_28.AEST.2013.narrabn.c5.jpg
p45
aVdaytimex_1393621227.Sat.Mar.01_07_00_27.AEST.2014.narrabn.c5.jpg
p46
aVdaytimex_1393794028.Mon.Mar.03_07_00_28.AEST.2014.narrabn.c5.jpg
p47
aVdaytimex_1393966828.Wed.Mar.05_07_00_28.AEST.2014.narrabn.c5.jpg
p48
aVdaytimex_1394830828.Sat.Mar.15_07_00_28.AEST.2014.narrabn.c5.jpg
p49
aVdaytimex_1395867628.Thu.Mar.27_07_00_28.AEST.2014.narrabn.c5.jpg
p50
aVdaytimex_1397163628.Fri.Apr.11_07_00_28.AEST.2014.narrabn.c5.jpg
p51
aVdaytimex_1408136407.Sat.Aug.16_07_00_07.AEST.2014.narrabn.c5.jpg
p52
aVdaytimex_1428111006.Sat.Apr.04_11_30_06.AEST.2015.narrabn.c5.jpg
p53
aVdaytimex_1493413207.Sat.Apr.29_07_00_07.AEST.2017.narrabn.c5.jpg
p54
aVdaytimex_1502139606.Tue.Aug.08_07_00_06.AEST.2017.narrabn.c5.jpg
p55
aVdaytimex_1518120006.Fri.Feb.09_07_00_06.AEST.2018.narrabn.c5.jpg
p56
aVdaytimex_1334523627.Mon.Apr.16_07_00_27.AEST.2012.narrabn.c5.jpg
p57
aVdaytimex_1341176428.Mon.Jul.02_07_00_28.AEST.2012.narrabn.c5.jpg
p58
aVdaytimex_1341277228.Tue.Jul.03_11_00_28.AEST.2012.narrabn.c5.jpg
p59
aVdaytimex_1348779627.Fri.Sep.28_07_00_27.AEST.2012.narrabn.c5.jpg
p60
aVdaytimex_1348952427.Sun.Sep.30_07_00_27.AEST.2012.narrabn.c5.jpg
p61
aVdaytimex_1351371628.Sun.Oct.28_07_00_28.AEST.2012.narrabn.c5.jpg
p62
aVdaytimex_1354827627.Fri.Dec.07_07_00_27.AEST.2012.narrabn.c5.jpg
p63
aVdaytimex_1355259627.Wed.Dec.12_07_00_27.AEST.2012.narrabn.c5.jpg
p64
aVdaytimex_1356123626.Sat.Dec.22_07_00_26.AEST.2012.narrabn.c5.jpg
p65
aVdaytimex_1373749228.Sun.Jul.14_07_00_28.AEST.2013.narrabn.c5.jpg
p66
aVdaytimex_1375736428.Tue.Aug.06_07_00_28.AEST.2013.narrabn.c5.jpg
p67
aVdaytimex_1376773228.Sun.Aug.18_07_00_28.AEST.2013.narrabn.c5.jpg
p68
aVdaytimex_1376859628.Mon.Aug.19_07_00_28.AEST.2013.narrabn.c5.jpg
p69
aVdaytimex_1376946027.Tue.Aug.20_07_00_27.AEST.2013.narrabn.c5.jpg
p70
aVdaytimex_1382389228.Tue.Oct.22_07_00_28.AEST.2013.narrabn.c5.jpg
p71
aVdaytimex_1382475627.Wed.Oct.23_07_00_27.AEST.2013.narrabn.c5.jpg
p72
aVdaytimex_1382562028.Thu.Oct.24_07_00_28.AEST.2013.narrabn.c5.jpg
p73
aVdaytimex_1382648427.Fri.Oct.25_07_00_27.AEST.2013.narrabn.c5.jpg
p74
aVdaytimex_1383166828.Thu.Oct.31_07_00_28.AEST.2013.narrabn.c5.jpg
p75
aVdaytimex_1386882027.Fri.Dec.13_07_00_27.AEST.2013.narrabn.c5.jpg
p76
aVdaytimex_1387054828.Sun.Dec.15_07_00_28.AEST.2013.narrabn.c5.jpg
p77
aVdaytimex_1391374827.Mon.Feb.03_07_00_27.AEST.2014.narrabn.c5.jpg
p78
aVdaytimex_1392325227.Fri.Feb.14_07_00_27.AEST.2014.narrabn.c5.jpg
p79
aVdaytimex_1392670828.Tue.Feb.18_07_00_28.AEST.2014.narrabn.c5.jpg
p80
aVdaytimex_1392930028.Fri.Feb.21_07_00_28.AEST.2014.narrabn.c5.jpg
p81
aVdaytimex_1397077227.Thu.Apr.10_07_00_27.AEST.2014.narrabn.c5.jpg
p82
aVdaytimex_1410987606.Thu.Sep.18_07_00_06.AEST.2014.narrabn.c5.jpg
p83
aVdaytimex_1411765207.Sat.Sep.27_07_00_07.AEST.2014.narrabn.c5.jpg
p84
aVdaytimex_1511746207.Mon.Nov.27_12_30_07.AEST.2017.narrabn.c5.jpg
p85
acnumpy.core.multiarray
scalar
p86
(cnumpy
dtype
p87
(S'U64'
p88
I0
I1
tp89
Rp90
(I3
S'<'
p91
NNNI256
I4
I8
tp92
bS'd\x00\x00\x00a\x00\x00\x00y\x00\x00\x00t\x00\x00\x00i\x00\x00\x00m\x00\x00\x00e\x00\x00\x00x\x00\x00\x00_\x00\x00\x001\x00\x00\x002\x00\x00\x008\x00\x00\x003\x00\x00\x008\x00\x00\x009\x00\x00\x003\x00\x00\x002\x00\x00\x002\x00\x00\x008\x00\x00\x00.\x00\x00\x00W\x00\x00\x00e\x00\x00\x00d\x00\x00\x00.\x00\x00\x00S\x00\x00\x00e\x00\x00\x00p\x00\x00\x00.\x00\x00\x000\x00\x00\x008\x00\x00\x00_\x00\x00\x000\x00\x00\x007\x00\x00\x00_\x00\x00\x000\x00\x00\x000\x00\x00\x00_\x00\x00\x002\x00\x00\x008\x00\x00\x00.\x00\x00\x00A\x00\x00\x00E\x00\x00\x00S\x00\x00\x00T\x00\x00\x00.\x00\x00\x002\x00\x00\x000\x00\x00\x001\x00\x00\x000\x00\x00\x00.\x00\x00\x00n\x00\x00\x00a\x00\x00\x00r\x00\x00\x00r\x00\x00\x00a\x00\x00\x00b\x00\x00\x00n\x00\x00\x00.\x00\x00\x00c\x00\x00\x005\x00\x00\x00.\x00\x00\x00j\x00\x00\x00p\x00\x00\x00g\x00\x00\x00'
p93
tp94
Rp95
aVdaytimex_1289336428.Wed.Nov.10_07_00_28.AEST.2010.narrabn.c5.jpg
p96
aVdaytimex_1289422827.Thu.Nov.11_07_00_27.AEST.2010.narrabn.c5.jpg
p97
aVdaytimex_1307134828.Sat.Jun.04_07_00_28.AEST.2011.narrabn.c5.jpg
p98
aVdaytimex_1319749225.Fri.Oct.28_07_00_25.AEST.2011.narrabn.c5.jpg
p99
aVdaytimex_1322773228.Fri.Dec.02_07_00_28.AEST.2011.narrabn.c5.jpg
p100
aVdaytimex_1327179628.Sun.Jan.22_07_00_28.AEST.2012.narrabn.c5.jpg
p101
aVdaytimex_1327352427.Tue.Jan.24_07_00_27.AEST.2012.narrabn.c5.jpg
p102
aVdaytimex_1328475628.Mon.Feb.06_07_00_28.AEST.2012.narrabn.c5.jpg
p103
aVdaytimex_1331586028.Tue.Mar.13_07_00_28.AEST.2012.narrabn.c5.jpg
p104
aVdaytimex_1335128427.Mon.Apr.23_07_00_27.AEST.2012.narrabn.c5.jpg
p105
aVdaytimex_1337374827.Sat.May.19_07_00_27.AEST.2012.narrabn.c5.jpg
p106
aVdaytimex_1344373228.Wed.Aug.08_07_00_28.AEST.2012.narrabn.c5.jpg
p107
aVdaytimex_1344891627.Tue.Aug.14_07_00_27.AEST.2012.narrabn.c5.jpg
p108
aVdaytimex_1352581227.Sun.Nov.11_07_00_27.AEST.2012.narrabn.c5.jpg
p109
aVdaytimex_1355518826.Sat.Dec.15_07_00_26.AEST.2012.narrabn.c5.jpg
p110
aVdaytimex_1366578027.Mon.Apr.22_07_00_27.AEST.2013.narrabn.c5.jpg
p111
aVdaytimex_1366664426.Tue.Apr.23_07_00_26.AEST.2013.narrabn.c5.jpg
p112
aVdaytimex_1366750827.Wed.Apr.24_07_00_27.AEST.2013.narrabn.c5.jpg
p113
aVdaytimex_1367701227.Sun.May.05_07_00_27.AEST.2013.narrabn.c5.jpg
p114
aVdaytimex_1375650027.Mon.Aug.05_07_00_27.AEST.2013.narrabn.c5.jpg
p115
aVdaytimex_1483128006.Sat.Dec.31_07_00_06.AEST.2016.narrabn.c5.jpg
p116
aS'daytimex_1530910806.Sat.Jul.07_07_00_06.AEST.2018.narrabn.c5.jpg'
p117
aS'daytimex_1540344607.Wed.Oct.24_12_30_07.AEST.2018.narrabn.c5.jpg'
p118
aS'daytimex_1543780806.Mon.Dec.03_07_00_06.AEST.2018.narrabn.c5.jpg'
p119
aS'daytimex_1545442207.Sat.Dec.22_12_30_07.AEST.2018.narrabn.c5.jpg'
p120
aVdaytimex_1364418026.Thu.Mar.28_07_00_26.AEST.2013.narrabn.c5.jpg
p121
aVdaytimex_1364504427.Fri.Mar.29_07_00_27.AEST.2013.narrabn.c5.jpg
p122
aVdaytimex_1365195627.Sat.Apr.06_07_00_27.AEST.2013.narrabn.c5.jpg
p123
aVdaytimex_1366059626.Tue.Apr.16_07_00_26.AEST.2013.narrabn.c5.jpg
p124
aVdaytimex_1379451627.Wed.Sep.18_07_00_27.AEST.2013.narrabn.c5.jpg
p125
aVdaytimex_1379624427.Fri.Sep.20_07_00_27.AEST.2013.narrabn.c5.jpg
p126
aVdaytimex_1390078828.Sun.Jan.19_07_00_28.AEST.2014.narrabn.c5.jpg
p127
aVdaytimex_1390165228.Mon.Jan.20_07_00_28.AEST.2014.narrabn.c5.jpg
p128
aVdaytimex_1391115627.Fri.Jan.31_07_00_27.AEST.2014.narrabn.c5.jpg
p129
aS'daytimex_1422063007.Sat.Jan.24_11_30_07.AEST.2015.narrabn.c5.jpg'
p130
aS'daytimex_1426728607.Thu.Mar.19_11_30_07.AEST.2015.narrabn.c5.jpg'
p131
aS'daytimex_1429736406.Thu.Apr.23_07_00_06.AEST.2015.narrabn.c5.jpg'
p132
aS'daytimex_1433367007.Thu.Jun.04_07_30_07.AEST.2015.narrabn.c5.jpg'
p133
aS'daytimex_1444597206.Mon.Oct.12_07_00_06.AEST.2015.narrabn.c5.jpg'
p134
aS'daytimex_1445995807.Wed.Oct.28_11_30_07.AEST.2015.narrabn.c5.jpg'
p135
aS'daytimex_1446773407.Fri.Nov.06_11_30_07.AEST.2015.narrabn.c5.jpg'
p136
aS'daytimex_1448501407.Thu.Nov.26_11_30_07.AEST.2015.narrabn.c5.jpg'
p137
aS'daytimex_1449451807.Mon.Dec.07_11_30_07.AEST.2015.narrabn.c5.jpg'
p138
aS'daytimex_1530738007.Thu.Jul.05_07_00_07.AEST.2018.narrabn.c5.jpg'
p139
aS'daytimex_1531170007.Tue.Jul.10_07_00_07.AEST.2018.narrabn.c5.jpg'
p140
aS'daytimex_1535679006.Fri.Aug.31_11_30_06.AEST.2018.narrabn.c5.jpg'
p141
aS'daytimex_1539547207.Mon.Oct.15_07_00_07.AEST.2018.narrabn.c5.jpg'
p142
aS'daytimex_1545096607.Tue.Dec.18_12_30_07.AEST.2018.narrabn.c5.jpg'
p143
aS'daytimex_1546133407.Sun.Dec.30_12_30_07.AEST.2018.narrabn.c5.jpg'
p144
aS'daytimex_1546219806.Mon.Dec.31_12_30_06.AEST.2018.narrabn.c5.jpg'
p145
a.