(dp0
S'daytimex_1200085228.Sat.Jan.12_07_00_28.AEST.2008.narrabn.c5.jpg'
p1
I4
sS'daytimex_1169326827.Sun.Jan.21_07_00_27.AEST.2007.narrabn.c5.jpg'
p2
I4
sS'daytimex_1277845228.Wed.Jun.30_07_00_28.AEST.2010.narrabn.c5.jpg'
p3
I2
sS'daytimex_1339448428.Tue.Jun.12_07_00_28.AEST.2012.narrabn.c5.jpg'
p4
I0
sS'daytimex_1123448428.Mon.Aug.08_07_00_28.AEST.2005.narrabn.c5.jpg'
p5
I2
sS'daytimex_1393880427.Tue.Mar.04_07_00_27.AEST.2014.narrabn.c5.jpg'
p6
I1
sS'daytimex_1113771628.Mon.Apr.18_07_00_28.AEST.2005.narrabn.c5.jpg'
p7
I2
sS'daytimex_1205614828.Sun.Mar.16_07_00_28.AEST.2008.narrabn.c5.jpg'
p8
I2
sS'daytimex_1115758827.Wed.May.11_07_00_27.AEST.2005.narrabn.c5.jpg'
p9
I0
sS'daytimex_1151614827.Fri.Jun.30_07_00_27.AEST.2006.narrabn.c5.jpg'
p10
I0
sS'daytimex_1335128427.Mon.Apr.23_07_00_27.AEST.2012.narrabn.c5.jpg'
p11
I3
sS'daytimex_1095456045.Sat.Sep.18_07_20_45.AEST.2004.narrabn.c5.jpg'
p12
I1
sS'daytimex_1192568427.Wed.Oct.17_07_00_27.AEST.2007.narrabn.c5.jpg'
p13
I1
sS'daytimex_1118264428.Thu.Jun.09_07_00_28.AEST.2005.narrabn.c5.jpg'
p14
I2
sS'daytimex_1124485228.Sat.Aug.20_07_00_28.AEST.2005.narrabn.c5.jpg'
p15
I0
sS'daytimex_1098912044.Thu.Oct.28_07_20_44.AEST.2004.narrabn.c5.jpg'
p16
I4
sS'daytimex_1199998828.Fri.Jan.11_07_00_28.AEST.2008.narrabn.c5.jpg'
p17
I4
sS'daytimex_1233608428.Tue.Feb.03_07_00_28.AEST.2009.narrabn.c5.jpg'
p18
I1
sS'daytimex_1219179627.Wed.Aug.20_07_00_27.AEST.2008.narrabn.c5.jpg'
p19
I2
sS'daytimex_1278018028.Fri.Jul.02_07_00_28.AEST.2010.narrabn.c5.jpg'
p20
I1
sS'daytimex_1396040427.Sat.Mar.29_07_00_27.AEST.2014.narrabn.c5.jpg'
p21
I1
sS'daytimex_1364504427.Fri.Mar.29_07_00_27.AEST.2013.narrabn.c5.jpg'
p22
I4
sS'daytimex_1094764845.Fri.Sep.10_07_20_45.AEST.2004.narrabn.c5.jpg'
p23
I3
sS'daytimex_1105822828.Sun.Jan.16_07_00_28.AEST.2005.narrabn.c5.jpg'
p24
I4
sS'daytimex_1376946027.Tue.Aug.20_07_00_27.AEST.2013.narrabn.c5.jpg'
p25
I1
sS'daytimex_1179435627.Fri.May.18_07_00_27.AEST.2007.narrabn.c5.jpg'
p26
I1
sS'daytimex_1275080427.Sat.May.29_07_00_27.AEST.2010.narrabn.c5.jpg'
p27
I3
sS'daytimex_1175547628.Tue.Apr.03_07_00_28.AEST.2007.narrabn.c5.jpg'
p28
I2
sS'daytimex_1115326827.Fri.May.06_07_00_27.AEST.2005.narrabn.c5.jpg'
p29
I0
sS'daytimex_1216328427.Fri.Jul.18_07_00_27.AEST.2008.narrabn.c5.jpg'
p30
I0
sS'daytimex_1141506027.Sun.Mar.05_07_00_27.AEST.2006.narrabn.c5.jpg'
p31
I4
sS'daytimex_1365109227.Fri.Apr.05_07_00_27.AEST.2013.narrabn.c5.jpg'
p32
I4
sS'daytimex_1107032427.Sun.Jan.30_07_00_27.AEST.2005.narrabn.c5.jpg'
p33
I3
sS'daytimex_1166475628.Tue.Dec.19_07_00_28.AEST.2006.narrabn.c5.jpg'
p34
I1
sS'daytimex_1115154028.Wed.May.04_07_00_28.AEST.2005.narrabn.c5.jpg'
p35
I1
sS'daytimex_1257195628.Tue.Nov.03_07_00_28.AEST.2009.narrabn.c5.jpg'
p36
I2
sS'daytimex_1115499628.Sun.May.08_07_00_28.AEST.2005.narrabn.c5.jpg'
p37
I0
sS'daytimex_1192482027.Tue.Oct.16_07_00_27.AEST.2007.narrabn.c5.jpg'
p38
I1
sS'daytimex_1382389228.Tue.Oct.22_07_00_28.AEST.2013.narrabn.c5.jpg'
p39
I3
sS'daytimex_1164229228.Thu.Nov.23_07_00_28.AEST.2006.narrabn.c5.jpg'
p40
I3
sS'daytimex_1272315628.Tue.Apr.27_07_00_28.AEST.2010.narrabn.c5.jpg'
p41
I0
sS'daytimex_1200949228.Tue.Jan.22_07_00_28.AEST.2008.narrabn.c5.jpg'
p42
I2
sS'daytimex_1239138028.Wed.Apr.08_07_00_28.AEST.2009.narrabn.c5.jpg'
p43
I3
sS'daytimex_1188853227.Tue.Sep.04_07_00_27.AEST.2007.narrabn.c5.jpg'
p44
I2
sS'daytimex_1231016428.Sun.Jan.04_07_00_28.AEST.2009.narrabn.c5.jpg'
p45
I3
sS'daytimex_1119733228.Sun.Jun.26_07_00_28.AEST.2005.narrabn.c5.jpg'
p46
I3
sS'daytimex_1319749225.Fri.Oct.28_07_00_25.AEST.2011.narrabn.c5.jpg'
p47
I3
sS'daytimex_1269291628.Tue.Mar.23_07_00_28.AEST.2010.narrabn.c5.jpg'
p48
I1
sS'daytimex_1363381227.Sat.Mar.16_07_00_27.AEST.2013.narrabn.c5.jpg'
p49
I4
sS'daytimex_1218574827.Wed.Aug.13_07_00_27.AEST.2008.narrabn.c5.jpg'
p50
I0
sS'daytimex_1102626027.Fri.Dec.10_07_00_27.AEST.2004.narrabn.c5.jpg'
p51
I4
sS'daytimex_1352494827.Sat.Nov.10_07_00_27.AEST.2012.narrabn.c5.jpg'
p52
I3
sS'daytimex_1201035627.Wed.Jan.23_07_00_27.AEST.2008.narrabn.c5.jpg'
p53
I2
sS'daytimex_1367182827.Mon.Apr.29_07_00_27.AEST.2013.narrabn.c5.jpg'
p54
I0
sS'daytimex_1422322207.Tue.Jan.27_11_30_07.AEST.2015.narrabn.c5.jpg'
p55
I3
sS'daytimex_1362690026.Fri.Mar.08_07_00_26.AEST.2013.narrabn.c5.jpg'
p56
I0
sS'daytimex_1132347628.Sat.Nov.19_07_00_28.AEST.2005.narrabn.c5.jpg'
p57
I2
sS'daytimex_1414357207.Mon.Oct.27_07_00_07.AEST.2014.narrabn.c5.jpg'
p58
I2
sS'daytimex_1321045227.Sat.Nov.12_07_00_27.AEST.2011.narrabn.c5.jpg'
p59
I1
sS'daytimex_1338670828.Sun.Jun.03_07_00_28.AEST.2012.narrabn.c5.jpg'
p60
I1
sS'daytimex_1362344426.Mon.Mar.04_07_00_26.AEST.2013.narrabn.c5.jpg'
p61
I0
sS'daytimex_1165525227.Fri.Dec.08_07_00_27.AEST.2006.narrabn.c5.jpg'
p62
I0
sS'daytimex_1100553644.Tue.Nov.16_07_20_44.AEST.2004.narrabn.c5.jpg'
p63
I2
sS'daytimex_1253394027.Sun.Sep.20_07_00_27.AEST.2009.narrabn.c5.jpg'
p64
I1
sS'daytimex_1129842028.Fri.Oct.21_07_00_28.AEST.2005.narrabn.c5.jpg'
p65
I4
sS'daytimex_1166994028.Mon.Dec.25_07_00_28.AEST.2006.narrabn.c5.jpg'
p66
I2
sS'daytimex_1279141227.Thu.Jul.15_07_00_27.AEST.2010.narrabn.c5.jpg'
p67
I0
sS'daytimex_1421803807.Wed.Jan.21_11_30_07.AEST.2015.narrabn.c5.jpg'
p68
I1
sS'daytimex_1355259627.Wed.Dec.12_07_00_27.AEST.2012.narrabn.c5.jpg'
p69
I2
sS'daytimex_1102453228.Wed.Dec.08_07_00_28.AEST.2004.narrabn.c5.jpg'
p70
I4
sS'daytimex_1179522028.Sat.May.19_07_00_28.AEST.2007.narrabn.c5.jpg'
p71
I0
sS'daytimex_1304370028.Tue.May.03_07_00_28.AEST.2011.narrabn.c5.jpg'
p72
I4
sS'daytimex_1233003628.Tue.Jan.27_07_00_28.AEST.2009.narrabn.c5.jpg'
p73
I2
sS'daytimex_1130878828.Wed.Nov.02_07_00_28.AEST.2005.narrabn.c5.jpg'
p74
I3
sS'daytimex_1177880427.Mon.Apr.30_07_00_27.AEST.2007.narrabn.c5.jpg'
p75
I1
sS'daytimex_1383339628.Sat.Nov.02_07_00_28.AEST.2013.narrabn.c5.jpg'
p76
I2
sS'daytimex_1258837227.Sun.Nov.22_07_00_27.AEST.2009.narrabn.c5.jpg'
p77
I4
sS'daytimex_1243976428.Wed.Jun.03_07_00_28.AEST.2009.narrabn.c5.jpg'
p78
I0
sS'daytimex_1309554027.Sat.Jul.02_07_00_27.AEST.2011.narrabn.c5.jpg'
p79
I2
sS'daytimex_1276635628.Wed.Jun.16_07_00_28.AEST.2010.narrabn.c5.jpg'
p80
I2
sS'daytimex_1199739627.Tue.Jan.08_07_00_27.AEST.2008.narrabn.c5.jpg'
p81
I4
sS'daytimex_1364072427.Sun.Mar.24_07_00_27.AEST.2013.narrabn.c5.jpg'
p82
I4
sS'daytimex_1367701227.Sun.May.05_07_00_27.AEST.2013.narrabn.c5.jpg'
p83
I3
sS'daytimex_1210021227.Tue.May.06_07_00_27.AEST.2008.narrabn.c5.jpg'
p84
I2
sS'daytimex_1364677227.Sun.Mar.31_07_00_27.AEST.2013.narrabn.c5.jpg'
p85
I0
sS'daytimex_1366750827.Wed.Apr.24_07_00_27.AEST.2013.narrabn.c5.jpg'
p86
I3
sS'daytimex_1363986027.Sat.Mar.23_07_00_27.AEST.2013.narrabn.c5.jpg'
p87
I4
sS'daytimex_1096752044.Sun.Oct.03_07_20_44.AEST.2004.narrabn.c5.jpg'
p88
I4
sS'daytimex_1207429228.Sun.Apr.06_07_00_28.AEST.2008.narrabn.c5.jpg'
p89
I0
sS'daytimex_1180213228.Sun.May.27_07_00_28.AEST.2007.narrabn.c5.jpg'
p90
I0
sS'daytimex_1396386028.Wed.Apr.02_07_00_28.AEST.2014.narrabn.c5.jpg'
p91
I1
sS'daytimex_1166907628.Sun.Dec.24_07_00_28.AEST.2006.narrabn.c5.jpg'
p92
I3
sS'daytimex_1131915627.Mon.Nov.14_07_00_27.AEST.2005.narrabn.c5.jpg'
p93
I3
sS'daytimex_1160082028.Fri.Oct.06_07_00_28.AEST.2006.narrabn.c5.jpg'
p94
I1
sS'daytimex_1210280428.Fri.May.09_07_00_28.AEST.2008.narrabn.c5.jpg'
p95
I1
sS'daytimex_1244322027.Sun.Jun.07_07_00_27.AEST.2009.narrabn.c5.jpg'
p96
I0
sS'daytimex_1244581228.Wed.Jun.10_07_00_28.AEST.2009.narrabn.c5.jpg'
p97
I0
sS'daytimex_1413493206.Fri.Oct.17_07_00_06.AEST.2014.narrabn.c5.jpg'
p98
I3
sS'daytimex_1390424427.Thu.Jan.23_07_00_27.AEST.2014.narrabn.c5.jpg'
p99
I2
sS'daytimex_1136062828.Sun.Jan.01_07_00_28.AEST.2006.narrabn.c5.jpg'
p100
I2
sS'daytimex_1302123627.Thu.Apr.07_07_00_27.AEST.2011.narrabn.c5.jpg'
p101
I1
sS'daytimex_1115067628.Tue.May.03_07_00_28.AEST.2005.narrabn.c5.jpg'
p102
I0
sS'daytimex_1112130027.Wed.Mar.30_07_00_27.AEST.2005.narrabn.c5.jpg'
p103
I3
sS'daytimex_1311627628.Tue.Jul.26_07_00_28.AEST.2011.narrabn.c5.jpg'
p104
I3
sS'daytimex_1366837226.Thu.Apr.25_07_00_26.AEST.2013.narrabn.c5.jpg'
p105
I4
sS'daytimex_1192395627.Mon.Oct.15_07_00_27.AEST.2007.narrabn.c5.jpg'
p106
I1
sS'daytimex_1364590827.Sat.Mar.30_07_00_27.AEST.2013.narrabn.c5.jpg'
p107
I3
sS'daytimex_1280350828.Thu.Jul.29_07_00_28.AEST.2010.narrabn.c5.jpg'
p108
I1
sS'daytimex_1174683628.Sat.Mar.24_07_00_28.AEST.2007.narrabn.c5.jpg'
p109
I0
sS'daytimex_1327179628.Sun.Jan.22_07_00_28.AEST.2012.narrabn.c5.jpg'
p110
I3
sS'daytimex_1193432428.Sat.Oct.27_07_00_28.AEST.2007.narrabn.c5.jpg'
p111
I1
sS'daytimex_1389992427.Sat.Jan.18_07_00_27.AEST.2014.narrabn.c5.jpg'
p112
I3
sS'daytimex_1349384427.Fri.Oct.05_07_00_27.AEST.2012.narrabn.c5.jpg'
p113
I1
sS'daytimex_1105131627.Sat.Jan.08_07_00_27.AEST.2005.narrabn.c5.jpg'
p114
I3
sS'daytimex_1200430827.Wed.Jan.16_07_00_27.AEST.2008.narrabn.c5.jpg'
p115
I3
sS'daytimex_1144616428.Mon.Apr.10_07_00_28.AEST.2006.narrabn.c5.jpg'
p116
I4
sS'daytimex_1263070827.Sun.Jan.10_07_00_27.AEST.2010.narrabn.c5.jpg'
p117
I2
sS'daytimex_1114117228.Fri.Apr.22_07_00_28.AEST.2005.narrabn.c5.jpg'
p118
I1
sS'daytimex_1280091628.Mon.Jul.26_07_00_28.AEST.2010.narrabn.c5.jpg'
p119
I1
sS'daytimex_1407358807.Thu.Aug.07_07_00_07.AEST.2014.narrabn.c5.jpg'
p120
I1
sS'daytimex_1298926828.Tue.Mar.01_07_00_28.AEST.2011.narrabn.c5.jpg'
p121
I0
sS'daytimex_1141419628.Sat.Mar.04_07_00_28.AEST.2006.narrabn.c5.jpg'
p122
I4
sS'daytimex_1112562027.Mon.Apr.04_07_00_27.AEST.2005.narrabn.c5.jpg'
p123
I2
sS'daytimex_1396990828.Wed.Apr.09_07_00_28.AEST.2014.narrabn.c5.jpg'
p124
I1
sS'daytimex_1322686827.Thu.Dec.01_07_00_27.AEST.2011.narrabn.c5.jpg'
p125
I4
sS'daytimex_1299358827.Sun.Mar.06_07_00_27.AEST.2011.narrabn.c5.jpg'
p126
I0
sS'daytimex_1269118827.Sun.Mar.21_07_00_27.AEST.2010.narrabn.c5.jpg'
p127
I1
sS'daytimex_1115413227.Sat.May.07_07_00_27.AEST.2005.narrabn.c5.jpg'
p128
I0
sS'daytimex_1327093228.Sat.Jan.21_07_00_28.AEST.2012.narrabn.c5.jpg'
p129
I3
sS'daytimex_1113339627.Wed.Apr.13_07_00_27.AEST.2005.narrabn.c5.jpg'
p130
I2
sS'daytimex_1363467627.Sun.Mar.17_07_00_27.AEST.2013.narrabn.c5.jpg'
p131
I4
sS'daytimex_1311973227.Sat.Jul.30_07_00_27.AEST.2011.narrabn.c5.jpg'
p132
I3
sS'daytimex_1152738027.Thu.Jul.13_07_00_27.AEST.2006.narrabn.c5.jpg'
p133
I1
sS'daytimex_1199566827.Sun.Jan.06_07_00_27.AEST.2008.narrabn.c5.jpg'
p134
I4
sS'daytimex_1286485227.Fri.Oct.08_07_00_27.AEST.2010.narrabn.c5.jpg'
p135
I2
sS'daytimex_1232485228.Wed.Jan.21_07_00_28.AEST.2009.narrabn.c5.jpg'
p136
I2
sS'daytimex_1300482028.Sat.Mar.19_07_00_28.AEST.2011.narrabn.c5.jpg'
p137
I1
sS'daytimex_1106600428.Tue.Jan.25_07_00_28.AEST.2005.narrabn.c5.jpg'
p138
I2
sS'daytimex_1177102828.Sat.Apr.21_07_00_28.AEST.2007.narrabn.c5.jpg'
p139
I0
sS'daytimex_1278795628.Sun.Jul.11_07_00_28.AEST.2010.narrabn.c5.jpg'
p140
I1
sS'daytimex_1365454827.Tue.Apr.09_07_00_27.AEST.2013.narrabn.c5.jpg'
p141
I4
sS'daytimex_1124658027.Mon.Aug.22_07_00_27.AEST.2005.narrabn.c5.jpg'
p142
I1
sS'daytimex_1289422827.Thu.Nov.11_07_00_27.AEST.2010.narrabn.c5.jpg'
p143
I3
sS'daytimex_1100640044.Wed.Nov.17_07_20_44.AEST.2004.narrabn.c5.jpg'
p144
I3
sS'daytimex_1174424427.Wed.Mar.21_07_00_27.AEST.2007.narrabn.c5.jpg'
p145
I0
sS'daytimex_1348952427.Sun.Sep.30_07_00_27.AEST.2012.narrabn.c5.jpg'
p146
I2
sS'daytimex_1297630827.Mon.Feb.14_07_00_27.AEST.2011.narrabn.c5.jpg'
p147
I2
sS'daytimex_1170104428.Tue.Jan.30_07_00_28.AEST.2007.narrabn.c5.jpg'
p148
I2
sS'daytimex_1115586027.Mon.May.09_07_00_27.AEST.2005.narrabn.c5.jpg'
p149
I0
sS'daytimex_1123362028.Sun.Aug.07_07_00_28.AEST.2005.narrabn.c5.jpg'
p150
I3
sS'daytimex_1168981228.Wed.Jan.17_07_00_28.AEST.2007.narrabn.c5.jpg'
p151
I3
sS'daytimex_1271624427.Mon.Apr.19_07_00_27.AEST.2010.narrabn.c5.jpg'
p152
I0
sS'daytimex_1303506028.Sat.Apr.23_07_00_28.AEST.2011.narrabn.c5.jpg'
p153
I0
sS'daytimex_1362862827.Sun.Mar.10_07_00_27.AEST.2013.narrabn.c5.jpg'
p154
I4
sS'daytimex_1249592428.Fri.Aug.07_07_00_28.AEST.2009.narrabn.c5.jpg'
p155
I1
sS'daytimex_1324760428.Sun.Dec.25_07_00_28.AEST.2011.narrabn.c5.jpg'
p156
I1
sS'daytimex_1104699628.Mon.Jan.03_07_00_28.AEST.2005.narrabn.c5.jpg'
p157
I2
sS'daytimex_1266267628.Tue.Feb.16_07_00_28.AEST.2010.narrabn.c5.jpg'
p158
I2
sS'daytimex_1396818028.Mon.Apr.07_07_00_28.AEST.2014.narrabn.c5.jpg'
p159
I1
sS'daytimex_1178312428.Sat.May.05_07_00_28.AEST.2007.narrabn.c5.jpg'
p160
I0
sS'daytimex_1413752407.Mon.Oct.20_07_00_07.AEST.2014.narrabn.c5.jpg'
p161
I3
sS'daytimex_1238360427.Mon.Mar.30_07_00_27.AEST.2009.narrabn.c5.jpg'
p162
I4
sS'daytimex_1154120427.Sat.Jul.29_07_00_27.AEST.2006.narrabn.c5.jpg'
p163
I4
sS'daytimex_1391288428.Sun.Feb.02_07_00_28.AEST.2014.narrabn.c5.jpg'
p164
I2
sS'daytimex_1382302828.Mon.Oct.21_07_00_28.AEST.2013.narrabn.c5.jpg'
p165
I2
sS'daytimex_1181854827.Fri.Jun.15_07_00_27.AEST.2007.narrabn.c5.jpg'
p166
I3
sS'daytimex_1332795628.Tue.Mar.27_07_00_28.AEST.2012.narrabn.c5.jpg'
p167
I2
sS'daytimex_1263675627.Sun.Jan.17_07_00_27.AEST.2010.narrabn.c5.jpg'
p168
I2
sS'daytimex_1164488428.Sun.Nov.26_07_00_28.AEST.2006.narrabn.c5.jpg'
p169
I1
sS'daytimex_1363899627.Fri.Mar.22_07_00_27.AEST.2013.narrabn.c5.jpg'
p170
I4
sS'daytimex_1352667627.Mon.Nov.12_07_00_27.AEST.2012.narrabn.c5.jpg'
p171
I2
sS'daytimex_1129755628.Thu.Oct.20_07_00_28.AEST.2005.narrabn.c5.jpg'
p172
I4
sS'daytimex_1130446828.Fri.Oct.28_07_00_28.AEST.2005.narrabn.c5.jpg'
p173
I3
sS'daytimex_1295730028.Sun.Jan.23_07_00_28.AEST.2011.narrabn.c5.jpg'
p174
I1
sS'daytimex_1216414828.Sat.Jul.19_07_00_28.AEST.2008.narrabn.c5.jpg'
p175
I0
sS'daytimex_1365973226.Mon.Apr.15_07_00_26.AEST.2013.narrabn.c5.jpg'
p176
I4
sS'daytimex_1244235628.Sat.Jun.06_07_00_28.AEST.2009.narrabn.c5.jpg'
p177
I0
sS'daytimex_1106341227.Sat.Jan.22_07_00_27.AEST.2005.narrabn.c5.jpg'
p178
I3
sS'daytimex_1212181227.Sat.May.31_07_00_27.AEST.2008.narrabn.c5.jpg'
p179
I0
sS'daytimex_1303160427.Tue.Apr.19_07_00_27.AEST.2011.narrabn.c5.jpg'
p180
I1
sS'daytimex_1179608427.Sun.May.20_07_00_27.AEST.2007.narrabn.c5.jpg'
p181
I0
sS'daytimex_1355518826.Sat.Dec.15_07_00_26.AEST.2012.narrabn.c5.jpg'
p182
I3
sS'daytimex_1118437228.Sat.Jun.11_07_00_28.AEST.2005.narrabn.c5.jpg'
p183
I2
sS'daytimex_1191790827.Mon.Oct.08_07_00_27.AEST.2007.narrabn.c5.jpg'
p184
I1
sS'daytimex_1425850207.Mon.Mar.09_07_30_07.AEST.2015.narrabn.c5.jpg'
p185
I3
sS'daytimex_1218920428.Sun.Aug.17_07_00_28.AEST.2008.narrabn.c5.jpg'
p186
I1
sS'daytimex_1362776427.Sat.Mar.09_07_00_27.AEST.2013.narrabn.c5.jpg'
p187
I0
sS'daytimex_1210194028.Thu.May.08_07_00_28.AEST.2008.narrabn.c5.jpg'
p188
I1
sS'daytimex_1161205227.Thu.Oct.19_07_00_27.AEST.2006.narrabn.c5.jpg'
p189
I4
sS'daytimex_1358283627.Wed.Jan.16_07_00_27.AEST.2013.narrabn.c5.jpg'
p190
I1
sS'daytimex_1297890028.Thu.Feb.17_07_00_28.AEST.2011.narrabn.c5.jpg'
p191
I1
sS'daytimex_1336770028.Sat.May.12_07_00_28.AEST.2012.narrabn.c5.jpg'
p192
I2
sS'daytimex_1394658027.Thu.Mar.13_07_00_27.AEST.2014.narrabn.c5.jpg'
p193
I0
sS'daytimex_1200171628.Sun.Jan.13_07_00_28.AEST.2008.narrabn.c5.jpg'
p194
I4
sS'daytimex_1344286827.Tue.Aug.07_07_00_27.AEST.2012.narrabn.c5.jpg'
p195
I2
sS'daytimex_1297026028.Mon.Feb.07_07_00_28.AEST.2011.narrabn.c5.jpg'
p196
I2
sS'daytimex_1144702827.Tue.Apr.11_07_00_27.AEST.2006.narrabn.c5.jpg'
p197
I3
sS'daytimex_1148331627.Tue.May.23_07_00_27.AEST.2006.narrabn.c5.jpg'
p198
I1
sS'daytimex_1364418026.Thu.Mar.28_07_00_26.AEST.2013.narrabn.c5.jpg'
p199
I4
sS'daytimex_1320699628.Tue.Nov.08_07_00_28.AEST.2011.narrabn.c5.jpg'
p200
I1
sS'daytimex_1246309228.Tue.Jun.30_07_00_28.AEST.2009.narrabn.c5.jpg'
p201
I0
sS'daytimex_1110661227.Sun.Mar.13_07_00_27.AEST.2005.narrabn.c5.jpg'
p202
I1
sS'daytimex_1327352427.Tue.Jan.24_07_00_27.AEST.2012.narrabn.c5.jpg'
p203
I3
sS'daytimex_1178571627.Tue.May.08_07_00_27.AEST.2007.narrabn.c5.jpg'
p204
I0
sS'daytimex_1358024426.Sun.Jan.13_07_00_26.AEST.2013.narrabn.c5.jpg'
p205
I1
sS'daytimex_1178398828.Sun.May.06_07_00_28.AEST.2007.narrabn.c5.jpg'
p206
I0
sS'daytimex_1355432427.Fri.Dec.14_07_00_27.AEST.2012.narrabn.c5.jpg'
p207
I3
sS'daytimex_1290459628.Tue.Nov.23_07_00_28.AEST.2010.narrabn.c5.jpg'
p208
I2
sS'daytimex_1264194027.Sat.Jan.23_07_00_27.AEST.2010.narrabn.c5.jpg'
p209
I1
sS'daytimex_1379624427.Fri.Sep.20_07_00_27.AEST.2013.narrabn.c5.jpg'
p210
I4
sS'daytimex_1364331627.Wed.Mar.27_07_00_27.AEST.2013.narrabn.c5.jpg'
p211
I4
sS'daytimex_1202331628.Thu.Feb.07_07_00_28.AEST.2008.narrabn.c5.jpg'
p212
I4
sS'daytimex_1359579627.Thu.Jan.31_07_00_27.AEST.2013.narrabn.c5.jpg'
p213
I4
sS'daytimex_1211058028.Sun.May.18_07_00_28.AEST.2008.narrabn.c5.jpg'
p214
I3
sS'daytimex_1099171245.Sun.Oct.31_07_20_45.AEST.2004.narrabn.c5.jpg'
p215
I3
sS'daytimex_1305579627.Tue.May.17_07_00_27.AEST.2011.narrabn.c5.jpg'
p216
I1
sS'daytimex_1102539628.Thu.Dec.09_07_00_28.AEST.2004.narrabn.c5.jpg'
p217
I4
sS'daytimex_1285362027.Sat.Sep.25_07_00_27.AEST.2010.narrabn.c5.jpg'
p218
I1
sS'daytimex_1365714027.Fri.Apr.12_07_00_27.AEST.2013.narrabn.c5.jpg'
p219
I4
sS'daytimex_1192309228.Sun.Oct.14_07_00_28.AEST.2007.narrabn.c5.jpg'
p220
I1
sS'daytimex_1356382827.Tue.Dec.25_07_00_27.AEST.2012.narrabn.c5.jpg'
p221
I3
sS'daytimex_1192136427.Fri.Oct.12_07_00_27.AEST.2007.narrabn.c5.jpg'
p222
I1
sS'daytimex_1137186027.Sat.Jan.14_07_00_27.AEST.2006.narrabn.c5.jpg'
p223
I2
sS'daytimex_1206997228.Tue.Apr.01_07_00_28.AEST.2008.narrabn.c5.jpg'
p224
I0
sS'daytimex_1325019628.Wed.Dec.28_07_00_28.AEST.2011.narrabn.c5.jpg'
p225
I4
sS'daytimex_1176498028.Sat.Apr.14_07_00_28.AEST.2007.narrabn.c5.jpg'
p226
I1
sS'daytimex_1366491627.Sun.Apr.21_07_00_27.AEST.2013.narrabn.c5.jpg'
p227
I4
sS'daytimex_1334523627.Mon.Apr.16_07_00_27.AEST.2012.narrabn.c5.jpg'
p228
I2
sS'daytimex_1162674028.Sun.Nov.05_07_00_28.AEST.2006.narrabn.c5.jpg'
p229
I3
sS'daytimex_1176584427.Sun.Apr.15_07_00_27.AEST.2007.narrabn.c5.jpg'
p230
I1
sS'daytimex_1178226028.Fri.May.04_07_00_28.AEST.2007.narrabn.c5.jpg'
p231
I0
sS'daytimex_1110229228.Tue.Mar.08_07_00_28.AEST.2005.narrabn.c5.jpg'
p232
I2
sS'daytimex_1295557227.Fri.Jan.21_07_00_27.AEST.2011.narrabn.c5.jpg'
p233
I2
sS'daytimex_1297803627.Wed.Feb.16_07_00_27.AEST.2011.narrabn.c5.jpg'
p234
I1
sS'daytimex_1200258027.Mon.Jan.14_07_00_27.AEST.2008.narrabn.c5.jpg'
p235
I4
sS'daytimex_1285448428.Sun.Sep.26_07_00_28.AEST.2010.narrabn.c5.jpg'
p236
I1
sS'daytimex_1383166828.Thu.Oct.31_07_00_28.AEST.2013.narrabn.c5.jpg'
p237
I2
sS'daytimex_1280523628.Sat.Jul.31_07_00_28.AEST.2010.narrabn.c5.jpg'
p238
I0
sS'daytimex_1363122026.Wed.Mar.13_07_00_26.AEST.2013.narrabn.c5.jpg'
p239
I4
sS'daytimex_1282856427.Fri.Aug.27_07_00_27.AEST.2010.narrabn.c5.jpg'
p240
I2
sS'daytimex_1102885227.Mon.Dec.13_07_00_27.AEST.2004.narrabn.c5.jpg'
p241
I3
sS'daytimex_1277240427.Wed.Jun.23_07_00_27.AEST.2010.narrabn.c5.jpg'
p242
I2
sS'daytimex_1382648427.Fri.Oct.25_07_00_27.AEST.2013.narrabn.c5.jpg'
p243
I2
sS'daytimex_1369515627.Sun.May.26_07_00_27.AEST.2013.narrabn.c5.jpg'
p244
I2
sS'daytimex_1168808428.Mon.Jan.15_07_00_28.AEST.2007.narrabn.c5.jpg'
p245
I3
sS'daytimex_1395867628.Thu.Mar.27_07_00_28.AEST.2014.narrabn.c5.jpg'
p246
I1
sS'daytimex_1246654827.Sat.Jul.04_07_00_27.AEST.2009.narrabn.c5.jpg'
p247
I2
sS'daytimex_1278882027.Mon.Jul.12_07_00_27.AEST.2010.narrabn.c5.jpg'
p248
I1
sS'daytimex_1307048427.Fri.Jun.03_07_00_27.AEST.2011.narrabn.c5.jpg'
p249
I4
sS'daytimex_1137013242.Thu.Jan.12_07_00_42.AEST.2006.narrabn.c5.jpg'
p250
I3
sS'daytimex_1189458027.Tue.Sep.11_07_00_27.AEST.2007.narrabn.c5.jpg'
p251
I3
sS'daytimex_1295643628.Sat.Jan.22_07_00_28.AEST.2011.narrabn.c5.jpg'
p252
I2
sS'daytimex_1298494828.Thu.Feb.24_07_00_28.AEST.2011.narrabn.c5.jpg'
p253
I4
sS'daytimex_1125867628.Mon.Sep.05_07_00_28.AEST.2005.narrabn.c5.jpg'
p254
I3
sS'daytimex_1129928428.Sat.Oct.22_07_00_28.AEST.2005.narrabn.c5.jpg'
p255
I0
sS'daytimex_1305752427.Thu.May.19_07_00_27.AEST.2011.narrabn.c5.jpg'
p256
I1
sS'daytimex_1216587627.Mon.Jul.21_07_00_27.AEST.2008.narrabn.c5.jpg'
p257
I0
sS'daytimex_1203886827.Mon.Feb.25_07_00_27.AEST.2008.narrabn.c5.jpg'
p258
I3
sS'daytimex_1218315628.Sun.Aug.10_07_00_28.AEST.2008.narrabn.c5.jpg'
p259
I0
sS'daytimex_1199307628.Thu.Jan.03_07_00_28.AEST.2008.narrabn.c5.jpg'
p260
I4
sS'daytimex_1384462828.Fri.Nov.15_07_00_28.AEST.2013.narrabn.c5.jpg'
p261
I3
sS'daytimex_1363035626.Tue.Mar.12_07_00_26.AEST.2013.narrabn.c5.jpg'
p262
I4
sS'daytimex_1093641644.Sat.Aug.28_07_20_44.AEST.2004.narrabn.c5.jpg'
p263
I2
sS'daytimex_1364763627.Mon.Apr.01_07_00_27.AEST.2013.narrabn.c5.jpg'
p264
I4
sS'daytimex_1367269226.Tue.Apr.30_07_00_26.AEST.2013.narrabn.c5.jpg'
p265
I0
sS'daytimex_1122843628.Mon.Aug.01_07_00_28.AEST.2005.narrabn.c5.jpg'
p266
I0
sS'daytimex_1172955628.Sun.Mar.04_07_00_28.AEST.2007.narrabn.c5.jpg'
p267
I3
sS'daytimex_1104267628.Wed.Dec.29_07_00_28.AEST.2004.narrabn.c5.jpg'
p268
I2
sS'daytimex_1307134828.Sat.Jun.04_07_00_28.AEST.2011.narrabn.c5.jpg'
p269
I3
sS'daytimex_1199912427.Thu.Jan.10_07_00_27.AEST.2008.narrabn.c5.jpg'
p270
I4
sS'daytimex_1218747627.Fri.Aug.15_07_00_27.AEST.2008.narrabn.c5.jpg'
p271
I1
sS'daytimex_1193346027.Fri.Oct.26_07_00_27.AEST.2007.narrabn.c5.jpg'
p272
I1
sS'daytimex_1156366828.Thu.Aug.24_07_00_28.AEST.2006.narrabn.c5.jpg'
p273
I1
sS'daytimex_1210366827.Sat.May.10_07_00_27.AEST.2008.narrabn.c5.jpg'
p274
I1
sS'daytimex_1397077227.Thu.Apr.10_07_00_27.AEST.2014.narrabn.c5.jpg'
p275
I1
sS'daytimex_1146258028.Sat.Apr.29_07_00_28.AEST.2006.narrabn.c5.jpg'
p276
I4
sS'daytimex_1152565228.Tue.Jul.11_07_00_28.AEST.2006.narrabn.c5.jpg'
p277
I0
sS'daytimex_1390078828.Sun.Jan.19_07_00_28.AEST.2014.narrabn.c5.jpg'
p278
I4
sS'daytimex_1159822828.Tue.Oct.03_07_00_28.AEST.2006.narrabn.c5.jpg'
p279
I2
sS'daytimex_1199826027.Wed.Jan.09_07_00_27.AEST.2008.narrabn.c5.jpg'
p280
I4
sS'daytimex_1114203627.Sat.Apr.23_07_00_27.AEST.2005.narrabn.c5.jpg'
p281
I1
sS'daytimex_1391115627.Fri.Jan.31_07_00_27.AEST.2014.narrabn.c5.jpg'
p282
I0
sS'daytimex_1245358827.Fri.Jun.19_07_00_27.AEST.2009.narrabn.c5.jpg'
p283
I4
sS'daytimex_1313614827.Thu.Aug.18_07_00_27.AEST.2011.narrabn.c5.jpg'
p284
I2
sS'daytimex_1271278827.Thu.Apr.15_07_00_27.AEST.2010.narrabn.c5.jpg'
p285
I1
sS'daytimex_1113598827.Sat.Apr.16_07_00_27.AEST.2005.narrabn.c5.jpg'
p286
I2
sS'daytimex_1232658027.Fri.Jan.23_07_00_27.AEST.2009.narrabn.c5.jpg'
p287
I3
sS'daytimex_1272747627.Sun.May.02_07_00_27.AEST.2010.narrabn.c5.jpg'
p288
I0
sS'daytimex_1364158827.Mon.Mar.25_07_00_27.AEST.2013.narrabn.c5.jpg'
p289
I4
sS'daytimex_1223931628.Tue.Oct.14_07_00_28.AEST.2008.narrabn.c5.jpg'
p290
I3
sS'daytimex_1262379627.Sat.Jan.02_07_00_27.AEST.2010.narrabn.c5.jpg'
p291
I3
sS'daytimex_1198875628.Sat.Dec.29_07_00_28.AEST.2007.narrabn.c5.jpg'
p292
I2
sS'daytimex_1313182827.Sat.Aug.13_07_00_27.AEST.2011.narrabn.c5.jpg'
p293
I2
sS'daytimex_1167858028.Thu.Jan.04_07_00_28.AEST.2007.narrabn.c5.jpg'
p294
I0
sS'daytimex_1259442028.Sun.Nov.29_07_00_28.AEST.2009.narrabn.c5.jpg'
p295
I3
sS'daytimex_1118523628.Sun.Jun.12_07_00_28.AEST.2005.narrabn.c5.jpg'
p296
I2
sS'daytimex_1125781227.Sun.Sep.04_07_00_27.AEST.2005.narrabn.c5.jpg'
p297
I3
sS'daytimex_1386536428.Mon.Dec.09_07_00_28.AEST.2013.narrabn.c5.jpg'
p298
I2
sS'daytimex_1170968427.Fri.Feb.09_07_00_27.AEST.2007.narrabn.c5.jpg'
p299
I2
sS'daytimex_1121893228.Thu.Jul.21_07_00_28.AEST.2005.narrabn.c5.jpg'
p300
I1
sS'daytimex_1363208427.Thu.Mar.14_07_00_27.AEST.2013.narrabn.c5.jpg'
p301
I4
sS'daytimex_1194901228.Tue.Nov.13_07_00_28.AEST.2007.narrabn.c5.jpg'
p302
I2
sS'daytimex_1362603627.Thu.Mar.07_07_00_27.AEST.2013.narrabn.c5.jpg'
p303
I0
sS'daytimex_1106514027.Mon.Jan.24_07_00_27.AEST.2005.narrabn.c5.jpg'
p304
I3
sS'daytimex_1364245227.Tue.Mar.26_07_00_27.AEST.2013.narrabn.c5.jpg'
p305
I3
sS'daytimex_1285621228.Tue.Sep.28_07_00_28.AEST.2010.narrabn.c5.jpg'
p306
I0
sS'daytimex_1331499627.Mon.Mar.12_07_00_27.AEST.2012.narrabn.c5.jpg'
p307
I2
sS'daytimex_1365282027.Sun.Apr.07_07_00_27.AEST.2013.narrabn.c5.jpg'
p308
I0
sS'daytimex_1366664426.Tue.Apr.23_07_00_26.AEST.2013.narrabn.c5.jpg'
p309
I3
sS'daytimex_1348779627.Fri.Sep.28_07_00_27.AEST.2012.narrabn.c5.jpg'
p310
I2
sS'daytimex_1296421228.Mon.Jan.31_07_00_28.AEST.2011.narrabn.c5.jpg'
p311
I1
sS'daytimex_1277758827.Tue.Jun.29_07_00_27.AEST.2010.narrabn.c5.jpg'
p312
I2
sS'daytimex_1110315628.Wed.Mar.09_07_00_28.AEST.2005.narrabn.c5.jpg'
p313
I1
sS'daytimex_1367096427.Sun.Apr.28_07_00_27.AEST.2013.narrabn.c5.jpg'
p314
I0
sS'daytimex_1252357227.Tue.Sep.08_07_00_27.AEST.2009.narrabn.c5.jpg'
p315
I4
sS'daytimex_1183410028.Tue.Jul.03_07_00_28.AEST.2007.narrabn.c5.jpg'
p316
I0
sS'daytimex_1165611628.Sat.Dec.09_07_00_28.AEST.2006.narrabn.c5.jpg'
p317
I1
sS'daytimex_1149195628.Fri.Jun.02_07_00_28.AEST.2006.narrabn.c5.jpg'
p318
I0
sS'daytimex_1189890028.Sun.Sep.16_07_00_28.AEST.2007.narrabn.c5.jpg'
p319
I3
sS'daytimex_1308430828.Sun.Jun.19_07_00_28.AEST.2011.narrabn.c5.jpg'
p320
I2
sS'daytimex_1230152428.Thu.Dec.25_07_00_28.AEST.2008.narrabn.c5.jpg'
p321
I3
sS'daytimex_1272056427.Sat.Apr.24_07_00_27.AEST.2010.narrabn.c5.jpg'
p322
I0
sS'daytimex_1103058027.Wed.Dec.15_07_00_27.AEST.2004.narrabn.c5.jpg'
p323
I3
sS'daytimex_1243371628.Wed.May.27_07_00_28.AEST.2009.narrabn.c5.jpg'
p324
I0
sS'daytimex_1156798828.Tue.Aug.29_07_00_28.AEST.2006.narrabn.c5.jpg'
p325
I1
sS'daytimex_1304715627.Sat.May.07_07_00_27.AEST.2011.narrabn.c5.jpg'
p326
I2
sS'daytimex_1105304428.Mon.Jan.10_07_00_28.AEST.2005.narrabn.c5.jpg'
p327
I2
sS'daytimex_1132088427.Wed.Nov.16_07_00_27.AEST.2005.narrabn.c5.jpg'
p328
I2
sS'daytimex_1199653228.Mon.Jan.07_07_00_28.AEST.2008.narrabn.c5.jpg'
p329
I4
sS'daytimex_1321822828.Mon.Nov.21_07_00_28.AEST.2011.narrabn.c5.jpg'
p330
I0
sS'daytimex_1368478827.Tue.May.14_07_00_27.AEST.2013.narrabn.c5.jpg'
p331
I2
sS'daytimex_1252184428.Sun.Sep.06_07_00_28.AEST.2009.narrabn.c5.jpg'
p332
I1
sS'daytimex_1132261228.Fri.Nov.18_07_00_28.AEST.2005.narrabn.c5.jpg'
p333
I3
sS'daytimex_1114722027.Fri.Apr.29_07_00_27.AEST.2005.narrabn.c5.jpg'
p334
I0
sS'daytimex_1244408427.Mon.Jun.08_07_00_27.AEST.2009.narrabn.c5.jpg'
p335
I0
sS'daytimex_1151701228.Sat.Jul.01_07_00_28.AEST.2006.narrabn.c5.jpg'
p336
I0
sS'daytimex_1141246827.Thu.Mar.02_07_00_27.AEST.2006.narrabn.c5.jpg'
p337
I1
sS'daytimex_1237323627.Wed.Mar.18_07_00_27.AEST.2009.narrabn.c5.jpg'
p338
I2
sS'daytimex_1394830828.Sat.Mar.15_07_00_28.AEST.2014.narrabn.c5.jpg'
p339
I1
sS'daytimex_1113944427.Wed.Apr.20_07_00_27.AEST.2005.narrabn.c5.jpg'
p340
I1
sS'daytimex_1376859628.Mon.Aug.19_07_00_28.AEST.2013.narrabn.c5.jpg'
p341
I2
sS'daytimex_1322600427.Wed.Nov.30_07_00_27.AEST.2011.narrabn.c5.jpg'
p342
I4
sS'daytimex_1103403628.Sun.Dec.19_07_00_28.AEST.2004.narrabn.c5.jpg'
p343
I3
sS'daytimex_1152478828.Mon.Jul.10_07_00_28.AEST.2006.narrabn.c5.jpg'
p344
I0
sS'daytimex_1375736428.Tue.Aug.06_07_00_28.AEST.2013.narrabn.c5.jpg'
p345
I2
sS'daytimex_1346533227.Sun.Sep.02_07_00_27.AEST.2012.narrabn.c5.jpg'
p346
I2
sS'daytimex_1159909227.Wed.Oct.04_07_00_27.AEST.2006.narrabn.c5.jpg'
p347
I2
sS'daytimex_1426642207.Wed.Mar.18_11_30_07.AEST.2015.narrabn.c5.jpg'
p348
I1
sS'daytimex_1269550828.Fri.Mar.26_07_00_28.AEST.2010.narrabn.c5.jpg'
p349
I1
sS'daytimex_1177966828.Tue.May.01_07_00_28.AEST.2007.narrabn.c5.jpg'
p350
I0
sS'daytimex_1098825644.Wed.Oct.27_07_20_44.AEST.2004.narrabn.c5.jpg'
p351
I4
sS'daytimex_1301864427.Mon.Apr.04_07_00_27.AEST.2011.narrabn.c5.jpg'
p352
I4
sS'daytimex_1215032428.Thu.Jul.03_07_00_28.AEST.2008.narrabn.c5.jpg'
p353
I1
sS'daytimex_1269032427.Sat.Mar.20_07_00_27.AEST.2010.narrabn.c5.jpg'
p354
I0
sS'daytimex_1110488428.Fri.Mar.11_07_00_28.AEST.2005.narrabn.c5.jpg'
p355
I1
sS'daytimex_1091568045.Wed.Aug.04_07_20_45.AEST.2004.narrabn.c5.jpg'
p356
I1
sS'daytimex_1231707628.Mon.Jan.12_07_00_28.AEST.2009.narrabn.c5.jpg'
p357
I2
sS'daytimex_1191877228.Tue.Oct.09_07_00_28.AEST.2007.narrabn.c5.jpg'
p358
I1
sS'daytimex_1169413228.Mon.Jan.22_07_00_28.AEST.2007.narrabn.c5.jpg'
p359
I4
sS'daytimex_1179262828.Wed.May.16_07_00_28.AEST.2007.narrabn.c5.jpg'
p360
I0
sS'daytimex_1392930028.Fri.Feb.21_07_00_28.AEST.2014.narrabn.c5.jpg'
p361
I2
sS'daytimex_1095196845.Wed.Sep.15_07_20_45.AEST.2004.narrabn.c5.jpg'
p362
I1
sS'daytimex_1150318827.Thu.Jun.15_07_00_27.AEST.2006.narrabn.c5.jpg'
p363
I2
sS'daytimex_1393707627.Sun.Mar.02_07_00_27.AEST.2014.narrabn.c5.jpg'
p364
I1
sS'daytimex_1168722027.Sun.Jan.14_07_00_27.AEST.2007.narrabn.c5.jpg'
p365
I3
sS'daytimex_1296248427.Sat.Jan.29_07_00_27.AEST.2011.narrabn.c5.jpg'
p366
I2
sS'daytimex_1194469228.Thu.Nov.08_07_00_28.AEST.2007.narrabn.c5.jpg'
p367
I3
sS'daytimex_1104526828.Sat.Jan.01_07_00_28.AEST.2005.narrabn.c5.jpg'
p368
I2
sS'daytimex_1406322007.Sat.Jul.26_07_00_07.AEST.2014.narrabn.c5.jpg'
p369
I1
sS'daytimex_1244840427.Sat.Jun.13_07_00_27.AEST.2009.narrabn.c5.jpg'
p370
I0
sS'daytimex_1252270827.Mon.Sep.07_07_00_27.AEST.2009.narrabn.c5.jpg'
p371
I4
sS'daytimex_1377205228.Fri.Aug.23_07_00_28.AEST.2013.narrabn.c5.jpg'
p372
I0
sS'daytimex_1349730027.Tue.Oct.09_07_00_27.AEST.2012.narrabn.c5.jpg'
p373
I3
sS'daytimex_1098566444.Sun.Oct.24_07_20_44.AEST.2004.narrabn.c5.jpg'
p374
I4
sS'daytimex_1232744428.Sat.Jan.24_07_00_28.AEST.2009.narrabn.c5.jpg'
p375
I3
sS'daytimex_1160168427.Sat.Oct.07_07_00_27.AEST.2006.narrabn.c5.jpg'
p376
I1
sS'daytimex_1298062827.Sat.Feb.19_07_00_27.AEST.2011.narrabn.c5.jpg'
p377
I1
sS'daytimex_1158613228.Tue.Sep.19_07_00_28.AEST.2006.narrabn.c5.jpg'
p378
I2
sS'daytimex_1337288428.Fri.May.18_07_00_28.AEST.2012.narrabn.c5.jpg'
p379
I3
sS'daytimex_1133470828.Fri.Dec.02_07_00_28.AEST.2005.narrabn.c5.jpg'
p380
I3
sS'daytimex_1206046827.Fri.Mar.21_07_00_27.AEST.2008.narrabn.c5.jpg'
p381
I1
sS'daytimex_1095542444.Sun.Sep.19_07_20_44.AEST.2004.narrabn.c5.jpg'
p382
I1
sS'daytimex_1363294826.Fri.Mar.15_07_00_26.AEST.2013.narrabn.c5.jpg'
p383
I4
sS'daytimex_1174338027.Tue.Mar.20_07_00_27.AEST.2007.narrabn.c5.jpg'
p384
I0
sS'daytimex_1180904428.Mon.Jun.04_07_00_28.AEST.2007.narrabn.c5.jpg'
p385
I0
sS'daytimex_1220043628.Sat.Aug.30_07_00_28.AEST.2008.narrabn.c5.jpg'
p386
I1
sS'daytimex_1328389227.Sun.Feb.05_07_00_27.AEST.2012.narrabn.c5.jpg'
p387
I2
sS'daytimex_1390165228.Mon.Jan.20_07_00_28.AEST.2014.narrabn.c5.jpg'
p388
I4
sS'daytimex_1366059626.Tue.Apr.16_07_00_26.AEST.2013.narrabn.c5.jpg'
p389
I4
sS'daytimex_1238014828.Thu.Mar.26_07_00_28.AEST.2009.narrabn.c5.jpg'
p390
I4
sS'daytimex_1200344428.Tue.Jan.15_07_00_28.AEST.2008.narrabn.c5.jpg'
p391
I3
sS'daytimex_1415221206.Thu.Nov.06_07_00_06.AEST.2014.narrabn.c5.jpg'
p392
I4
sS'daytimex_1102712427.Sat.Dec.11_07_00_27.AEST.2004.narrabn.c5.jpg'
p393
I4
sS'daytimex_1098739244.Tue.Oct.26_07_20_44.AEST.2004.narrabn.c5.jpg'
p394
I4
sS'daytimex_1098652844.Mon.Oct.25_07_20_44.AEST.2004.narrabn.c5.jpg'
p395
I4
sS'daytimex_1356123626.Sat.Dec.22_07_00_26.AEST.2012.narrabn.c5.jpg'
p396
I2
sS'daytimex_1289336428.Wed.Nov.10_07_00_28.AEST.2010.narrabn.c5.jpg'
p397
I3
sS'daytimex_1184706028.Wed.Jul.18_07_00_28.AEST.2007.narrabn.c5.jpg'
p398
I2
sS'daytimex_1209589228.Thu.May.01_07_00_28.AEST.2008.narrabn.c5.jpg'
p399
I2
sS'daytimex_1230757227.Thu.Jan.01_07_00_27.AEST.2009.narrabn.c5.jpg'
p400
I2
sS'daytimex_1110920428.Wed.Mar.16_07_00_28.AEST.2005.narrabn.c5.jpg'
p401
I4
sS'daytimex_1092432044.Sat.Aug.14_07_20_44.AEST.2004.narrabn.c5.jpg'
p402
I0
sS'daytimex_1243198828.Mon.May.25_07_00_28.AEST.2009.narrabn.c5.jpg'
p403
I1
sS'daytimex_1244667628.Thu.Jun.11_07_00_28.AEST.2009.narrabn.c5.jpg'
p404
I0
sS'daytimex_1096492844.Thu.Sep.30_07_20_44.AEST.2004.narrabn.c5.jpg'
p405
I1
sS'daytimex_1224622828.Wed.Oct.22_07_00_28.AEST.2008.narrabn.c5.jpg'
p406
I2
sS'daytimex_1205960427.Thu.Mar.20_07_00_27.AEST.2008.narrabn.c5.jpg'
p407
I1
sS'daytimex_1124744428.Tue.Aug.23_07_00_28.AEST.2005.narrabn.c5.jpg'
p408
I1
sS'daytimex_1244494828.Tue.Jun.09_07_00_28.AEST.2009.narrabn.c5.jpg'
p409
I0
sS'daytimex_1176066028.Mon.Apr.09_07_00_28.AEST.2007.narrabn.c5.jpg'
p410
I1
sS'daytimex_1344805229.Mon.Aug.13_07_00_29.AEST.2012.narrabn.c5.jpg'
p411
I3
sS'daytimex_1324674027.Sat.Dec.24_07_00_27.AEST.2011.narrabn.c5.jpg'
p412
I1
s.