(lp0
S'daytimex_1365282027.Sun.Apr.07_07_00_27.AEST.2013.narrabn.c5.jpg'
p1
aS'daytimex_1362690026.Fri.Mar.08_07_00_26.AEST.2013.narrabn.c5.jpg'
p2
aS'daytimex_1391115627.Fri.Jan.31_07_00_27.AEST.2014.narrabn.c5.jpg'
p3
aS'daytimex_1244581228.Wed.Jun.10_07_00_28.AEST.2009.narrabn.c5.jpg'
p4
aS'daytimex_1367096427.Sun.Apr.28_07_00_27.AEST.2013.narrabn.c5.jpg'
p5
aS'daytimex_1272747627.Sun.May.02_07_00_27.AEST.2010.narrabn.c5.jpg'
p6
aS'daytimex_1151701228.Sat.Jul.01_07_00_28.AEST.2006.narrabn.c5.jpg'
p7
aS'daytimex_1244667628.Thu.Jun.11_07_00_28.AEST.2009.narrabn.c5.jpg'
p8
aS'daytimex_1243976428.Wed.Jun.03_07_00_28.AEST.2009.narrabn.c5.jpg'
p9
aS'daytimex_1207429228.Sun.Apr.06_07_00_28.AEST.2008.narrabn.c5.jpg'
p10
aS'daytimex_1244408427.Mon.Jun.08_07_00_27.AEST.2009.narrabn.c5.jpg'
p11
aS'daytimex_1178226028.Fri.May.04_07_00_28.AEST.2007.narrabn.c5.jpg'
p12
aS'daytimex_1177102828.Sat.Apr.21_07_00_28.AEST.2007.narrabn.c5.jpg'
p13
aS'daytimex_1174424427.Wed.Mar.21_07_00_27.AEST.2007.narrabn.c5.jpg'
p14
aS'daytimex_1298926828.Tue.Mar.01_07_00_28.AEST.2011.narrabn.c5.jpg'
p15
aS'daytimex_1396386028.Wed.Apr.02_07_00_28.AEST.2014.narrabn.c5.jpg'
p16
aS'daytimex_1252184428.Sun.Sep.06_07_00_28.AEST.2009.narrabn.c5.jpg'
p17
aS'daytimex_1165611628.Sat.Dec.09_07_00_28.AEST.2006.narrabn.c5.jpg'
p18
aS'daytimex_1193346027.Fri.Oct.26_07_00_27.AEST.2007.narrabn.c5.jpg'
p19
aS'daytimex_1278795628.Sun.Jul.11_07_00_28.AEST.2010.narrabn.c5.jpg'
p20
aS'daytimex_1249592428.Fri.Aug.07_07_00_28.AEST.2009.narrabn.c5.jpg'
p21
aS'daytimex_1160168427.Sat.Oct.07_07_00_27.AEST.2006.narrabn.c5.jpg'
p22
aS'daytimex_1396818028.Mon.Apr.07_07_00_28.AEST.2014.narrabn.c5.jpg'
p23
aS'daytimex_1395867628.Thu.Mar.27_07_00_28.AEST.2014.narrabn.c5.jpg'
p24
aS'daytimex_1124744428.Tue.Aug.23_07_00_28.AEST.2005.narrabn.c5.jpg'
p25
aS'daytimex_1297890028.Thu.Feb.17_07_00_28.AEST.2011.narrabn.c5.jpg'
p26
aS'daytimex_1298062827.Sat.Feb.19_07_00_27.AEST.2011.narrabn.c5.jpg'
p27
aS'daytimex_1303160427.Tue.Apr.19_07_00_27.AEST.2011.narrabn.c5.jpg'
p28
aS'daytimex_1338670828.Sun.Jun.03_07_00_28.AEST.2012.narrabn.c5.jpg'
p29
aS'daytimex_1305579627.Tue.May.17_07_00_27.AEST.2011.narrabn.c5.jpg'
p30
aS'daytimex_1297630827.Mon.Feb.14_07_00_27.AEST.2011.narrabn.c5.jpg'
p31
aS'daytimex_1282856427.Fri.Aug.27_07_00_27.AEST.2010.narrabn.c5.jpg'
p32
aS'daytimex_1113598827.Sat.Apr.16_07_00_27.AEST.2005.narrabn.c5.jpg'
p33
aS'daytimex_1110229228.Tue.Mar.08_07_00_28.AEST.2005.narrabn.c5.jpg'
p34
aS'daytimex_1386536428.Mon.Dec.09_07_00_28.AEST.2013.narrabn.c5.jpg'
p35
aS'daytimex_1104526828.Sat.Jan.01_07_00_28.AEST.2005.narrabn.c5.jpg'
p36
aS'daytimex_1352667627.Mon.Nov.12_07_00_27.AEST.2012.narrabn.c5.jpg'
p37
aS'daytimex_1200949228.Tue.Jan.22_07_00_28.AEST.2008.narrabn.c5.jpg'
p38
aS'daytimex_1219179627.Wed.Aug.20_07_00_27.AEST.2008.narrabn.c5.jpg'
p39
aS'daytimex_1295557227.Fri.Jan.21_07_00_27.AEST.2011.narrabn.c5.jpg'
p40
aS'daytimex_1276635628.Wed.Jun.16_07_00_28.AEST.2010.narrabn.c5.jpg'
p41
aS'daytimex_1112562027.Mon.Apr.04_07_00_27.AEST.2005.narrabn.c5.jpg'
p42
aS'daytimex_1376859628.Mon.Aug.19_07_00_28.AEST.2013.narrabn.c5.jpg'
p43
aS'daytimex_1295643628.Sat.Jan.22_07_00_28.AEST.2011.narrabn.c5.jpg'
p44
aS'daytimex_1184706028.Wed.Jul.18_07_00_28.AEST.2007.narrabn.c5.jpg'
p45
aS'daytimex_1366750827.Wed.Apr.24_07_00_27.AEST.2013.narrabn.c5.jpg'
p46
aS'daytimex_1327093228.Sat.Jan.21_07_00_28.AEST.2012.narrabn.c5.jpg'
p47
aS'daytimex_1382389228.Tue.Oct.22_07_00_28.AEST.2013.narrabn.c5.jpg'
p48
aS'daytimex_1189890028.Sun.Sep.16_07_00_28.AEST.2007.narrabn.c5.jpg'
p49
aS'daytimex_1364590827.Sat.Mar.30_07_00_27.AEST.2013.narrabn.c5.jpg'
p50
aS'daytimex_1172955628.Sun.Mar.04_07_00_28.AEST.2007.narrabn.c5.jpg'
p51
aS'daytimex_1355432427.Fri.Dec.14_07_00_27.AEST.2012.narrabn.c5.jpg'
p52
aS'daytimex_1230152428.Thu.Dec.25_07_00_28.AEST.2008.narrabn.c5.jpg'
p53
aS'daytimex_1200430827.Wed.Jan.16_07_00_27.AEST.2008.narrabn.c5.jpg'
p54
aS'daytimex_1168808428.Mon.Jan.15_07_00_28.AEST.2007.narrabn.c5.jpg'
p55
aS'daytimex_1231016428.Sun.Jan.04_07_00_28.AEST.2009.narrabn.c5.jpg'
p56
aS'daytimex_1107032427.Sun.Jan.30_07_00_27.AEST.2005.narrabn.c5.jpg'
p57
aS'daytimex_1203886827.Mon.Feb.25_07_00_27.AEST.2008.narrabn.c5.jpg'
p58
aS'daytimex_1099171245.Sun.Oct.31_07_20_45.AEST.2004.narrabn.c5.jpg'
p59
aS'daytimex_1133470828.Fri.Dec.02_07_00_28.AEST.2005.narrabn.c5.jpg'
p60
aS'daytimex_1141506027.Sun.Mar.05_07_00_27.AEST.2006.narrabn.c5.jpg'
p61
aS'daytimex_1390078828.Sun.Jan.19_07_00_28.AEST.2014.narrabn.c5.jpg'
p62
aS'daytimex_1363986027.Sat.Mar.23_07_00_27.AEST.2013.narrabn.c5.jpg'
p63
aS'daytimex_1238014828.Thu.Mar.26_07_00_28.AEST.2009.narrabn.c5.jpg'
p64
aS'daytimex_1098566444.Sun.Oct.24_07_20_44.AEST.2004.narrabn.c5.jpg'
p65
aS'daytimex_1252357227.Tue.Sep.08_07_00_27.AEST.2009.narrabn.c5.jpg'
p66
aS'daytimex_1364763627.Mon.Apr.01_07_00_27.AEST.2013.narrabn.c5.jpg'
p67
aS'daytimex_1366491627.Sun.Apr.21_07_00_27.AEST.2013.narrabn.c5.jpg'
p68
aS'daytimex_1096752044.Sun.Oct.03_07_20_44.AEST.2004.narrabn.c5.jpg'
p69
aS'daytimex_1363122026.Wed.Mar.13_07_00_26.AEST.2013.narrabn.c5.jpg'
p70
aS'daytimex_1379624427.Fri.Sep.20_07_00_27.AEST.2013.narrabn.c5.jpg'
p71
aS'daytimex_1110920428.Wed.Mar.16_07_00_28.AEST.2005.narrabn.c5.jpg'
p72
aS'daytimex_1301864427.Mon.Apr.04_07_00_27.AEST.2011.narrabn.c5.jpg'
p73
aS'daytimex_1146258028.Sat.Apr.29_07_00_28.AEST.2006.narrabn.c5.jpg'
p74
aS'daytimex_1363208427.Thu.Mar.14_07_00_27.AEST.2013.narrabn.c5.jpg'
p75
aS'daytimex_1365282027.Sun.Apr.07_07_00_27.AEST.2013.narrabn.c5.hflip.jpg'
p76
aS'daytimex_1362690026.Fri.Mar.08_07_00_26.AEST.2013.narrabn.c5.hflip.jpg'
p77
aS'daytimex_1391115627.Fri.Jan.31_07_00_27.AEST.2014.narrabn.c5.hflip.jpg'
p78
aS'daytimex_1244581228.Wed.Jun.10_07_00_28.AEST.2009.narrabn.c5.hflip.jpg'
p79
aS'daytimex_1367096427.Sun.Apr.28_07_00_27.AEST.2013.narrabn.c5.hflip.jpg'
p80
aS'daytimex_1272747627.Sun.May.02_07_00_27.AEST.2010.narrabn.c5.hflip.jpg'
p81
aS'daytimex_1151701228.Sat.Jul.01_07_00_28.AEST.2006.narrabn.c5.hflip.jpg'
p82
aS'daytimex_1244667628.Thu.Jun.11_07_00_28.AEST.2009.narrabn.c5.hflip.jpg'
p83
aS'daytimex_1243976428.Wed.Jun.03_07_00_28.AEST.2009.narrabn.c5.hflip.jpg'
p84
aS'daytimex_1207429228.Sun.Apr.06_07_00_28.AEST.2008.narrabn.c5.hflip.jpg'
p85
aS'daytimex_1244408427.Mon.Jun.08_07_00_27.AEST.2009.narrabn.c5.hflip.jpg'
p86
aS'daytimex_1178226028.Fri.May.04_07_00_28.AEST.2007.narrabn.c5.hflip.jpg'
p87
aS'daytimex_1177102828.Sat.Apr.21_07_00_28.AEST.2007.narrabn.c5.hflip.jpg'
p88
aS'daytimex_1174424427.Wed.Mar.21_07_00_27.AEST.2007.narrabn.c5.hflip.jpg'
p89
aS'daytimex_1298926828.Tue.Mar.01_07_00_28.AEST.2011.narrabn.c5.hflip.jpg'
p90
aS'daytimex_1396386028.Wed.Apr.02_07_00_28.AEST.2014.narrabn.c5.hflip.jpg'
p91
aS'daytimex_1252184428.Sun.Sep.06_07_00_28.AEST.2009.narrabn.c5.hflip.jpg'
p92
aS'daytimex_1165611628.Sat.Dec.09_07_00_28.AEST.2006.narrabn.c5.hflip.jpg'
p93
aS'daytimex_1193346027.Fri.Oct.26_07_00_27.AEST.2007.narrabn.c5.hflip.jpg'
p94
aS'daytimex_1278795628.Sun.Jul.11_07_00_28.AEST.2010.narrabn.c5.hflip.jpg'
p95
aS'daytimex_1249592428.Fri.Aug.07_07_00_28.AEST.2009.narrabn.c5.hflip.jpg'
p96
aS'daytimex_1160168427.Sat.Oct.07_07_00_27.AEST.2006.narrabn.c5.hflip.jpg'
p97
aS'daytimex_1396818028.Mon.Apr.07_07_00_28.AEST.2014.narrabn.c5.hflip.jpg'
p98
aS'daytimex_1395867628.Thu.Mar.27_07_00_28.AEST.2014.narrabn.c5.hflip.jpg'
p99
aS'daytimex_1124744428.Tue.Aug.23_07_00_28.AEST.2005.narrabn.c5.hflip.jpg'
p100
aS'daytimex_1297890028.Thu.Feb.17_07_00_28.AEST.2011.narrabn.c5.hflip.jpg'
p101
aS'daytimex_1298062827.Sat.Feb.19_07_00_27.AEST.2011.narrabn.c5.hflip.jpg'
p102
aS'daytimex_1303160427.Tue.Apr.19_07_00_27.AEST.2011.narrabn.c5.hflip.jpg'
p103
aS'daytimex_1338670828.Sun.Jun.03_07_00_28.AEST.2012.narrabn.c5.hflip.jpg'
p104
aS'daytimex_1305579627.Tue.May.17_07_00_27.AEST.2011.narrabn.c5.hflip.jpg'
p105
aS'daytimex_1297630827.Mon.Feb.14_07_00_27.AEST.2011.narrabn.c5.hflip.jpg'
p106
aS'daytimex_1282856427.Fri.Aug.27_07_00_27.AEST.2010.narrabn.c5.hflip.jpg'
p107
aS'daytimex_1113598827.Sat.Apr.16_07_00_27.AEST.2005.narrabn.c5.hflip.jpg'
p108
aS'daytimex_1110229228.Tue.Mar.08_07_00_28.AEST.2005.narrabn.c5.hflip.jpg'
p109
aS'daytimex_1386536428.Mon.Dec.09_07_00_28.AEST.2013.narrabn.c5.hflip.jpg'
p110
aS'daytimex_1104526828.Sat.Jan.01_07_00_28.AEST.2005.narrabn.c5.hflip.jpg'
p111
aS'daytimex_1352667627.Mon.Nov.12_07_00_27.AEST.2012.narrabn.c5.hflip.jpg'
p112
aS'daytimex_1200949228.Tue.Jan.22_07_00_28.AEST.2008.narrabn.c5.hflip.jpg'
p113
aS'daytimex_1219179627.Wed.Aug.20_07_00_27.AEST.2008.narrabn.c5.hflip.jpg'
p114
aS'daytimex_1295557227.Fri.Jan.21_07_00_27.AEST.2011.narrabn.c5.hflip.jpg'
p115
aS'daytimex_1276635628.Wed.Jun.16_07_00_28.AEST.2010.narrabn.c5.hflip.jpg'
p116
aS'daytimex_1112562027.Mon.Apr.04_07_00_27.AEST.2005.narrabn.c5.hflip.jpg'
p117
aS'daytimex_1376859628.Mon.Aug.19_07_00_28.AEST.2013.narrabn.c5.hflip.jpg'
p118
aS'daytimex_1295643628.Sat.Jan.22_07_00_28.AEST.2011.narrabn.c5.hflip.jpg'
p119
aS'daytimex_1184706028.Wed.Jul.18_07_00_28.AEST.2007.narrabn.c5.hflip.jpg'
p120
aS'daytimex_1366750827.Wed.Apr.24_07_00_27.AEST.2013.narrabn.c5.hflip.jpg'
p121
aS'daytimex_1327093228.Sat.Jan.21_07_00_28.AEST.2012.narrabn.c5.hflip.jpg'
p122
aS'daytimex_1382389228.Tue.Oct.22_07_00_28.AEST.2013.narrabn.c5.hflip.jpg'
p123
aS'daytimex_1189890028.Sun.Sep.16_07_00_28.AEST.2007.narrabn.c5.hflip.jpg'
p124
aS'daytimex_1364590827.Sat.Mar.30_07_00_27.AEST.2013.narrabn.c5.hflip.jpg'
p125
aS'daytimex_1172955628.Sun.Mar.04_07_00_28.AEST.2007.narrabn.c5.hflip.jpg'
p126
aS'daytimex_1355432427.Fri.Dec.14_07_00_27.AEST.2012.narrabn.c5.hflip.jpg'
p127
aS'daytimex_1230152428.Thu.Dec.25_07_00_28.AEST.2008.narrabn.c5.hflip.jpg'
p128
aS'daytimex_1200430827.Wed.Jan.16_07_00_27.AEST.2008.narrabn.c5.hflip.jpg'
p129
aS'daytimex_1168808428.Mon.Jan.15_07_00_28.AEST.2007.narrabn.c5.hflip.jpg'
p130
aS'daytimex_1231016428.Sun.Jan.04_07_00_28.AEST.2009.narrabn.c5.hflip.jpg'
p131
aS'daytimex_1107032427.Sun.Jan.30_07_00_27.AEST.2005.narrabn.c5.hflip.jpg'
p132
aS'daytimex_1203886827.Mon.Feb.25_07_00_27.AEST.2008.narrabn.c5.hflip.jpg'
p133
aS'daytimex_1099171245.Sun.Oct.31_07_20_45.AEST.2004.narrabn.c5.hflip.jpg'
p134
aS'daytimex_1133470828.Fri.Dec.02_07_00_28.AEST.2005.narrabn.c5.hflip.jpg'
p135
aS'daytimex_1141506027.Sun.Mar.05_07_00_27.AEST.2006.narrabn.c5.hflip.jpg'
p136
aS'daytimex_1390078828.Sun.Jan.19_07_00_28.AEST.2014.narrabn.c5.hflip.jpg'
p137
aS'daytimex_1363986027.Sat.Mar.23_07_00_27.AEST.2013.narrabn.c5.hflip.jpg'
p138
aS'daytimex_1238014828.Thu.Mar.26_07_00_28.AEST.2009.narrabn.c5.hflip.jpg'
p139
aS'daytimex_1098566444.Sun.Oct.24_07_20_44.AEST.2004.narrabn.c5.hflip.jpg'
p140
aS'daytimex_1252357227.Tue.Sep.08_07_00_27.AEST.2009.narrabn.c5.hflip.jpg'
p141
aS'daytimex_1364763627.Mon.Apr.01_07_00_27.AEST.2013.narrabn.c5.hflip.jpg'
p142
aS'daytimex_1366491627.Sun.Apr.21_07_00_27.AEST.2013.narrabn.c5.hflip.jpg'
p143
aS'daytimex_1096752044.Sun.Oct.03_07_20_44.AEST.2004.narrabn.c5.hflip.jpg'
p144
aS'daytimex_1363122026.Wed.Mar.13_07_00_26.AEST.2013.narrabn.c5.hflip.jpg'
p145
aS'daytimex_1379624427.Fri.Sep.20_07_00_27.AEST.2013.narrabn.c5.hflip.jpg'
p146
aS'daytimex_1110920428.Wed.Mar.16_07_00_28.AEST.2005.narrabn.c5.hflip.jpg'
p147
aS'daytimex_1301864427.Mon.Apr.04_07_00_27.AEST.2011.narrabn.c5.hflip.jpg'
p148
aS'daytimex_1146258028.Sat.Apr.29_07_00_28.AEST.2006.narrabn.c5.hflip.jpg'
p149
aS'daytimex_1363208427.Thu.Mar.14_07_00_27.AEST.2013.narrabn.c5.hflip.jpg'
p150
aS'daytimex_1365282027.Sun.Apr.07_07_00_27.AEST.2013.narrabn.c5.vflip.jpg'
p151
aS'daytimex_1362690026.Fri.Mar.08_07_00_26.AEST.2013.narrabn.c5.vflip.jpg'
p152
aS'daytimex_1391115627.Fri.Jan.31_07_00_27.AEST.2014.narrabn.c5.vflip.jpg'
p153
aS'daytimex_1244581228.Wed.Jun.10_07_00_28.AEST.2009.narrabn.c5.vflip.jpg'
p154
aS'daytimex_1367096427.Sun.Apr.28_07_00_27.AEST.2013.narrabn.c5.vflip.jpg'
p155
aS'daytimex_1272747627.Sun.May.02_07_00_27.AEST.2010.narrabn.c5.vflip.jpg'
p156
aS'daytimex_1151701228.Sat.Jul.01_07_00_28.AEST.2006.narrabn.c5.vflip.jpg'
p157
aS'daytimex_1244667628.Thu.Jun.11_07_00_28.AEST.2009.narrabn.c5.vflip.jpg'
p158
aS'daytimex_1243976428.Wed.Jun.03_07_00_28.AEST.2009.narrabn.c5.vflip.jpg'
p159
aS'daytimex_1207429228.Sun.Apr.06_07_00_28.AEST.2008.narrabn.c5.vflip.jpg'
p160
aS'daytimex_1244408427.Mon.Jun.08_07_00_27.AEST.2009.narrabn.c5.vflip.jpg'
p161
aS'daytimex_1178226028.Fri.May.04_07_00_28.AEST.2007.narrabn.c5.vflip.jpg'
p162
aS'daytimex_1177102828.Sat.Apr.21_07_00_28.AEST.2007.narrabn.c5.vflip.jpg'
p163
aS'daytimex_1174424427.Wed.Mar.21_07_00_27.AEST.2007.narrabn.c5.vflip.jpg'
p164
aS'daytimex_1298926828.Tue.Mar.01_07_00_28.AEST.2011.narrabn.c5.vflip.jpg'
p165
aS'daytimex_1396386028.Wed.Apr.02_07_00_28.AEST.2014.narrabn.c5.vflip.jpg'
p166
aS'daytimex_1252184428.Sun.Sep.06_07_00_28.AEST.2009.narrabn.c5.vflip.jpg'
p167
aS'daytimex_1165611628.Sat.Dec.09_07_00_28.AEST.2006.narrabn.c5.vflip.jpg'
p168
aS'daytimex_1193346027.Fri.Oct.26_07_00_27.AEST.2007.narrabn.c5.vflip.jpg'
p169
aS'daytimex_1278795628.Sun.Jul.11_07_00_28.AEST.2010.narrabn.c5.vflip.jpg'
p170
aS'daytimex_1249592428.Fri.Aug.07_07_00_28.AEST.2009.narrabn.c5.vflip.jpg'
p171
aS'daytimex_1160168427.Sat.Oct.07_07_00_27.AEST.2006.narrabn.c5.vflip.jpg'
p172
aS'daytimex_1396818028.Mon.Apr.07_07_00_28.AEST.2014.narrabn.c5.vflip.jpg'
p173
aS'daytimex_1395867628.Thu.Mar.27_07_00_28.AEST.2014.narrabn.c5.vflip.jpg'
p174
aS'daytimex_1124744428.Tue.Aug.23_07_00_28.AEST.2005.narrabn.c5.vflip.jpg'
p175
aS'daytimex_1297890028.Thu.Feb.17_07_00_28.AEST.2011.narrabn.c5.vflip.jpg'
p176
aS'daytimex_1298062827.Sat.Feb.19_07_00_27.AEST.2011.narrabn.c5.vflip.jpg'
p177
aS'daytimex_1303160427.Tue.Apr.19_07_00_27.AEST.2011.narrabn.c5.vflip.jpg'
p178
aS'daytimex_1338670828.Sun.Jun.03_07_00_28.AEST.2012.narrabn.c5.vflip.jpg'
p179
aS'daytimex_1305579627.Tue.May.17_07_00_27.AEST.2011.narrabn.c5.vflip.jpg'
p180
aS'daytimex_1297630827.Mon.Feb.14_07_00_27.AEST.2011.narrabn.c5.vflip.jpg'
p181
aS'daytimex_1282856427.Fri.Aug.27_07_00_27.AEST.2010.narrabn.c5.vflip.jpg'
p182
aS'daytimex_1113598827.Sat.Apr.16_07_00_27.AEST.2005.narrabn.c5.vflip.jpg'
p183
aS'daytimex_1110229228.Tue.Mar.08_07_00_28.AEST.2005.narrabn.c5.vflip.jpg'
p184
aS'daytimex_1386536428.Mon.Dec.09_07_00_28.AEST.2013.narrabn.c5.vflip.jpg'
p185
aS'daytimex_1104526828.Sat.Jan.01_07_00_28.AEST.2005.narrabn.c5.vflip.jpg'
p186
aS'daytimex_1352667627.Mon.Nov.12_07_00_27.AEST.2012.narrabn.c5.vflip.jpg'
p187
aS'daytimex_1200949228.Tue.Jan.22_07_00_28.AEST.2008.narrabn.c5.vflip.jpg'
p188
aS'daytimex_1219179627.Wed.Aug.20_07_00_27.AEST.2008.narrabn.c5.vflip.jpg'
p189
aS'daytimex_1295557227.Fri.Jan.21_07_00_27.AEST.2011.narrabn.c5.vflip.jpg'
p190
aS'daytimex_1276635628.Wed.Jun.16_07_00_28.AEST.2010.narrabn.c5.vflip.jpg'
p191
aS'daytimex_1112562027.Mon.Apr.04_07_00_27.AEST.2005.narrabn.c5.vflip.jpg'
p192
aS'daytimex_1376859628.Mon.Aug.19_07_00_28.AEST.2013.narrabn.c5.vflip.jpg'
p193
aS'daytimex_1295643628.Sat.Jan.22_07_00_28.AEST.2011.narrabn.c5.vflip.jpg'
p194
aS'daytimex_1184706028.Wed.Jul.18_07_00_28.AEST.2007.narrabn.c5.vflip.jpg'
p195
aS'daytimex_1366750827.Wed.Apr.24_07_00_27.AEST.2013.narrabn.c5.vflip.jpg'
p196
aS'daytimex_1327093228.Sat.Jan.21_07_00_28.AEST.2012.narrabn.c5.vflip.jpg'
p197
aS'daytimex_1382389228.Tue.Oct.22_07_00_28.AEST.2013.narrabn.c5.vflip.jpg'
p198
aS'daytimex_1189890028.Sun.Sep.16_07_00_28.AEST.2007.narrabn.c5.vflip.jpg'
p199
aS'daytimex_1364590827.Sat.Mar.30_07_00_27.AEST.2013.narrabn.c5.vflip.jpg'
p200
aS'daytimex_1172955628.Sun.Mar.04_07_00_28.AEST.2007.narrabn.c5.vflip.jpg'
p201
aS'daytimex_1355432427.Fri.Dec.14_07_00_27.AEST.2012.narrabn.c5.vflip.jpg'
p202
aS'daytimex_1230152428.Thu.Dec.25_07_00_28.AEST.2008.narrabn.c5.vflip.jpg'
p203
aS'daytimex_1200430827.Wed.Jan.16_07_00_27.AEST.2008.narrabn.c5.vflip.jpg'
p204
aS'daytimex_1168808428.Mon.Jan.15_07_00_28.AEST.2007.narrabn.c5.vflip.jpg'
p205
aS'daytimex_1231016428.Sun.Jan.04_07_00_28.AEST.2009.narrabn.c5.vflip.jpg'
p206
aS'daytimex_1107032427.Sun.Jan.30_07_00_27.AEST.2005.narrabn.c5.vflip.jpg'
p207
aS'daytimex_1203886827.Mon.Feb.25_07_00_27.AEST.2008.narrabn.c5.vflip.jpg'
p208
aS'daytimex_1099171245.Sun.Oct.31_07_20_45.AEST.2004.narrabn.c5.vflip.jpg'
p209
aS'daytimex_1133470828.Fri.Dec.02_07_00_28.AEST.2005.narrabn.c5.vflip.jpg'
p210
aS'daytimex_1141506027.Sun.Mar.05_07_00_27.AEST.2006.narrabn.c5.vflip.jpg'
p211
aS'daytimex_1390078828.Sun.Jan.19_07_00_28.AEST.2014.narrabn.c5.vflip.jpg'
p212
aS'daytimex_1363986027.Sat.Mar.23_07_00_27.AEST.2013.narrabn.c5.vflip.jpg'
p213
aS'daytimex_1238014828.Thu.Mar.26_07_00_28.AEST.2009.narrabn.c5.vflip.jpg'
p214
aS'daytimex_1098566444.Sun.Oct.24_07_20_44.AEST.2004.narrabn.c5.vflip.jpg'
p215
aS'daytimex_1252357227.Tue.Sep.08_07_00_27.AEST.2009.narrabn.c5.vflip.jpg'
p216
aS'daytimex_1364763627.Mon.Apr.01_07_00_27.AEST.2013.narrabn.c5.vflip.jpg'
p217
aS'daytimex_1366491627.Sun.Apr.21_07_00_27.AEST.2013.narrabn.c5.vflip.jpg'
p218
aS'daytimex_1096752044.Sun.Oct.03_07_20_44.AEST.2004.narrabn.c5.vflip.jpg'
p219
aS'daytimex_1363122026.Wed.Mar.13_07_00_26.AEST.2013.narrabn.c5.vflip.jpg'
p220
aS'daytimex_1379624427.Fri.Sep.20_07_00_27.AEST.2013.narrabn.c5.vflip.jpg'
p221
aS'daytimex_1110920428.Wed.Mar.16_07_00_28.AEST.2005.narrabn.c5.vflip.jpg'
p222
aS'daytimex_1301864427.Mon.Apr.04_07_00_27.AEST.2011.narrabn.c5.vflip.jpg'
p223
aS'daytimex_1146258028.Sat.Apr.29_07_00_28.AEST.2006.narrabn.c5.vflip.jpg'
p224
aS'daytimex_1363208427.Thu.Mar.14_07_00_27.AEST.2013.narrabn.c5.vflip.jpg'
p225
aS'daytimex_1365282027.Sun.Apr.07_07_00_27.AEST.2013.narrabn.c5.rot.jpg'
p226
aS'daytimex_1362690026.Fri.Mar.08_07_00_26.AEST.2013.narrabn.c5.rot.jpg'
p227
aS'daytimex_1391115627.Fri.Jan.31_07_00_27.AEST.2014.narrabn.c5.rot.jpg'
p228
aS'daytimex_1244581228.Wed.Jun.10_07_00_28.AEST.2009.narrabn.c5.rot.jpg'
p229
aS'daytimex_1367096427.Sun.Apr.28_07_00_27.AEST.2013.narrabn.c5.rot.jpg'
p230
aS'daytimex_1272747627.Sun.May.02_07_00_27.AEST.2010.narrabn.c5.rot.jpg'
p231
aS'daytimex_1151701228.Sat.Jul.01_07_00_28.AEST.2006.narrabn.c5.rot.jpg'
p232
aS'daytimex_1244667628.Thu.Jun.11_07_00_28.AEST.2009.narrabn.c5.rot.jpg'
p233
aS'daytimex_1243976428.Wed.Jun.03_07_00_28.AEST.2009.narrabn.c5.rot.jpg'
p234
aS'daytimex_1207429228.Sun.Apr.06_07_00_28.AEST.2008.narrabn.c5.rot.jpg'
p235
aS'daytimex_1244408427.Mon.Jun.08_07_00_27.AEST.2009.narrabn.c5.rot.jpg'
p236
aS'daytimex_1178226028.Fri.May.04_07_00_28.AEST.2007.narrabn.c5.rot.jpg'
p237
aS'daytimex_1177102828.Sat.Apr.21_07_00_28.AEST.2007.narrabn.c5.rot.jpg'
p238
aS'daytimex_1174424427.Wed.Mar.21_07_00_27.AEST.2007.narrabn.c5.rot.jpg'
p239
aS'daytimex_1298926828.Tue.Mar.01_07_00_28.AEST.2011.narrabn.c5.rot.jpg'
p240
aS'daytimex_1396386028.Wed.Apr.02_07_00_28.AEST.2014.narrabn.c5.rot.jpg'
p241
aS'daytimex_1252184428.Sun.Sep.06_07_00_28.AEST.2009.narrabn.c5.rot.jpg'
p242
aS'daytimex_1165611628.Sat.Dec.09_07_00_28.AEST.2006.narrabn.c5.rot.jpg'
p243
aS'daytimex_1193346027.Fri.Oct.26_07_00_27.AEST.2007.narrabn.c5.rot.jpg'
p244
aS'daytimex_1278795628.Sun.Jul.11_07_00_28.AEST.2010.narrabn.c5.rot.jpg'
p245
aS'daytimex_1249592428.Fri.Aug.07_07_00_28.AEST.2009.narrabn.c5.rot.jpg'
p246
aS'daytimex_1160168427.Sat.Oct.07_07_00_27.AEST.2006.narrabn.c5.rot.jpg'
p247
aS'daytimex_1396818028.Mon.Apr.07_07_00_28.AEST.2014.narrabn.c5.rot.jpg'
p248
aS'daytimex_1395867628.Thu.Mar.27_07_00_28.AEST.2014.narrabn.c5.rot.jpg'
p249
aS'daytimex_1124744428.Tue.Aug.23_07_00_28.AEST.2005.narrabn.c5.rot.jpg'
p250
aS'daytimex_1297890028.Thu.Feb.17_07_00_28.AEST.2011.narrabn.c5.rot.jpg'
p251
aS'daytimex_1298062827.Sat.Feb.19_07_00_27.AEST.2011.narrabn.c5.rot.jpg'
p252
aS'daytimex_1303160427.Tue.Apr.19_07_00_27.AEST.2011.narrabn.c5.rot.jpg'
p253
aS'daytimex_1338670828.Sun.Jun.03_07_00_28.AEST.2012.narrabn.c5.rot.jpg'
p254
aS'daytimex_1305579627.Tue.May.17_07_00_27.AEST.2011.narrabn.c5.rot.jpg'
p255
aS'daytimex_1297630827.Mon.Feb.14_07_00_27.AEST.2011.narrabn.c5.rot.jpg'
p256
aS'daytimex_1282856427.Fri.Aug.27_07_00_27.AEST.2010.narrabn.c5.rot.jpg'
p257
aS'daytimex_1113598827.Sat.Apr.16_07_00_27.AEST.2005.narrabn.c5.rot.jpg'
p258
aS'daytimex_1110229228.Tue.Mar.08_07_00_28.AEST.2005.narrabn.c5.rot.jpg'
p259
aS'daytimex_1386536428.Mon.Dec.09_07_00_28.AEST.2013.narrabn.c5.rot.jpg'
p260
aS'daytimex_1104526828.Sat.Jan.01_07_00_28.AEST.2005.narrabn.c5.rot.jpg'
p261
aS'daytimex_1352667627.Mon.Nov.12_07_00_27.AEST.2012.narrabn.c5.rot.jpg'
p262
aS'daytimex_1200949228.Tue.Jan.22_07_00_28.AEST.2008.narrabn.c5.rot.jpg'
p263
aS'daytimex_1219179627.Wed.Aug.20_07_00_27.AEST.2008.narrabn.c5.rot.jpg'
p264
aS'daytimex_1295557227.Fri.Jan.21_07_00_27.AEST.2011.narrabn.c5.rot.jpg'
p265
aS'daytimex_1276635628.Wed.Jun.16_07_00_28.AEST.2010.narrabn.c5.rot.jpg'
p266
aS'daytimex_1112562027.Mon.Apr.04_07_00_27.AEST.2005.narrabn.c5.rot.jpg'
p267
aS'daytimex_1376859628.Mon.Aug.19_07_00_28.AEST.2013.narrabn.c5.rot.jpg'
p268
aS'daytimex_1295643628.Sat.Jan.22_07_00_28.AEST.2011.narrabn.c5.rot.jpg'
p269
aS'daytimex_1184706028.Wed.Jul.18_07_00_28.AEST.2007.narrabn.c5.rot.jpg'
p270
aS'daytimex_1366750827.Wed.Apr.24_07_00_27.AEST.2013.narrabn.c5.rot.jpg'
p271
aS'daytimex_1327093228.Sat.Jan.21_07_00_28.AEST.2012.narrabn.c5.rot.jpg'
p272
aS'daytimex_1382389228.Tue.Oct.22_07_00_28.AEST.2013.narrabn.c5.rot.jpg'
p273
aS'daytimex_1189890028.Sun.Sep.16_07_00_28.AEST.2007.narrabn.c5.rot.jpg'
p274
aS'daytimex_1364590827.Sat.Mar.30_07_00_27.AEST.2013.narrabn.c5.rot.jpg'
p275
aS'daytimex_1172955628.Sun.Mar.04_07_00_28.AEST.2007.narrabn.c5.rot.jpg'
p276
aS'daytimex_1355432427.Fri.Dec.14_07_00_27.AEST.2012.narrabn.c5.rot.jpg'
p277
aS'daytimex_1230152428.Thu.Dec.25_07_00_28.AEST.2008.narrabn.c5.rot.jpg'
p278
aS'daytimex_1200430827.Wed.Jan.16_07_00_27.AEST.2008.narrabn.c5.rot.jpg'
p279
aS'daytimex_1168808428.Mon.Jan.15_07_00_28.AEST.2007.narrabn.c5.rot.jpg'
p280
aS'daytimex_1231016428.Sun.Jan.04_07_00_28.AEST.2009.narrabn.c5.rot.jpg'
p281
aS'daytimex_1107032427.Sun.Jan.30_07_00_27.AEST.2005.narrabn.c5.rot.jpg'
p282
aS'daytimex_1203886827.Mon.Feb.25_07_00_27.AEST.2008.narrabn.c5.rot.jpg'
p283
aS'daytimex_1099171245.Sun.Oct.31_07_20_45.AEST.2004.narrabn.c5.rot.jpg'
p284
aS'daytimex_1133470828.Fri.Dec.02_07_00_28.AEST.2005.narrabn.c5.rot.jpg'
p285
aS'daytimex_1141506027.Sun.Mar.05_07_00_27.AEST.2006.narrabn.c5.rot.jpg'
p286
aS'daytimex_1390078828.Sun.Jan.19_07_00_28.AEST.2014.narrabn.c5.rot.jpg'
p287
aS'daytimex_1363986027.Sat.Mar.23_07_00_27.AEST.2013.narrabn.c5.rot.jpg'
p288
aS'daytimex_1238014828.Thu.Mar.26_07_00_28.AEST.2009.narrabn.c5.rot.jpg'
p289
aS'daytimex_1098566444.Sun.Oct.24_07_20_44.AEST.2004.narrabn.c5.rot.jpg'
p290
aS'daytimex_1252357227.Tue.Sep.08_07_00_27.AEST.2009.narrabn.c5.rot.jpg'
p291
aS'daytimex_1364763627.Mon.Apr.01_07_00_27.AEST.2013.narrabn.c5.rot.jpg'
p292
aS'daytimex_1366491627.Sun.Apr.21_07_00_27.AEST.2013.narrabn.c5.rot.jpg'
p293
aS'daytimex_1096752044.Sun.Oct.03_07_20_44.AEST.2004.narrabn.c5.rot.jpg'
p294
aS'daytimex_1363122026.Wed.Mar.13_07_00_26.AEST.2013.narrabn.c5.rot.jpg'
p295
aS'daytimex_1379624427.Fri.Sep.20_07_00_27.AEST.2013.narrabn.c5.rot.jpg'
p296
aS'daytimex_1110920428.Wed.Mar.16_07_00_28.AEST.2005.narrabn.c5.rot.jpg'
p297
aS'daytimex_1301864427.Mon.Apr.04_07_00_27.AEST.2011.narrabn.c5.rot.jpg'
p298
aS'daytimex_1146258028.Sat.Apr.29_07_00_28.AEST.2006.narrabn.c5.rot.jpg'
p299
aS'daytimex_1363208427.Thu.Mar.14_07_00_27.AEST.2013.narrabn.c5.rot.jpg'
p300
aS'daytimex_1365282027.Sun.Apr.07_07_00_27.AEST.2013.narrabn.c5.erase.jpg'
p301
aS'daytimex_1362690026.Fri.Mar.08_07_00_26.AEST.2013.narrabn.c5.erase.jpg'
p302
aS'daytimex_1391115627.Fri.Jan.31_07_00_27.AEST.2014.narrabn.c5.erase.jpg'
p303
aS'daytimex_1244581228.Wed.Jun.10_07_00_28.AEST.2009.narrabn.c5.erase.jpg'
p304
aS'daytimex_1367096427.Sun.Apr.28_07_00_27.AEST.2013.narrabn.c5.erase.jpg'
p305
aS'daytimex_1272747627.Sun.May.02_07_00_27.AEST.2010.narrabn.c5.erase.jpg'
p306
aS'daytimex_1151701228.Sat.Jul.01_07_00_28.AEST.2006.narrabn.c5.erase.jpg'
p307
aS'daytimex_1244667628.Thu.Jun.11_07_00_28.AEST.2009.narrabn.c5.erase.jpg'
p308
aS'daytimex_1243976428.Wed.Jun.03_07_00_28.AEST.2009.narrabn.c5.erase.jpg'
p309
aS'daytimex_1207429228.Sun.Apr.06_07_00_28.AEST.2008.narrabn.c5.erase.jpg'
p310
aS'daytimex_1244408427.Mon.Jun.08_07_00_27.AEST.2009.narrabn.c5.erase.jpg'
p311
aS'daytimex_1178226028.Fri.May.04_07_00_28.AEST.2007.narrabn.c5.erase.jpg'
p312
aS'daytimex_1177102828.Sat.Apr.21_07_00_28.AEST.2007.narrabn.c5.erase.jpg'
p313
aS'daytimex_1174424427.Wed.Mar.21_07_00_27.AEST.2007.narrabn.c5.erase.jpg'
p314
aS'daytimex_1298926828.Tue.Mar.01_07_00_28.AEST.2011.narrabn.c5.erase.jpg'
p315
aS'daytimex_1396386028.Wed.Apr.02_07_00_28.AEST.2014.narrabn.c5.erase.jpg'
p316
aS'daytimex_1252184428.Sun.Sep.06_07_00_28.AEST.2009.narrabn.c5.erase.jpg'
p317
aS'daytimex_1165611628.Sat.Dec.09_07_00_28.AEST.2006.narrabn.c5.erase.jpg'
p318
aS'daytimex_1193346027.Fri.Oct.26_07_00_27.AEST.2007.narrabn.c5.erase.jpg'
p319
aS'daytimex_1278795628.Sun.Jul.11_07_00_28.AEST.2010.narrabn.c5.erase.jpg'
p320
aS'daytimex_1249592428.Fri.Aug.07_07_00_28.AEST.2009.narrabn.c5.erase.jpg'
p321
aS'daytimex_1160168427.Sat.Oct.07_07_00_27.AEST.2006.narrabn.c5.erase.jpg'
p322
aS'daytimex_1396818028.Mon.Apr.07_07_00_28.AEST.2014.narrabn.c5.erase.jpg'
p323
aS'daytimex_1395867628.Thu.Mar.27_07_00_28.AEST.2014.narrabn.c5.erase.jpg'
p324
aS'daytimex_1124744428.Tue.Aug.23_07_00_28.AEST.2005.narrabn.c5.erase.jpg'
p325
aS'daytimex_1297890028.Thu.Feb.17_07_00_28.AEST.2011.narrabn.c5.erase.jpg'
p326
aS'daytimex_1298062827.Sat.Feb.19_07_00_27.AEST.2011.narrabn.c5.erase.jpg'
p327
aS'daytimex_1303160427.Tue.Apr.19_07_00_27.AEST.2011.narrabn.c5.erase.jpg'
p328
aS'daytimex_1338670828.Sun.Jun.03_07_00_28.AEST.2012.narrabn.c5.erase.jpg'
p329
aS'daytimex_1305579627.Tue.May.17_07_00_27.AEST.2011.narrabn.c5.erase.jpg'
p330
aS'daytimex_1297630827.Mon.Feb.14_07_00_27.AEST.2011.narrabn.c5.erase.jpg'
p331
aS'daytimex_1282856427.Fri.Aug.27_07_00_27.AEST.2010.narrabn.c5.erase.jpg'
p332
aS'daytimex_1113598827.Sat.Apr.16_07_00_27.AEST.2005.narrabn.c5.erase.jpg'
p333
aS'daytimex_1110229228.Tue.Mar.08_07_00_28.AEST.2005.narrabn.c5.erase.jpg'
p334
aS'daytimex_1386536428.Mon.Dec.09_07_00_28.AEST.2013.narrabn.c5.erase.jpg'
p335
aS'daytimex_1104526828.Sat.Jan.01_07_00_28.AEST.2005.narrabn.c5.erase.jpg'
p336
aS'daytimex_1352667627.Mon.Nov.12_07_00_27.AEST.2012.narrabn.c5.erase.jpg'
p337
aS'daytimex_1200949228.Tue.Jan.22_07_00_28.AEST.2008.narrabn.c5.erase.jpg'
p338
aS'daytimex_1219179627.Wed.Aug.20_07_00_27.AEST.2008.narrabn.c5.erase.jpg'
p339
aS'daytimex_1295557227.Fri.Jan.21_07_00_27.AEST.2011.narrabn.c5.erase.jpg'
p340
aS'daytimex_1276635628.Wed.Jun.16_07_00_28.AEST.2010.narrabn.c5.erase.jpg'
p341
aS'daytimex_1112562027.Mon.Apr.04_07_00_27.AEST.2005.narrabn.c5.erase.jpg'
p342
aS'daytimex_1376859628.Mon.Aug.19_07_00_28.AEST.2013.narrabn.c5.erase.jpg'
p343
aS'daytimex_1295643628.Sat.Jan.22_07_00_28.AEST.2011.narrabn.c5.erase.jpg'
p344
aS'daytimex_1184706028.Wed.Jul.18_07_00_28.AEST.2007.narrabn.c5.erase.jpg'
p345
aS'daytimex_1366750827.Wed.Apr.24_07_00_27.AEST.2013.narrabn.c5.erase.jpg'
p346
aS'daytimex_1327093228.Sat.Jan.21_07_00_28.AEST.2012.narrabn.c5.erase.jpg'
p347
aS'daytimex_1382389228.Tue.Oct.22_07_00_28.AEST.2013.narrabn.c5.erase.jpg'
p348
aS'daytimex_1189890028.Sun.Sep.16_07_00_28.AEST.2007.narrabn.c5.erase.jpg'
p349
aS'daytimex_1364590827.Sat.Mar.30_07_00_27.AEST.2013.narrabn.c5.erase.jpg'
p350
aS'daytimex_1172955628.Sun.Mar.04_07_00_28.AEST.2007.narrabn.c5.erase.jpg'
p351
aS'daytimex_1355432427.Fri.Dec.14_07_00_27.AEST.2012.narrabn.c5.erase.jpg'
p352
aS'daytimex_1230152428.Thu.Dec.25_07_00_28.AEST.2008.narrabn.c5.erase.jpg'
p353
aS'daytimex_1200430827.Wed.Jan.16_07_00_27.AEST.2008.narrabn.c5.erase.jpg'
p354
aS'daytimex_1168808428.Mon.Jan.15_07_00_28.AEST.2007.narrabn.c5.erase.jpg'
p355
aS'daytimex_1231016428.Sun.Jan.04_07_00_28.AEST.2009.narrabn.c5.erase.jpg'
p356
aS'daytimex_1107032427.Sun.Jan.30_07_00_27.AEST.2005.narrabn.c5.erase.jpg'
p357
aS'daytimex_1203886827.Mon.Feb.25_07_00_27.AEST.2008.narrabn.c5.erase.jpg'
p358
aS'daytimex_1099171245.Sun.Oct.31_07_20_45.AEST.2004.narrabn.c5.erase.jpg'
p359
aS'daytimex_1133470828.Fri.Dec.02_07_00_28.AEST.2005.narrabn.c5.erase.jpg'
p360
aS'daytimex_1141506027.Sun.Mar.05_07_00_27.AEST.2006.narrabn.c5.erase.jpg'
p361
aS'daytimex_1390078828.Sun.Jan.19_07_00_28.AEST.2014.narrabn.c5.erase.jpg'
p362
aS'daytimex_1363986027.Sat.Mar.23_07_00_27.AEST.2013.narrabn.c5.erase.jpg'
p363
aS'daytimex_1238014828.Thu.Mar.26_07_00_28.AEST.2009.narrabn.c5.erase.jpg'
p364
aS'daytimex_1098566444.Sun.Oct.24_07_20_44.AEST.2004.narrabn.c5.erase.jpg'
p365
aS'daytimex_1252357227.Tue.Sep.08_07_00_27.AEST.2009.narrabn.c5.erase.jpg'
p366
aS'daytimex_1364763627.Mon.Apr.01_07_00_27.AEST.2013.narrabn.c5.erase.jpg'
p367
aS'daytimex_1366491627.Sun.Apr.21_07_00_27.AEST.2013.narrabn.c5.erase.jpg'
p368
aS'daytimex_1096752044.Sun.Oct.03_07_20_44.AEST.2004.narrabn.c5.erase.jpg'
p369
aS'daytimex_1363122026.Wed.Mar.13_07_00_26.AEST.2013.narrabn.c5.erase.jpg'
p370
aS'daytimex_1379624427.Fri.Sep.20_07_00_27.AEST.2013.narrabn.c5.erase.jpg'
p371
aS'daytimex_1110920428.Wed.Mar.16_07_00_28.AEST.2005.narrabn.c5.erase.jpg'
p372
aS'daytimex_1301864427.Mon.Apr.04_07_00_27.AEST.2011.narrabn.c5.erase.jpg'
p373
aS'daytimex_1146258028.Sat.Apr.29_07_00_28.AEST.2006.narrabn.c5.erase.jpg'
p374
aS'daytimex_1363208427.Thu.Mar.14_07_00_27.AEST.2013.narrabn.c5.erase.jpg'
p375
aS'daytimex_1365282027.Sun.Apr.07_07_00_27.AEST.2013.narrabn.c5.gamma.jpg'
p376
aS'daytimex_1362690026.Fri.Mar.08_07_00_26.AEST.2013.narrabn.c5.gamma.jpg'
p377
aS'daytimex_1391115627.Fri.Jan.31_07_00_27.AEST.2014.narrabn.c5.gamma.jpg'
p378
aS'daytimex_1244581228.Wed.Jun.10_07_00_28.AEST.2009.narrabn.c5.gamma.jpg'
p379
aS'daytimex_1367096427.Sun.Apr.28_07_00_27.AEST.2013.narrabn.c5.gamma.jpg'
p380
aS'daytimex_1272747627.Sun.May.02_07_00_27.AEST.2010.narrabn.c5.gamma.jpg'
p381
aS'daytimex_1151701228.Sat.Jul.01_07_00_28.AEST.2006.narrabn.c5.gamma.jpg'
p382
aS'daytimex_1244667628.Thu.Jun.11_07_00_28.AEST.2009.narrabn.c5.gamma.jpg'
p383
aS'daytimex_1243976428.Wed.Jun.03_07_00_28.AEST.2009.narrabn.c5.gamma.jpg'
p384
aS'daytimex_1207429228.Sun.Apr.06_07_00_28.AEST.2008.narrabn.c5.gamma.jpg'
p385
aS'daytimex_1244408427.Mon.Jun.08_07_00_27.AEST.2009.narrabn.c5.gamma.jpg'
p386
aS'daytimex_1178226028.Fri.May.04_07_00_28.AEST.2007.narrabn.c5.gamma.jpg'
p387
aS'daytimex_1177102828.Sat.Apr.21_07_00_28.AEST.2007.narrabn.c5.gamma.jpg'
p388
aS'daytimex_1174424427.Wed.Mar.21_07_00_27.AEST.2007.narrabn.c5.gamma.jpg'
p389
aS'daytimex_1298926828.Tue.Mar.01_07_00_28.AEST.2011.narrabn.c5.gamma.jpg'
p390
aS'daytimex_1396386028.Wed.Apr.02_07_00_28.AEST.2014.narrabn.c5.gamma.jpg'
p391
aS'daytimex_1252184428.Sun.Sep.06_07_00_28.AEST.2009.narrabn.c5.gamma.jpg'
p392
aS'daytimex_1165611628.Sat.Dec.09_07_00_28.AEST.2006.narrabn.c5.gamma.jpg'
p393
aS'daytimex_1193346027.Fri.Oct.26_07_00_27.AEST.2007.narrabn.c5.gamma.jpg'
p394
aS'daytimex_1278795628.Sun.Jul.11_07_00_28.AEST.2010.narrabn.c5.gamma.jpg'
p395
aS'daytimex_1249592428.Fri.Aug.07_07_00_28.AEST.2009.narrabn.c5.gamma.jpg'
p396
aS'daytimex_1160168427.Sat.Oct.07_07_00_27.AEST.2006.narrabn.c5.gamma.jpg'
p397
aS'daytimex_1396818028.Mon.Apr.07_07_00_28.AEST.2014.narrabn.c5.gamma.jpg'
p398
aS'daytimex_1395867628.Thu.Mar.27_07_00_28.AEST.2014.narrabn.c5.gamma.jpg'
p399
aS'daytimex_1124744428.Tue.Aug.23_07_00_28.AEST.2005.narrabn.c5.gamma.jpg'
p400
aS'daytimex_1297890028.Thu.Feb.17_07_00_28.AEST.2011.narrabn.c5.gamma.jpg'
p401
aS'daytimex_1298062827.Sat.Feb.19_07_00_27.AEST.2011.narrabn.c5.gamma.jpg'
p402
aS'daytimex_1303160427.Tue.Apr.19_07_00_27.AEST.2011.narrabn.c5.gamma.jpg'
p403
aS'daytimex_1338670828.Sun.Jun.03_07_00_28.AEST.2012.narrabn.c5.gamma.jpg'
p404
aS'daytimex_1305579627.Tue.May.17_07_00_27.AEST.2011.narrabn.c5.gamma.jpg'
p405
aS'daytimex_1297630827.Mon.Feb.14_07_00_27.AEST.2011.narrabn.c5.gamma.jpg'
p406
aS'daytimex_1282856427.Fri.Aug.27_07_00_27.AEST.2010.narrabn.c5.gamma.jpg'
p407
aS'daytimex_1113598827.Sat.Apr.16_07_00_27.AEST.2005.narrabn.c5.gamma.jpg'
p408
aS'daytimex_1110229228.Tue.Mar.08_07_00_28.AEST.2005.narrabn.c5.gamma.jpg'
p409
aS'daytimex_1386536428.Mon.Dec.09_07_00_28.AEST.2013.narrabn.c5.gamma.jpg'
p410
aS'daytimex_1104526828.Sat.Jan.01_07_00_28.AEST.2005.narrabn.c5.gamma.jpg'
p411
aS'daytimex_1352667627.Mon.Nov.12_07_00_27.AEST.2012.narrabn.c5.gamma.jpg'
p412
aS'daytimex_1200949228.Tue.Jan.22_07_00_28.AEST.2008.narrabn.c5.gamma.jpg'
p413
aS'daytimex_1219179627.Wed.Aug.20_07_00_27.AEST.2008.narrabn.c5.gamma.jpg'
p414
aS'daytimex_1295557227.Fri.Jan.21_07_00_27.AEST.2011.narrabn.c5.gamma.jpg'
p415
aS'daytimex_1276635628.Wed.Jun.16_07_00_28.AEST.2010.narrabn.c5.gamma.jpg'
p416
aS'daytimex_1112562027.Mon.Apr.04_07_00_27.AEST.2005.narrabn.c5.gamma.jpg'
p417
aS'daytimex_1376859628.Mon.Aug.19_07_00_28.AEST.2013.narrabn.c5.gamma.jpg'
p418
aS'daytimex_1295643628.Sat.Jan.22_07_00_28.AEST.2011.narrabn.c5.gamma.jpg'
p419
aS'daytimex_1184706028.Wed.Jul.18_07_00_28.AEST.2007.narrabn.c5.gamma.jpg'
p420
aS'daytimex_1366750827.Wed.Apr.24_07_00_27.AEST.2013.narrabn.c5.gamma.jpg'
p421
aS'daytimex_1327093228.Sat.Jan.21_07_00_28.AEST.2012.narrabn.c5.gamma.jpg'
p422
aS'daytimex_1382389228.Tue.Oct.22_07_00_28.AEST.2013.narrabn.c5.gamma.jpg'
p423
aS'daytimex_1189890028.Sun.Sep.16_07_00_28.AEST.2007.narrabn.c5.gamma.jpg'
p424
aS'daytimex_1364590827.Sat.Mar.30_07_00_27.AEST.2013.narrabn.c5.gamma.jpg'
p425
aS'daytimex_1172955628.Sun.Mar.04_07_00_28.AEST.2007.narrabn.c5.gamma.jpg'
p426
aS'daytimex_1355432427.Fri.Dec.14_07_00_27.AEST.2012.narrabn.c5.gamma.jpg'
p427
aS'daytimex_1230152428.Thu.Dec.25_07_00_28.AEST.2008.narrabn.c5.gamma.jpg'
p428
aS'daytimex_1200430827.Wed.Jan.16_07_00_27.AEST.2008.narrabn.c5.gamma.jpg'
p429
aS'daytimex_1168808428.Mon.Jan.15_07_00_28.AEST.2007.narrabn.c5.gamma.jpg'
p430
aS'daytimex_1231016428.Sun.Jan.04_07_00_28.AEST.2009.narrabn.c5.gamma.jpg'
p431
aS'daytimex_1107032427.Sun.Jan.30_07_00_27.AEST.2005.narrabn.c5.gamma.jpg'
p432
aS'daytimex_1203886827.Mon.Feb.25_07_00_27.AEST.2008.narrabn.c5.gamma.jpg'
p433
aS'daytimex_1099171245.Sun.Oct.31_07_20_45.AEST.2004.narrabn.c5.gamma.jpg'
p434
aS'daytimex_1133470828.Fri.Dec.02_07_00_28.AEST.2005.narrabn.c5.gamma.jpg'
p435
aS'daytimex_1141506027.Sun.Mar.05_07_00_27.AEST.2006.narrabn.c5.gamma.jpg'
p436
aS'daytimex_1390078828.Sun.Jan.19_07_00_28.AEST.2014.narrabn.c5.gamma.jpg'
p437
aS'daytimex_1363986027.Sat.Mar.23_07_00_27.AEST.2013.narrabn.c5.gamma.jpg'
p438
aS'daytimex_1238014828.Thu.Mar.26_07_00_28.AEST.2009.narrabn.c5.gamma.jpg'
p439
aS'daytimex_1098566444.Sun.Oct.24_07_20_44.AEST.2004.narrabn.c5.gamma.jpg'
p440
aS'daytimex_1252357227.Tue.Sep.08_07_00_27.AEST.2009.narrabn.c5.gamma.jpg'
p441
aS'daytimex_1364763627.Mon.Apr.01_07_00_27.AEST.2013.narrabn.c5.gamma.jpg'
p442
aS'daytimex_1366491627.Sun.Apr.21_07_00_27.AEST.2013.narrabn.c5.gamma.jpg'
p443
aS'daytimex_1096752044.Sun.Oct.03_07_20_44.AEST.2004.narrabn.c5.gamma.jpg'
p444
aS'daytimex_1363122026.Wed.Mar.13_07_00_26.AEST.2013.narrabn.c5.gamma.jpg'
p445
aS'daytimex_1379624427.Fri.Sep.20_07_00_27.AEST.2013.narrabn.c5.gamma.jpg'
p446
aS'daytimex_1110920428.Wed.Mar.16_07_00_28.AEST.2005.narrabn.c5.gamma.jpg'
p447
aS'daytimex_1301864427.Mon.Apr.04_07_00_27.AEST.2011.narrabn.c5.gamma.jpg'
p448
aS'daytimex_1146258028.Sat.Apr.29_07_00_28.AEST.2006.narrabn.c5.gamma.jpg'
p449
aS'daytimex_1363208427.Thu.Mar.14_07_00_27.AEST.2013.narrabn.c5.gamma.jpg'
p450
a.