(lp0
S'daytimex_1246309228.Tue.Jun.30_07_00_28.AEST.2009.narrabn.c5.jpg'
p1
aS'daytimex_1115413227.Sat.May.07_07_00_27.AEST.2005.narrabn.c5.jpg'
p2
aS'daytimex_1244840427.Sat.Jun.13_07_00_27.AEST.2009.narrabn.c5.jpg'
p3
aS'daytimex_1178571627.Tue.May.08_07_00_27.AEST.2007.narrabn.c5.jpg'
p4
aS'daytimex_1303506028.Sat.Apr.23_07_00_28.AEST.2011.narrabn.c5.jpg'
p5
aS'daytimex_1151614827.Fri.Jun.30_07_00_27.AEST.2006.narrabn.c5.jpg'
p6
aS'daytimex_1244235628.Sat.Jun.06_07_00_28.AEST.2009.narrabn.c5.jpg'
p7
aS'daytimex_1216587627.Mon.Jul.21_07_00_27.AEST.2008.narrabn.c5.jpg'
p8
aS'daytimex_1149195628.Fri.Jun.02_07_00_28.AEST.2006.narrabn.c5.jpg'
p9
aS'daytimex_1272056427.Sat.Apr.24_07_00_27.AEST.2010.narrabn.c5.jpg'
p10
aS'daytimex_1180213228.Sun.May.27_07_00_28.AEST.2007.narrabn.c5.jpg'
p11
aS'daytimex_1152478828.Mon.Jul.10_07_00_28.AEST.2006.narrabn.c5.jpg'
p12
aS'daytimex_1152565228.Tue.Jul.11_07_00_28.AEST.2006.narrabn.c5.jpg'
p13
aS'daytimex_1179522028.Sat.May.19_07_00_28.AEST.2007.narrabn.c5.jpg'
p14
aS'daytimex_1244494828.Tue.Jun.09_07_00_28.AEST.2009.narrabn.c5.jpg'
p15
aS'daytimex_1115326827.Fri.May.06_07_00_27.AEST.2005.narrabn.c5.jpg'
p16
aS'daytimex_1218574827.Wed.Aug.13_07_00_27.AEST.2008.narrabn.c5.jpg'
p17
aS'daytimex_1216414828.Sat.Jul.19_07_00_28.AEST.2008.narrabn.c5.jpg'
p18
aS'daytimex_1244322027.Sun.Jun.07_07_00_27.AEST.2009.narrabn.c5.jpg'
p19
aS'daytimex_1299358827.Sun.Mar.06_07_00_27.AEST.2011.narrabn.c5.jpg'
p20
aS'daytimex_1218315628.Sun.Aug.10_07_00_28.AEST.2008.narrabn.c5.jpg'
p21
aS'daytimex_1216328427.Fri.Jul.18_07_00_27.AEST.2008.narrabn.c5.jpg'
p22
aS'daytimex_1377205228.Fri.Aug.23_07_00_28.AEST.2013.narrabn.c5.jpg'
p23
aS'daytimex_1280523628.Sat.Jul.31_07_00_28.AEST.2010.narrabn.c5.jpg'
p24
aS'daytimex_1180904428.Mon.Jun.04_07_00_28.AEST.2007.narrabn.c5.jpg'
p25
aS'daytimex_1367182827.Mon.Apr.29_07_00_27.AEST.2013.narrabn.c5.jpg'
p26
aS'daytimex_1362776427.Sat.Mar.09_07_00_27.AEST.2013.narrabn.c5.jpg'
p27
aS'daytimex_1206997228.Tue.Apr.01_07_00_28.AEST.2008.narrabn.c5.jpg'
p28
aS'daytimex_1183410028.Tue.Jul.03_07_00_28.AEST.2007.narrabn.c5.jpg'
p29
aS'daytimex_1271624427.Mon.Apr.19_07_00_27.AEST.2010.narrabn.c5.jpg'
p30
aS'daytimex_1362603627.Thu.Mar.07_07_00_27.AEST.2013.narrabn.c5.jpg'
p31
aS'daytimex_1115067628.Tue.May.03_07_00_28.AEST.2005.narrabn.c5.jpg'
p32
aS'daytimex_1272315628.Tue.Apr.27_07_00_28.AEST.2010.narrabn.c5.jpg'
p33
aS'daytimex_1174338027.Tue.Mar.20_07_00_27.AEST.2007.narrabn.c5.jpg'
p34
aS'daytimex_1115586027.Mon.May.09_07_00_27.AEST.2005.narrabn.c5.jpg'
p35
aS'daytimex_1115758827.Wed.May.11_07_00_27.AEST.2005.narrabn.c5.jpg'
p36
aS'daytimex_1178398828.Sun.May.06_07_00_28.AEST.2007.narrabn.c5.jpg'
p37
aS'daytimex_1285621228.Tue.Sep.28_07_00_28.AEST.2010.narrabn.c5.jpg'
p38
aS'daytimex_1129928428.Sat.Oct.22_07_00_28.AEST.2005.narrabn.c5.jpg'
p39
aS'daytimex_1339448428.Tue.Jun.12_07_00_28.AEST.2012.narrabn.c5.jpg'
p40
aS'daytimex_1243371628.Wed.May.27_07_00_28.AEST.2009.narrabn.c5.jpg'
p41
aS'daytimex_1165525227.Fri.Dec.08_07_00_27.AEST.2006.narrabn.c5.jpg'
p42
aS'daytimex_1122843628.Mon.Aug.01_07_00_28.AEST.2005.narrabn.c5.jpg'
p43
aS'daytimex_1269032427.Sat.Mar.20_07_00_27.AEST.2010.narrabn.c5.jpg'
p44
aS'daytimex_1321822828.Mon.Nov.21_07_00_28.AEST.2011.narrabn.c5.jpg'
p45
aS'daytimex_1362344426.Mon.Mar.04_07_00_26.AEST.2013.narrabn.c5.jpg'
p46
aS'daytimex_1367269226.Tue.Apr.30_07_00_26.AEST.2013.narrabn.c5.jpg'
p47
aS'daytimex_1279141227.Thu.Jul.15_07_00_27.AEST.2010.narrabn.c5.jpg'
p48
aS'daytimex_1174683628.Sat.Mar.24_07_00_28.AEST.2007.narrabn.c5.jpg'
p49
aS'daytimex_1179262828.Wed.May.16_07_00_28.AEST.2007.narrabn.c5.jpg'
p50
aS'daytimex_1205960427.Thu.Mar.20_07_00_27.AEST.2008.narrabn.c5.jpg'
p51
aS'daytimex_1160082028.Fri.Oct.06_07_00_28.AEST.2006.narrabn.c5.jpg'
p52
aS'daytimex_1176066028.Mon.Apr.09_07_00_28.AEST.2007.narrabn.c5.jpg'
p53
aS'daytimex_1278018028.Fri.Jul.02_07_00_28.AEST.2010.narrabn.c5.jpg'
p54
aS'daytimex_1393707627.Sun.Mar.02_07_00_27.AEST.2014.narrabn.c5.jpg'
p55
aS'daytimex_1285448428.Sun.Sep.26_07_00_28.AEST.2010.narrabn.c5.jpg'
p56
aS'daytimex_1210366827.Sat.May.10_07_00_27.AEST.2008.narrabn.c5.jpg'
p57
aS'daytimex_1179435627.Fri.May.18_07_00_27.AEST.2007.narrabn.c5.jpg'
p58
aS'daytimex_1164488428.Sun.Nov.26_07_00_28.AEST.2006.narrabn.c5.jpg'
p59
aS'daytimex_1114203627.Sat.Apr.23_07_00_27.AEST.2005.narrabn.c5.jpg'
p60
aS'daytimex_1192482027.Tue.Oct.16_07_00_27.AEST.2007.narrabn.c5.jpg'
p61
aS'daytimex_1320699628.Tue.Nov.08_07_00_28.AEST.2011.narrabn.c5.jpg'
p62
aS'daytimex_1421803807.Wed.Jan.21_11_30_07.AEST.2015.narrabn.c5.jpg'
p63
aS'daytimex_1192136427.Fri.Oct.12_07_00_27.AEST.2007.narrabn.c5.jpg'
p64
aS'daytimex_1210194028.Thu.May.08_07_00_28.AEST.2008.narrabn.c5.jpg'
p65
aS'daytimex_1166475628.Tue.Dec.19_07_00_28.AEST.2006.narrabn.c5.jpg'
p66
aS'daytimex_1397077227.Thu.Apr.10_07_00_27.AEST.2014.narrabn.c5.jpg'
p67
aS'daytimex_1243198828.Mon.May.25_07_00_28.AEST.2009.narrabn.c5.jpg'
p68
aS'daytimex_1206046827.Fri.Mar.21_07_00_27.AEST.2008.narrabn.c5.jpg'
p69
aS'daytimex_1215032428.Thu.Jul.03_07_00_28.AEST.2008.narrabn.c5.jpg'
p70
aS'daytimex_1095542444.Sun.Sep.19_07_20_44.AEST.2004.narrabn.c5.jpg'
p71
aS'daytimex_1220043628.Sat.Aug.30_07_00_28.AEST.2008.narrabn.c5.jpg'
p72
aS'daytimex_1305752427.Thu.May.19_07_00_27.AEST.2011.narrabn.c5.jpg'
p73
aS'daytimex_1300482028.Sat.Mar.19_07_00_28.AEST.2011.narrabn.c5.jpg'
p74
aS'daytimex_1396040427.Sat.Mar.29_07_00_27.AEST.2014.narrabn.c5.jpg'
p75
aS'daytimex_1152738027.Thu.Jul.13_07_00_27.AEST.2006.narrabn.c5.jpg'
p76
aS'daytimex_1114117228.Fri.Apr.22_07_00_28.AEST.2005.narrabn.c5.jpg'
p77
aS'daytimex_1193432428.Sat.Oct.27_07_00_28.AEST.2007.narrabn.c5.jpg'
p78
aS'daytimex_1285362027.Sat.Sep.25_07_00_27.AEST.2010.narrabn.c5.jpg'
p79
aS'daytimex_1091568045.Wed.Aug.04_07_20_45.AEST.2004.narrabn.c5.jpg'
p80
aS'daytimex_1176584427.Sun.Apr.15_07_00_27.AEST.2007.narrabn.c5.jpg'
p81
aS'daytimex_1297803627.Wed.Feb.16_07_00_27.AEST.2011.narrabn.c5.jpg'
p82
aS'daytimex_1115154028.Wed.May.04_07_00_28.AEST.2005.narrabn.c5.jpg'
p83
aS'daytimex_1210280428.Fri.May.09_07_00_28.AEST.2008.narrabn.c5.jpg'
p84
aS'daytimex_1095456045.Sat.Sep.18_07_20_45.AEST.2004.narrabn.c5.jpg'
p85
aS'daytimex_1296421228.Mon.Jan.31_07_00_28.AEST.2011.narrabn.c5.jpg'
p86
aS'daytimex_1271278827.Thu.Apr.15_07_00_27.AEST.2010.narrabn.c5.jpg'
p87
aS'daytimex_1321045227.Sat.Nov.12_07_00_27.AEST.2011.narrabn.c5.jpg'
p88
aS'daytimex_1218747627.Fri.Aug.15_07_00_27.AEST.2008.narrabn.c5.jpg'
p89
aS'daytimex_1407358807.Thu.Aug.07_07_00_07.AEST.2014.narrabn.c5.jpg'
p90
aS'daytimex_1269291628.Tue.Mar.23_07_00_28.AEST.2010.narrabn.c5.jpg'
p91
aS'daytimex_1096492844.Thu.Sep.30_07_20_44.AEST.2004.narrabn.c5.jpg'
p92
aS'daytimex_1264194027.Sat.Jan.23_07_00_27.AEST.2010.narrabn.c5.jpg'
p93
aS'daytimex_1148331627.Tue.May.23_07_00_27.AEST.2006.narrabn.c5.jpg'
p94
aS'daytimex_1280350828.Thu.Jul.29_07_00_28.AEST.2010.narrabn.c5.jpg'
p95
aS'daytimex_1358283627.Wed.Jan.16_07_00_27.AEST.2013.narrabn.c5.jpg'
p96
aS'daytimex_1156798828.Tue.Aug.29_07_00_28.AEST.2006.narrabn.c5.jpg'
p97
aS'daytimex_1218920428.Sun.Aug.17_07_00_28.AEST.2008.narrabn.c5.jpg'
p98
aS'daytimex_1269550828.Fri.Mar.26_07_00_28.AEST.2010.narrabn.c5.jpg'
p99
aS'daytimex_1253394027.Sun.Sep.20_07_00_27.AEST.2009.narrabn.c5.jpg'
p100
aS'daytimex_1159909227.Wed.Oct.04_07_00_27.AEST.2006.narrabn.c5.jpg'
p101
aS'daytimex_1266267628.Tue.Feb.16_07_00_28.AEST.2010.narrabn.c5.jpg'
p102
aS'daytimex_1313614827.Thu.Aug.18_07_00_27.AEST.2011.narrabn.c5.jpg'
p103
aS'daytimex_1383166828.Thu.Oct.31_07_00_28.AEST.2013.narrabn.c5.jpg'
p104
aS'daytimex_1368478827.Tue.May.14_07_00_27.AEST.2013.narrabn.c5.jpg'
p105
aS'daytimex_1194901228.Tue.Nov.13_07_00_28.AEST.2007.narrabn.c5.jpg'
p106
aS'daytimex_1170968427.Fri.Feb.09_07_00_27.AEST.2007.narrabn.c5.jpg'
p107
aS'daytimex_1313182827.Sat.Aug.13_07_00_27.AEST.2011.narrabn.c5.jpg'
p108
aS'daytimex_1263070827.Sun.Jan.10_07_00_27.AEST.2010.narrabn.c5.jpg'
p109
aS'daytimex_1118264428.Thu.Jun.09_07_00_28.AEST.2005.narrabn.c5.jpg'
p110
aS'daytimex_1348779627.Fri.Sep.28_07_00_27.AEST.2012.narrabn.c5.jpg'
p111
aS'daytimex_1331499627.Mon.Mar.12_07_00_27.AEST.2012.narrabn.c5.jpg'
p112
aS'daytimex_1375736428.Tue.Aug.06_07_00_28.AEST.2013.narrabn.c5.jpg'
p113
aS'daytimex_1158613228.Tue.Sep.19_07_00_28.AEST.2006.narrabn.c5.jpg'
p114
aS'daytimex_1277240427.Wed.Jun.23_07_00_27.AEST.2010.narrabn.c5.jpg'
p115
aS'daytimex_1132347628.Sat.Nov.19_07_00_28.AEST.2005.narrabn.c5.jpg'
p116
aS'daytimex_1392930028.Fri.Feb.21_07_00_28.AEST.2014.narrabn.c5.jpg'
p117
aS'daytimex_1263675627.Sun.Jan.17_07_00_27.AEST.2010.narrabn.c5.jpg'
p118
aS'daytimex_1390424427.Thu.Jan.23_07_00_27.AEST.2014.narrabn.c5.jpg'
p119
aS'daytimex_1296248427.Sat.Jan.29_07_00_27.AEST.2011.narrabn.c5.jpg'
p120
aS'daytimex_1132088427.Wed.Nov.16_07_00_27.AEST.2005.narrabn.c5.jpg'
p121
aS'daytimex_1233003628.Tue.Jan.27_07_00_28.AEST.2009.narrabn.c5.jpg'
p122
aS'daytimex_1286485227.Fri.Oct.08_07_00_27.AEST.2010.narrabn.c5.jpg'
p123
aS'daytimex_1209589228.Thu.May.01_07_00_28.AEST.2008.narrabn.c5.jpg'
p124
aS'daytimex_1246654827.Sat.Jul.04_07_00_27.AEST.2009.narrabn.c5.jpg'
p125
aS'daytimex_1136062828.Sun.Jan.01_07_00_28.AEST.2006.narrabn.c5.jpg'
p126
aS'daytimex_1105304428.Mon.Jan.10_07_00_28.AEST.2005.narrabn.c5.jpg'
p127
aS'daytimex_1170104428.Tue.Jan.30_07_00_28.AEST.2007.narrabn.c5.jpg'
p128
aS'daytimex_1100553644.Tue.Nov.16_07_20_44.AEST.2004.narrabn.c5.jpg'
p129
aS'daytimex_1230757227.Thu.Jan.01_07_00_27.AEST.2009.narrabn.c5.jpg'
p130
aS'daytimex_1237323627.Wed.Mar.18_07_00_27.AEST.2009.narrabn.c5.jpg'
p131
aS'daytimex_1382302828.Mon.Oct.21_07_00_28.AEST.2013.narrabn.c5.jpg'
p132
aS'daytimex_1336770028.Sat.May.12_07_00_28.AEST.2012.narrabn.c5.jpg'
p133
aS'daytimex_1304715627.Sat.May.07_07_00_27.AEST.2011.narrabn.c5.jpg'
p134
aS'daytimex_1113771628.Mon.Apr.18_07_00_28.AEST.2005.narrabn.c5.jpg'
p135
aS'daytimex_1344286827.Tue.Aug.07_07_00_27.AEST.2012.narrabn.c5.jpg'
p136
aS'daytimex_1332795628.Tue.Mar.27_07_00_28.AEST.2012.narrabn.c5.jpg'
p137
aS'daytimex_1166994028.Mon.Dec.25_07_00_28.AEST.2006.narrabn.c5.jpg'
p138
aS'daytimex_1346533227.Sun.Sep.02_07_00_27.AEST.2012.narrabn.c5.jpg'
p139
aS'daytimex_1257195628.Tue.Nov.03_07_00_28.AEST.2009.narrabn.c5.jpg'
p140
aS'daytimex_1277758827.Tue.Jun.29_07_00_27.AEST.2010.narrabn.c5.jpg'
p141
aS'daytimex_1104699628.Mon.Jan.03_07_00_28.AEST.2005.narrabn.c5.jpg'
p142
aS'daytimex_1369515627.Sun.May.26_07_00_27.AEST.2013.narrabn.c5.jpg'
p143
aS'daytimex_1188853227.Tue.Sep.04_07_00_27.AEST.2007.narrabn.c5.jpg'
p144
aS'daytimex_1210021227.Tue.May.06_07_00_27.AEST.2008.narrabn.c5.jpg'
p145
aS'daytimex_1106600428.Tue.Jan.25_07_00_28.AEST.2005.narrabn.c5.jpg'
p146
aS'daytimex_1308430828.Sun.Jun.19_07_00_28.AEST.2011.narrabn.c5.jpg'
p147
aS'daytimex_1093641644.Sat.Aug.28_07_20_44.AEST.2004.narrabn.c5.jpg'
p148
aS'daytimex_1277845228.Wed.Jun.30_07_00_28.AEST.2010.narrabn.c5.jpg'
p149
aS'daytimex_1290459628.Tue.Nov.23_07_00_28.AEST.2010.narrabn.c5.jpg'
p150
aS'daytimex_1239138028.Wed.Apr.08_07_00_28.AEST.2009.narrabn.c5.jpg'
p151
aS'daytimex_1103403628.Sun.Dec.19_07_00_28.AEST.2004.narrabn.c5.jpg'
p152
aS'daytimex_1232744428.Sat.Jan.24_07_00_28.AEST.2009.narrabn.c5.jpg'
p153
aS'daytimex_1164229228.Thu.Nov.23_07_00_28.AEST.2006.narrabn.c5.jpg'
p154
aS'daytimex_1130446828.Fri.Oct.28_07_00_28.AEST.2005.narrabn.c5.jpg'
p155
aS'daytimex_1132261228.Fri.Nov.18_07_00_28.AEST.2005.narrabn.c5.jpg'
p156
aS'daytimex_1413493206.Fri.Oct.17_07_00_06.AEST.2014.narrabn.c5.jpg'
p157
aS'daytimex_1366664426.Tue.Apr.23_07_00_26.AEST.2013.narrabn.c5.jpg'
p158
aS'daytimex_1102885227.Mon.Dec.13_07_00_27.AEST.2004.narrabn.c5.jpg'
p159
aS'daytimex_1094764845.Fri.Sep.10_07_20_45.AEST.2004.narrabn.c5.jpg'
p160
aS'daytimex_1307134828.Sat.Jun.04_07_00_28.AEST.2011.narrabn.c5.jpg'
p161
aS'daytimex_1289422827.Thu.Nov.11_07_00_27.AEST.2010.narrabn.c5.jpg'
p162
aS'daytimex_1168722027.Sun.Jan.14_07_00_27.AEST.2007.narrabn.c5.jpg'
p163
aS'daytimex_1166907628.Sun.Dec.24_07_00_28.AEST.2006.narrabn.c5.jpg'
p164
aS'daytimex_1130878828.Wed.Nov.02_07_00_28.AEST.2005.narrabn.c5.jpg'
p165
aS'daytimex_1349730027.Tue.Oct.09_07_00_27.AEST.2012.narrabn.c5.jpg'
p166
aS'daytimex_1106341227.Sat.Jan.22_07_00_27.AEST.2005.narrabn.c5.jpg'
p167
aS'daytimex_1194469228.Thu.Nov.08_07_00_28.AEST.2007.narrabn.c5.jpg'
p168
aS'daytimex_1223931628.Tue.Oct.14_07_00_28.AEST.2008.narrabn.c5.jpg'
p169
aS'daytimex_1289336428.Wed.Nov.10_07_00_28.AEST.2010.narrabn.c5.jpg'
p170
aS'daytimex_1259442028.Sun.Nov.29_07_00_28.AEST.2009.narrabn.c5.jpg'
p171
aS'daytimex_1275080427.Sat.May.29_07_00_27.AEST.2010.narrabn.c5.jpg'
p172
aS'daytimex_1364245227.Tue.Mar.26_07_00_27.AEST.2013.narrabn.c5.jpg'
p173
aS'daytimex_1144702827.Tue.Apr.11_07_00_27.AEST.2006.narrabn.c5.jpg'
p174
aS'daytimex_1137013242.Thu.Jan.12_07_00_42.AEST.2006.narrabn.c5.jpg'
p175
aS'daytimex_1168981228.Wed.Jan.17_07_00_28.AEST.2007.narrabn.c5.jpg'
p176
aS'daytimex_1106514027.Mon.Jan.24_07_00_27.AEST.2005.narrabn.c5.jpg'
p177
aS'daytimex_1355518826.Sat.Dec.15_07_00_26.AEST.2012.narrabn.c5.jpg'
p178
aS'daytimex_1105131627.Sat.Jan.08_07_00_27.AEST.2005.narrabn.c5.jpg'
p179
aS'daytimex_1125781227.Sun.Sep.04_07_00_27.AEST.2005.narrabn.c5.jpg'
p180
aS'daytimex_1100640044.Wed.Nov.17_07_20_44.AEST.2004.narrabn.c5.jpg'
p181
aS'daytimex_1211058028.Sun.May.18_07_00_28.AEST.2008.narrabn.c5.jpg'
p182
aS'daytimex_1422322207.Tue.Jan.27_11_30_07.AEST.2015.narrabn.c5.jpg'
p183
aS'daytimex_1189458027.Tue.Sep.11_07_00_27.AEST.2007.narrabn.c5.jpg'
p184
aS'daytimex_1311627628.Tue.Jul.26_07_00_28.AEST.2011.narrabn.c5.jpg'
p185
aS'daytimex_1367701227.Sun.May.05_07_00_27.AEST.2013.narrabn.c5.jpg'
p186
aS'daytimex_1103058027.Wed.Dec.15_07_00_27.AEST.2004.narrabn.c5.jpg'
p187
aS'daytimex_1335128427.Mon.Apr.23_07_00_27.AEST.2012.narrabn.c5.jpg'
p188
aS'daytimex_1352494827.Sat.Nov.10_07_00_27.AEST.2012.narrabn.c5.jpg'
p189
aS'daytimex_1425850207.Mon.Mar.09_07_30_07.AEST.2015.narrabn.c5.jpg'
p190
aS'daytimex_1384462828.Fri.Nov.15_07_00_28.AEST.2013.narrabn.c5.jpg'
p191
aS'daytimex_1262379627.Sat.Jan.02_07_00_27.AEST.2010.narrabn.c5.jpg'
p192
aS'daytimex_1232658027.Fri.Jan.23_07_00_27.AEST.2009.narrabn.c5.jpg'
p193
aS'daytimex_1162674028.Sun.Nov.05_07_00_28.AEST.2006.narrabn.c5.jpg'
p194
aS'daytimex_1123362028.Sun.Aug.07_07_00_28.AEST.2005.narrabn.c5.jpg'
p195
aS'daytimex_1337288428.Fri.May.18_07_00_28.AEST.2012.narrabn.c5.jpg'
p196
aS'daytimex_1389992427.Sat.Jan.18_07_00_27.AEST.2014.narrabn.c5.jpg'
p197
aS'daytimex_1119733228.Sun.Jun.26_07_00_28.AEST.2005.narrabn.c5.jpg'
p198
aS'daytimex_1327179628.Sun.Jan.22_07_00_28.AEST.2012.narrabn.c5.jpg'
p199
aS'daytimex_1344805229.Mon.Aug.13_07_00_29.AEST.2012.narrabn.c5.jpg'
p200
aS'daytimex_1105822828.Sun.Jan.16_07_00_28.AEST.2005.narrabn.c5.jpg'
p201
aS'daytimex_1199912427.Thu.Jan.10_07_00_27.AEST.2008.narrabn.c5.jpg'
p202
aS'daytimex_1390165228.Mon.Jan.20_07_00_28.AEST.2014.narrabn.c5.jpg'
p203
aS'daytimex_1363467627.Sun.Mar.17_07_00_27.AEST.2013.narrabn.c5.jpg'
p204
aS'daytimex_1200085228.Sat.Jan.12_07_00_28.AEST.2008.narrabn.c5.jpg'
p205
aS'daytimex_1144616428.Mon.Apr.10_07_00_28.AEST.2006.narrabn.c5.jpg'
p206
aS'daytimex_1199653228.Mon.Jan.07_07_00_28.AEST.2008.narrabn.c5.jpg'
p207
aS'daytimex_1365714027.Fri.Apr.12_07_00_27.AEST.2013.narrabn.c5.jpg'
p208
aS'daytimex_1129755628.Thu.Oct.20_07_00_28.AEST.2005.narrabn.c5.jpg'
p209
aS'daytimex_1200258027.Mon.Jan.14_07_00_27.AEST.2008.narrabn.c5.jpg'
p210
aS'daytimex_1362862827.Sun.Mar.10_07_00_27.AEST.2013.narrabn.c5.jpg'
p211
aS'daytimex_1364158827.Mon.Mar.25_07_00_27.AEST.2013.narrabn.c5.jpg'
p212
aS'daytimex_1238360427.Mon.Mar.30_07_00_27.AEST.2009.narrabn.c5.jpg'
p213
aS'daytimex_1363035626.Tue.Mar.12_07_00_26.AEST.2013.narrabn.c5.jpg'
p214
aS'daytimex_1199739627.Tue.Jan.08_07_00_27.AEST.2008.narrabn.c5.jpg'
p215
aS'daytimex_1359579627.Thu.Jan.31_07_00_27.AEST.2013.narrabn.c5.jpg'
p216
aS'daytimex_1202331628.Thu.Feb.07_07_00_28.AEST.2008.narrabn.c5.jpg'
p217
aS'daytimex_1169413228.Mon.Jan.22_07_00_28.AEST.2007.narrabn.c5.jpg'
p218
aS'daytimex_1098652844.Mon.Oct.25_07_20_44.AEST.2004.narrabn.c5.jpg'
p219
aS'daytimex_1199826027.Wed.Jan.09_07_00_27.AEST.2008.narrabn.c5.jpg'
p220
aS'daytimex_1364072427.Sun.Mar.24_07_00_27.AEST.2013.narrabn.c5.jpg'
p221
aS'daytimex_1364418026.Thu.Mar.28_07_00_26.AEST.2013.narrabn.c5.jpg'
p222
aS'daytimex_1364331627.Wed.Mar.27_07_00_27.AEST.2013.narrabn.c5.jpg'
p223
aS'daytimex_1307048427.Fri.Jun.03_07_00_27.AEST.2011.narrabn.c5.jpg'
p224
aS'daytimex_1365454827.Tue.Apr.09_07_00_27.AEST.2013.narrabn.c5.jpg'
p225
aS'daytimex_1102626027.Fri.Dec.10_07_00_27.AEST.2004.narrabn.c5.jpg'
p226
aS'daytimex_1098739244.Tue.Oct.26_07_20_44.AEST.2004.narrabn.c5.jpg'
p227
aS'daytimex_1365109227.Fri.Apr.05_07_00_27.AEST.2013.narrabn.c5.jpg'
p228
aS'daytimex_1363899627.Fri.Mar.22_07_00_27.AEST.2013.narrabn.c5.jpg'
p229
aS'daytimex_1129842028.Fri.Oct.21_07_00_28.AEST.2005.narrabn.c5.jpg'
p230
aS'daytimex_1199307628.Thu.Jan.03_07_00_28.AEST.2008.narrabn.c5.jpg'
p231
aS'daytimex_1161205227.Thu.Oct.19_07_00_27.AEST.2006.narrabn.c5.jpg'
p232
aS'daytimex_1098825644.Wed.Oct.27_07_20_44.AEST.2004.narrabn.c5.jpg'
p233
aS'daytimex_1141419628.Sat.Mar.04_07_00_28.AEST.2006.narrabn.c5.jpg'
p234
aS'daytimex_1366837226.Thu.Apr.25_07_00_26.AEST.2013.narrabn.c5.jpg'
p235
aS'daytimex_1364504427.Fri.Mar.29_07_00_27.AEST.2013.narrabn.c5.jpg'
p236
aS'daytimex_1199998828.Fri.Jan.11_07_00_28.AEST.2008.narrabn.c5.jpg'
p237
aS'daytimex_1363381227.Sat.Mar.16_07_00_27.AEST.2013.narrabn.c5.jpg'
p238
aS'daytimex_1363294826.Fri.Mar.15_07_00_26.AEST.2013.narrabn.c5.jpg'
p239
aS'daytimex_1366059626.Tue.Apr.16_07_00_26.AEST.2013.narrabn.c5.jpg'
p240
aS'daytimex_1304370028.Tue.May.03_07_00_28.AEST.2011.narrabn.c5.jpg'
p241
aS'daytimex_1102453228.Wed.Dec.08_07_00_28.AEST.2004.narrabn.c5.jpg'
p242
aS'daytimex_1200171628.Sun.Jan.13_07_00_28.AEST.2008.narrabn.c5.jpg'
p243
aS'daytimex_1154120427.Sat.Jul.29_07_00_27.AEST.2006.narrabn.c5.jpg'
p244
aS'daytimex_1102712427.Sat.Dec.11_07_00_27.AEST.2004.narrabn.c5.jpg'
p245
aS'daytimex_1298494828.Thu.Feb.24_07_00_28.AEST.2011.narrabn.c5.jpg'
p246
aS'daytimex_1252270827.Mon.Sep.07_07_00_27.AEST.2009.narrabn.c5.jpg'
p247
aS'daytimex_1258837227.Sun.Nov.22_07_00_27.AEST.2009.narrabn.c5.jpg'
p248
aS'daytimex_1365973226.Mon.Apr.15_07_00_26.AEST.2013.narrabn.c5.jpg'
p249
aS'daytimex_1169326827.Sun.Jan.21_07_00_27.AEST.2007.narrabn.c5.jpg'
p250
a.