(lp0
S'daytimex_1246309228.Tue.Jun.30_07_00_28.AEST.2009.narrabn.c5.jpg'
p1
aS'daytimex_1115413227.Sat.May.07_07_00_27.AEST.2005.narrabn.c5.jpg'
p2
aS'daytimex_1244840427.Sat.Jun.13_07_00_27.AEST.2009.narrabn.c5.jpg'
p3
aS'daytimex_1178571627.Tue.May.08_07_00_27.AEST.2007.narrabn.c5.jpg'
p4
aS'daytimex_1303506028.Sat.Apr.23_07_00_28.AEST.2011.narrabn.c5.jpg'
p5
aS'daytimex_1151614827.Fri.Jun.30_07_00_27.AEST.2006.narrabn.c5.jpg'
p6
aS'daytimex_1244235628.Sat.Jun.06_07_00_28.AEST.2009.narrabn.c5.jpg'
p7
aS'daytimex_1216587627.Mon.Jul.21_07_00_27.AEST.2008.narrabn.c5.jpg'
p8
aS'daytimex_1149195628.Fri.Jun.02_07_00_28.AEST.2006.narrabn.c5.jpg'
p9
aS'daytimex_1272056427.Sat.Apr.24_07_00_27.AEST.2010.narrabn.c5.jpg'
p10
aS'daytimex_1180213228.Sun.May.27_07_00_28.AEST.2007.narrabn.c5.jpg'
p11
aS'daytimex_1152478828.Mon.Jul.10_07_00_28.AEST.2006.narrabn.c5.jpg'
p12
aS'daytimex_1152565228.Tue.Jul.11_07_00_28.AEST.2006.narrabn.c5.jpg'
p13
aS'daytimex_1179522028.Sat.May.19_07_00_28.AEST.2007.narrabn.c5.jpg'
p14
aS'daytimex_1244494828.Tue.Jun.09_07_00_28.AEST.2009.narrabn.c5.jpg'
p15
aS'daytimex_1115326827.Fri.May.06_07_00_27.AEST.2005.narrabn.c5.jpg'
p16
aS'daytimex_1218574827.Wed.Aug.13_07_00_27.AEST.2008.narrabn.c5.jpg'
p17
aS'daytimex_1216414828.Sat.Jul.19_07_00_28.AEST.2008.narrabn.c5.jpg'
p18
aS'daytimex_1244322027.Sun.Jun.07_07_00_27.AEST.2009.narrabn.c5.jpg'
p19
aS'daytimex_1299358827.Sun.Mar.06_07_00_27.AEST.2011.narrabn.c5.jpg'
p20
aS'daytimex_1218315628.Sun.Aug.10_07_00_28.AEST.2008.narrabn.c5.jpg'
p21
aS'daytimex_1216328427.Fri.Jul.18_07_00_27.AEST.2008.narrabn.c5.jpg'
p22
aS'daytimex_1377205228.Fri.Aug.23_07_00_28.AEST.2013.narrabn.c5.jpg'
p23
aS'daytimex_1280523628.Sat.Jul.31_07_00_28.AEST.2010.narrabn.c5.jpg'
p24
aS'daytimex_1180904428.Mon.Jun.04_07_00_28.AEST.2007.narrabn.c5.jpg'
p25
aS'daytimex_1367182827.Mon.Apr.29_07_00_27.AEST.2013.narrabn.c5.jpg'
p26
aS'daytimex_1362776427.Sat.Mar.09_07_00_27.AEST.2013.narrabn.c5.jpg'
p27
aS'daytimex_1206997228.Tue.Apr.01_07_00_28.AEST.2008.narrabn.c5.jpg'
p28
aS'daytimex_1183410028.Tue.Jul.03_07_00_28.AEST.2007.narrabn.c5.jpg'
p29
aS'daytimex_1271624427.Mon.Apr.19_07_00_27.AEST.2010.narrabn.c5.jpg'
p30
aS'daytimex_1362603627.Thu.Mar.07_07_00_27.AEST.2013.narrabn.c5.jpg'
p31
aS'daytimex_1115067628.Tue.May.03_07_00_28.AEST.2005.narrabn.c5.jpg'
p32
aS'daytimex_1272315628.Tue.Apr.27_07_00_28.AEST.2010.narrabn.c5.jpg'
p33
aS'daytimex_1174338027.Tue.Mar.20_07_00_27.AEST.2007.narrabn.c5.jpg'
p34
aS'daytimex_1115586027.Mon.May.09_07_00_27.AEST.2005.narrabn.c5.jpg'
p35
aS'daytimex_1115758827.Wed.May.11_07_00_27.AEST.2005.narrabn.c5.jpg'
p36
aS'daytimex_1178398828.Sun.May.06_07_00_28.AEST.2007.narrabn.c5.jpg'
p37
aS'daytimex_1285621228.Tue.Sep.28_07_00_28.AEST.2010.narrabn.c5.jpg'
p38
aS'daytimex_1129928428.Sat.Oct.22_07_00_28.AEST.2005.narrabn.c5.jpg'
p39
aS'daytimex_1339448428.Tue.Jun.12_07_00_28.AEST.2012.narrabn.c5.jpg'
p40
aS'daytimex_1243371628.Wed.May.27_07_00_28.AEST.2009.narrabn.c5.jpg'
p41
aS'daytimex_1165525227.Fri.Dec.08_07_00_27.AEST.2006.narrabn.c5.jpg'
p42
aS'daytimex_1122843628.Mon.Aug.01_07_00_28.AEST.2005.narrabn.c5.jpg'
p43
aS'daytimex_1269032427.Sat.Mar.20_07_00_27.AEST.2010.narrabn.c5.jpg'
p44
aS'daytimex_1321822828.Mon.Nov.21_07_00_28.AEST.2011.narrabn.c5.jpg'
p45
aS'daytimex_1362344426.Mon.Mar.04_07_00_26.AEST.2013.narrabn.c5.jpg'
p46
aS'daytimex_1367269226.Tue.Apr.30_07_00_26.AEST.2013.narrabn.c5.jpg'
p47
aS'daytimex_1279141227.Thu.Jul.15_07_00_27.AEST.2010.narrabn.c5.jpg'
p48
aS'daytimex_1174683628.Sat.Mar.24_07_00_28.AEST.2007.narrabn.c5.jpg'
p49
aS'daytimex_1179262828.Wed.May.16_07_00_28.AEST.2007.narrabn.c5.jpg'
p50
aS'daytimex_1205960427.Thu.Mar.20_07_00_27.AEST.2008.narrabn.c5.jpg'
p51
aS'daytimex_1160082028.Fri.Oct.06_07_00_28.AEST.2006.narrabn.c5.jpg'
p52
aS'daytimex_1176066028.Mon.Apr.09_07_00_28.AEST.2007.narrabn.c5.jpg'
p53
aS'daytimex_1278018028.Fri.Jul.02_07_00_28.AEST.2010.narrabn.c5.jpg'
p54
aS'daytimex_1393707627.Sun.Mar.02_07_00_27.AEST.2014.narrabn.c5.jpg'
p55
aS'daytimex_1285448428.Sun.Sep.26_07_00_28.AEST.2010.narrabn.c5.jpg'
p56
aS'daytimex_1210366827.Sat.May.10_07_00_27.AEST.2008.narrabn.c5.jpg'
p57
aS'daytimex_1179435627.Fri.May.18_07_00_27.AEST.2007.narrabn.c5.jpg'
p58
aS'daytimex_1164488428.Sun.Nov.26_07_00_28.AEST.2006.narrabn.c5.jpg'
p59
aS'daytimex_1114203627.Sat.Apr.23_07_00_27.AEST.2005.narrabn.c5.jpg'
p60
aS'daytimex_1192482027.Tue.Oct.16_07_00_27.AEST.2007.narrabn.c5.jpg'
p61
aS'daytimex_1320699628.Tue.Nov.08_07_00_28.AEST.2011.narrabn.c5.jpg'
p62
aS'daytimex_1421803807.Wed.Jan.21_11_30_07.AEST.2015.narrabn.c5.jpg'
p63
aS'daytimex_1192136427.Fri.Oct.12_07_00_27.AEST.2007.narrabn.c5.jpg'
p64
aS'daytimex_1210194028.Thu.May.08_07_00_28.AEST.2008.narrabn.c5.jpg'
p65
aS'daytimex_1166475628.Tue.Dec.19_07_00_28.AEST.2006.narrabn.c5.jpg'
p66
aS'daytimex_1397077227.Thu.Apr.10_07_00_27.AEST.2014.narrabn.c5.jpg'
p67
aS'daytimex_1243198828.Mon.May.25_07_00_28.AEST.2009.narrabn.c5.jpg'
p68
aS'daytimex_1206046827.Fri.Mar.21_07_00_27.AEST.2008.narrabn.c5.jpg'
p69
aS'daytimex_1215032428.Thu.Jul.03_07_00_28.AEST.2008.narrabn.c5.jpg'
p70
aS'daytimex_1095542444.Sun.Sep.19_07_20_44.AEST.2004.narrabn.c5.jpg'
p71
aS'daytimex_1220043628.Sat.Aug.30_07_00_28.AEST.2008.narrabn.c5.jpg'
p72
aS'daytimex_1305752427.Thu.May.19_07_00_27.AEST.2011.narrabn.c5.jpg'
p73
aS'daytimex_1300482028.Sat.Mar.19_07_00_28.AEST.2011.narrabn.c5.jpg'
p74
aS'daytimex_1396040427.Sat.Mar.29_07_00_27.AEST.2014.narrabn.c5.jpg'
p75
aS'daytimex_1152738027.Thu.Jul.13_07_00_27.AEST.2006.narrabn.c5.jpg'
p76
aS'daytimex_1114117228.Fri.Apr.22_07_00_28.AEST.2005.narrabn.c5.jpg'
p77
aS'daytimex_1193432428.Sat.Oct.27_07_00_28.AEST.2007.narrabn.c5.jpg'
p78
aS'daytimex_1285362027.Sat.Sep.25_07_00_27.AEST.2010.narrabn.c5.jpg'
p79
aS'daytimex_1091568045.Wed.Aug.04_07_20_45.AEST.2004.narrabn.c5.jpg'
p80
aS'daytimex_1176584427.Sun.Apr.15_07_00_27.AEST.2007.narrabn.c5.jpg'
p81
aS'daytimex_1297803627.Wed.Feb.16_07_00_27.AEST.2011.narrabn.c5.jpg'
p82
aS'daytimex_1115154028.Wed.May.04_07_00_28.AEST.2005.narrabn.c5.jpg'
p83
aS'daytimex_1210280428.Fri.May.09_07_00_28.AEST.2008.narrabn.c5.jpg'
p84
aS'daytimex_1095456045.Sat.Sep.18_07_20_45.AEST.2004.narrabn.c5.jpg'
p85
aS'daytimex_1296421228.Mon.Jan.31_07_00_28.AEST.2011.narrabn.c5.jpg'
p86
aS'daytimex_1271278827.Thu.Apr.15_07_00_27.AEST.2010.narrabn.c5.jpg'
p87
aS'daytimex_1321045227.Sat.Nov.12_07_00_27.AEST.2011.narrabn.c5.jpg'
p88
aS'daytimex_1218747627.Fri.Aug.15_07_00_27.AEST.2008.narrabn.c5.jpg'
p89
aS'daytimex_1407358807.Thu.Aug.07_07_00_07.AEST.2014.narrabn.c5.jpg'
p90
aS'daytimex_1269291628.Tue.Mar.23_07_00_28.AEST.2010.narrabn.c5.jpg'
p91
aS'daytimex_1096492844.Thu.Sep.30_07_20_44.AEST.2004.narrabn.c5.jpg'
p92
aS'daytimex_1264194027.Sat.Jan.23_07_00_27.AEST.2010.narrabn.c5.jpg'
p93
aS'daytimex_1148331627.Tue.May.23_07_00_27.AEST.2006.narrabn.c5.jpg'
p94
aS'daytimex_1280350828.Thu.Jul.29_07_00_28.AEST.2010.narrabn.c5.jpg'
p95
aS'daytimex_1358283627.Wed.Jan.16_07_00_27.AEST.2013.narrabn.c5.jpg'
p96
aS'daytimex_1156798828.Tue.Aug.29_07_00_28.AEST.2006.narrabn.c5.jpg'
p97
aS'daytimex_1218920428.Sun.Aug.17_07_00_28.AEST.2008.narrabn.c5.jpg'
p98
aS'daytimex_1269550828.Fri.Mar.26_07_00_28.AEST.2010.narrabn.c5.jpg'
p99
aS'daytimex_1253394027.Sun.Sep.20_07_00_27.AEST.2009.narrabn.c5.jpg'
p100
aS'daytimex_1159909227.Wed.Oct.04_07_00_27.AEST.2006.narrabn.c5.jpg'
p101
aS'daytimex_1266267628.Tue.Feb.16_07_00_28.AEST.2010.narrabn.c5.jpg'
p102
aS'daytimex_1313614827.Thu.Aug.18_07_00_27.AEST.2011.narrabn.c5.jpg'
p103
aS'daytimex_1383166828.Thu.Oct.31_07_00_28.AEST.2013.narrabn.c5.jpg'
p104
aS'daytimex_1368478827.Tue.May.14_07_00_27.AEST.2013.narrabn.c5.jpg'
p105
aS'daytimex_1194901228.Tue.Nov.13_07_00_28.AEST.2007.narrabn.c5.jpg'
p106
aS'daytimex_1170968427.Fri.Feb.09_07_00_27.AEST.2007.narrabn.c5.jpg'
p107
aS'daytimex_1313182827.Sat.Aug.13_07_00_27.AEST.2011.narrabn.c5.jpg'
p108
aS'daytimex_1263070827.Sun.Jan.10_07_00_27.AEST.2010.narrabn.c5.jpg'
p109
aS'daytimex_1118264428.Thu.Jun.09_07_00_28.AEST.2005.narrabn.c5.jpg'
p110
aS'daytimex_1348779627.Fri.Sep.28_07_00_27.AEST.2012.narrabn.c5.jpg'
p111
aS'daytimex_1331499627.Mon.Mar.12_07_00_27.AEST.2012.narrabn.c5.jpg'
p112
aS'daytimex_1375736428.Tue.Aug.06_07_00_28.AEST.2013.narrabn.c5.jpg'
p113
aS'daytimex_1158613228.Tue.Sep.19_07_00_28.AEST.2006.narrabn.c5.jpg'
p114
aS'daytimex_1277240427.Wed.Jun.23_07_00_27.AEST.2010.narrabn.c5.jpg'
p115
aS'daytimex_1132347628.Sat.Nov.19_07_00_28.AEST.2005.narrabn.c5.jpg'
p116
aS'daytimex_1392930028.Fri.Feb.21_07_00_28.AEST.2014.narrabn.c5.jpg'
p117
aS'daytimex_1263675627.Sun.Jan.17_07_00_27.AEST.2010.narrabn.c5.jpg'
p118
aS'daytimex_1390424427.Thu.Jan.23_07_00_27.AEST.2014.narrabn.c5.jpg'
p119
aS'daytimex_1296248427.Sat.Jan.29_07_00_27.AEST.2011.narrabn.c5.jpg'
p120
aS'daytimex_1132088427.Wed.Nov.16_07_00_27.AEST.2005.narrabn.c5.jpg'
p121
aS'daytimex_1233003628.Tue.Jan.27_07_00_28.AEST.2009.narrabn.c5.jpg'
p122
aS'daytimex_1286485227.Fri.Oct.08_07_00_27.AEST.2010.narrabn.c5.jpg'
p123
aS'daytimex_1209589228.Thu.May.01_07_00_28.AEST.2008.narrabn.c5.jpg'
p124
aS'daytimex_1246654827.Sat.Jul.04_07_00_27.AEST.2009.narrabn.c5.jpg'
p125
aS'daytimex_1136062828.Sun.Jan.01_07_00_28.AEST.2006.narrabn.c5.jpg'
p126
aS'daytimex_1105304428.Mon.Jan.10_07_00_28.AEST.2005.narrabn.c5.jpg'
p127
aS'daytimex_1170104428.Tue.Jan.30_07_00_28.AEST.2007.narrabn.c5.jpg'
p128
aS'daytimex_1100553644.Tue.Nov.16_07_20_44.AEST.2004.narrabn.c5.jpg'
p129
aS'daytimex_1230757227.Thu.Jan.01_07_00_27.AEST.2009.narrabn.c5.jpg'
p130
aS'daytimex_1237323627.Wed.Mar.18_07_00_27.AEST.2009.narrabn.c5.jpg'
p131
aS'daytimex_1382302828.Mon.Oct.21_07_00_28.AEST.2013.narrabn.c5.jpg'
p132
aS'daytimex_1336770028.Sat.May.12_07_00_28.AEST.2012.narrabn.c5.jpg'
p133
aS'daytimex_1304715627.Sat.May.07_07_00_27.AEST.2011.narrabn.c5.jpg'
p134
aS'daytimex_1113771628.Mon.Apr.18_07_00_28.AEST.2005.narrabn.c5.jpg'
p135
aS'daytimex_1344286827.Tue.Aug.07_07_00_27.AEST.2012.narrabn.c5.jpg'
p136
aS'daytimex_1332795628.Tue.Mar.27_07_00_28.AEST.2012.narrabn.c5.jpg'
p137
aS'daytimex_1166994028.Mon.Dec.25_07_00_28.AEST.2006.narrabn.c5.jpg'
p138
aS'daytimex_1346533227.Sun.Sep.02_07_00_27.AEST.2012.narrabn.c5.jpg'
p139
aS'daytimex_1257195628.Tue.Nov.03_07_00_28.AEST.2009.narrabn.c5.jpg'
p140
aS'daytimex_1277758827.Tue.Jun.29_07_00_27.AEST.2010.narrabn.c5.jpg'
p141
aS'daytimex_1104699628.Mon.Jan.03_07_00_28.AEST.2005.narrabn.c5.jpg'
p142
aS'daytimex_1369515627.Sun.May.26_07_00_27.AEST.2013.narrabn.c5.jpg'
p143
aS'daytimex_1188853227.Tue.Sep.04_07_00_27.AEST.2007.narrabn.c5.jpg'
p144
aS'daytimex_1210021227.Tue.May.06_07_00_27.AEST.2008.narrabn.c5.jpg'
p145
aS'daytimex_1106600428.Tue.Jan.25_07_00_28.AEST.2005.narrabn.c5.jpg'
p146
aS'daytimex_1308430828.Sun.Jun.19_07_00_28.AEST.2011.narrabn.c5.jpg'
p147
aS'daytimex_1093641644.Sat.Aug.28_07_20_44.AEST.2004.narrabn.c5.jpg'
p148
aS'daytimex_1277845228.Wed.Jun.30_07_00_28.AEST.2010.narrabn.c5.jpg'
p149
aS'daytimex_1290459628.Tue.Nov.23_07_00_28.AEST.2010.narrabn.c5.jpg'
p150
aS'daytimex_1239138028.Wed.Apr.08_07_00_28.AEST.2009.narrabn.c5.jpg'
p151
aS'daytimex_1103403628.Sun.Dec.19_07_00_28.AEST.2004.narrabn.c5.jpg'
p152
aS'daytimex_1232744428.Sat.Jan.24_07_00_28.AEST.2009.narrabn.c5.jpg'
p153
aS'daytimex_1164229228.Thu.Nov.23_07_00_28.AEST.2006.narrabn.c5.jpg'
p154
aS'daytimex_1130446828.Fri.Oct.28_07_00_28.AEST.2005.narrabn.c5.jpg'
p155
aS'daytimex_1132261228.Fri.Nov.18_07_00_28.AEST.2005.narrabn.c5.jpg'
p156
aS'daytimex_1413493206.Fri.Oct.17_07_00_06.AEST.2014.narrabn.c5.jpg'
p157
aS'daytimex_1366664426.Tue.Apr.23_07_00_26.AEST.2013.narrabn.c5.jpg'
p158
aS'daytimex_1102885227.Mon.Dec.13_07_00_27.AEST.2004.narrabn.c5.jpg'
p159
aS'daytimex_1094764845.Fri.Sep.10_07_20_45.AEST.2004.narrabn.c5.jpg'
p160
aS'daytimex_1307134828.Sat.Jun.04_07_00_28.AEST.2011.narrabn.c5.jpg'
p161
aS'daytimex_1289422827.Thu.Nov.11_07_00_27.AEST.2010.narrabn.c5.jpg'
p162
aS'daytimex_1168722027.Sun.Jan.14_07_00_27.AEST.2007.narrabn.c5.jpg'
p163
aS'daytimex_1166907628.Sun.Dec.24_07_00_28.AEST.2006.narrabn.c5.jpg'
p164
aS'daytimex_1130878828.Wed.Nov.02_07_00_28.AEST.2005.narrabn.c5.jpg'
p165
aS'daytimex_1349730027.Tue.Oct.09_07_00_27.AEST.2012.narrabn.c5.jpg'
p166
aS'daytimex_1106341227.Sat.Jan.22_07_00_27.AEST.2005.narrabn.c5.jpg'
p167
aS'daytimex_1194469228.Thu.Nov.08_07_00_28.AEST.2007.narrabn.c5.jpg'
p168
aS'daytimex_1223931628.Tue.Oct.14_07_00_28.AEST.2008.narrabn.c5.jpg'
p169
aS'daytimex_1289336428.Wed.Nov.10_07_00_28.AEST.2010.narrabn.c5.jpg'
p170
aS'daytimex_1259442028.Sun.Nov.29_07_00_28.AEST.2009.narrabn.c5.jpg'
p171
aS'daytimex_1275080427.Sat.May.29_07_00_27.AEST.2010.narrabn.c5.jpg'
p172
aS'daytimex_1364245227.Tue.Mar.26_07_00_27.AEST.2013.narrabn.c5.jpg'
p173
aS'daytimex_1144702827.Tue.Apr.11_07_00_27.AEST.2006.narrabn.c5.jpg'
p174
aS'daytimex_1137013242.Thu.Jan.12_07_00_42.AEST.2006.narrabn.c5.jpg'
p175
aS'daytimex_1168981228.Wed.Jan.17_07_00_28.AEST.2007.narrabn.c5.jpg'
p176
aS'daytimex_1106514027.Mon.Jan.24_07_00_27.AEST.2005.narrabn.c5.jpg'
p177
aS'daytimex_1355518826.Sat.Dec.15_07_00_26.AEST.2012.narrabn.c5.jpg'
p178
aS'daytimex_1105131627.Sat.Jan.08_07_00_27.AEST.2005.narrabn.c5.jpg'
p179
aS'daytimex_1125781227.Sun.Sep.04_07_00_27.AEST.2005.narrabn.c5.jpg'
p180
aS'daytimex_1100640044.Wed.Nov.17_07_20_44.AEST.2004.narrabn.c5.jpg'
p181
aS'daytimex_1211058028.Sun.May.18_07_00_28.AEST.2008.narrabn.c5.jpg'
p182
aS'daytimex_1422322207.Tue.Jan.27_11_30_07.AEST.2015.narrabn.c5.jpg'
p183
aS'daytimex_1189458027.Tue.Sep.11_07_00_27.AEST.2007.narrabn.c5.jpg'
p184
aS'daytimex_1311627628.Tue.Jul.26_07_00_28.AEST.2011.narrabn.c5.jpg'
p185
aS'daytimex_1367701227.Sun.May.05_07_00_27.AEST.2013.narrabn.c5.jpg'
p186
aS'daytimex_1103058027.Wed.Dec.15_07_00_27.AEST.2004.narrabn.c5.jpg'
p187
aS'daytimex_1335128427.Mon.Apr.23_07_00_27.AEST.2012.narrabn.c5.jpg'
p188
aS'daytimex_1352494827.Sat.Nov.10_07_00_27.AEST.2012.narrabn.c5.jpg'
p189
aS'daytimex_1425850207.Mon.Mar.09_07_30_07.AEST.2015.narrabn.c5.jpg'
p190
aS'daytimex_1384462828.Fri.Nov.15_07_00_28.AEST.2013.narrabn.c5.jpg'
p191
aS'daytimex_1262379627.Sat.Jan.02_07_00_27.AEST.2010.narrabn.c5.jpg'
p192
aS'daytimex_1232658027.Fri.Jan.23_07_00_27.AEST.2009.narrabn.c5.jpg'
p193
aS'daytimex_1162674028.Sun.Nov.05_07_00_28.AEST.2006.narrabn.c5.jpg'
p194
aS'daytimex_1123362028.Sun.Aug.07_07_00_28.AEST.2005.narrabn.c5.jpg'
p195
aS'daytimex_1337288428.Fri.May.18_07_00_28.AEST.2012.narrabn.c5.jpg'
p196
aS'daytimex_1389992427.Sat.Jan.18_07_00_27.AEST.2014.narrabn.c5.jpg'
p197
aS'daytimex_1119733228.Sun.Jun.26_07_00_28.AEST.2005.narrabn.c5.jpg'
p198
aS'daytimex_1327179628.Sun.Jan.22_07_00_28.AEST.2012.narrabn.c5.jpg'
p199
aS'daytimex_1344805229.Mon.Aug.13_07_00_29.AEST.2012.narrabn.c5.jpg'
p200
aS'daytimex_1105822828.Sun.Jan.16_07_00_28.AEST.2005.narrabn.c5.jpg'
p201
aS'daytimex_1199912427.Thu.Jan.10_07_00_27.AEST.2008.narrabn.c5.jpg'
p202
aS'daytimex_1390165228.Mon.Jan.20_07_00_28.AEST.2014.narrabn.c5.jpg'
p203
aS'daytimex_1363467627.Sun.Mar.17_07_00_27.AEST.2013.narrabn.c5.jpg'
p204
aS'daytimex_1200085228.Sat.Jan.12_07_00_28.AEST.2008.narrabn.c5.jpg'
p205
aS'daytimex_1144616428.Mon.Apr.10_07_00_28.AEST.2006.narrabn.c5.jpg'
p206
aS'daytimex_1199653228.Mon.Jan.07_07_00_28.AEST.2008.narrabn.c5.jpg'
p207
aS'daytimex_1365714027.Fri.Apr.12_07_00_27.AEST.2013.narrabn.c5.jpg'
p208
aS'daytimex_1129755628.Thu.Oct.20_07_00_28.AEST.2005.narrabn.c5.jpg'
p209
aS'daytimex_1200258027.Mon.Jan.14_07_00_27.AEST.2008.narrabn.c5.jpg'
p210
aS'daytimex_1362862827.Sun.Mar.10_07_00_27.AEST.2013.narrabn.c5.jpg'
p211
aS'daytimex_1364158827.Mon.Mar.25_07_00_27.AEST.2013.narrabn.c5.jpg'
p212
aS'daytimex_1238360427.Mon.Mar.30_07_00_27.AEST.2009.narrabn.c5.jpg'
p213
aS'daytimex_1363035626.Tue.Mar.12_07_00_26.AEST.2013.narrabn.c5.jpg'
p214
aS'daytimex_1199739627.Tue.Jan.08_07_00_27.AEST.2008.narrabn.c5.jpg'
p215
aS'daytimex_1359579627.Thu.Jan.31_07_00_27.AEST.2013.narrabn.c5.jpg'
p216
aS'daytimex_1202331628.Thu.Feb.07_07_00_28.AEST.2008.narrabn.c5.jpg'
p217
aS'daytimex_1169413228.Mon.Jan.22_07_00_28.AEST.2007.narrabn.c5.jpg'
p218
aS'daytimex_1098652844.Mon.Oct.25_07_20_44.AEST.2004.narrabn.c5.jpg'
p219
aS'daytimex_1199826027.Wed.Jan.09_07_00_27.AEST.2008.narrabn.c5.jpg'
p220
aS'daytimex_1364072427.Sun.Mar.24_07_00_27.AEST.2013.narrabn.c5.jpg'
p221
aS'daytimex_1364418026.Thu.Mar.28_07_00_26.AEST.2013.narrabn.c5.jpg'
p222
aS'daytimex_1364331627.Wed.Mar.27_07_00_27.AEST.2013.narrabn.c5.jpg'
p223
aS'daytimex_1307048427.Fri.Jun.03_07_00_27.AEST.2011.narrabn.c5.jpg'
p224
aS'daytimex_1365454827.Tue.Apr.09_07_00_27.AEST.2013.narrabn.c5.jpg'
p225
aS'daytimex_1102626027.Fri.Dec.10_07_00_27.AEST.2004.narrabn.c5.jpg'
p226
aS'daytimex_1098739244.Tue.Oct.26_07_20_44.AEST.2004.narrabn.c5.jpg'
p227
aS'daytimex_1365109227.Fri.Apr.05_07_00_27.AEST.2013.narrabn.c5.jpg'
p228
aS'daytimex_1363899627.Fri.Mar.22_07_00_27.AEST.2013.narrabn.c5.jpg'
p229
aS'daytimex_1129842028.Fri.Oct.21_07_00_28.AEST.2005.narrabn.c5.jpg'
p230
aS'daytimex_1199307628.Thu.Jan.03_07_00_28.AEST.2008.narrabn.c5.jpg'
p231
aS'daytimex_1161205227.Thu.Oct.19_07_00_27.AEST.2006.narrabn.c5.jpg'
p232
aS'daytimex_1098825644.Wed.Oct.27_07_20_44.AEST.2004.narrabn.c5.jpg'
p233
aS'daytimex_1141419628.Sat.Mar.04_07_00_28.AEST.2006.narrabn.c5.jpg'
p234
aS'daytimex_1366837226.Thu.Apr.25_07_00_26.AEST.2013.narrabn.c5.jpg'
p235
aS'daytimex_1364504427.Fri.Mar.29_07_00_27.AEST.2013.narrabn.c5.jpg'
p236
aS'daytimex_1199998828.Fri.Jan.11_07_00_28.AEST.2008.narrabn.c5.jpg'
p237
aS'daytimex_1363381227.Sat.Mar.16_07_00_27.AEST.2013.narrabn.c5.jpg'
p238
aS'daytimex_1363294826.Fri.Mar.15_07_00_26.AEST.2013.narrabn.c5.jpg'
p239
aS'daytimex_1366059626.Tue.Apr.16_07_00_26.AEST.2013.narrabn.c5.jpg'
p240
aS'daytimex_1304370028.Tue.May.03_07_00_28.AEST.2011.narrabn.c5.jpg'
p241
aS'daytimex_1102453228.Wed.Dec.08_07_00_28.AEST.2004.narrabn.c5.jpg'
p242
aS'daytimex_1200171628.Sun.Jan.13_07_00_28.AEST.2008.narrabn.c5.jpg'
p243
aS'daytimex_1154120427.Sat.Jul.29_07_00_27.AEST.2006.narrabn.c5.jpg'
p244
aS'daytimex_1102712427.Sat.Dec.11_07_00_27.AEST.2004.narrabn.c5.jpg'
p245
aS'daytimex_1298494828.Thu.Feb.24_07_00_28.AEST.2011.narrabn.c5.jpg'
p246
aS'daytimex_1252270827.Mon.Sep.07_07_00_27.AEST.2009.narrabn.c5.jpg'
p247
aS'daytimex_1258837227.Sun.Nov.22_07_00_27.AEST.2009.narrabn.c5.jpg'
p248
aS'daytimex_1365973226.Mon.Apr.15_07_00_26.AEST.2013.narrabn.c5.jpg'
p249
aS'daytimex_1169326827.Sun.Jan.21_07_00_27.AEST.2007.narrabn.c5.jpg'
p250
aS'daytimex_1246309228.Tue.Jun.30_07_00_28.AEST.2009.narrabn.c5.hflip.jpg'
p251
aS'daytimex_1115413227.Sat.May.07_07_00_27.AEST.2005.narrabn.c5.hflip.jpg'
p252
aS'daytimex_1244840427.Sat.Jun.13_07_00_27.AEST.2009.narrabn.c5.hflip.jpg'
p253
aS'daytimex_1178571627.Tue.May.08_07_00_27.AEST.2007.narrabn.c5.hflip.jpg'
p254
aS'daytimex_1303506028.Sat.Apr.23_07_00_28.AEST.2011.narrabn.c5.hflip.jpg'
p255
aS'daytimex_1151614827.Fri.Jun.30_07_00_27.AEST.2006.narrabn.c5.hflip.jpg'
p256
aS'daytimex_1244235628.Sat.Jun.06_07_00_28.AEST.2009.narrabn.c5.hflip.jpg'
p257
aS'daytimex_1216587627.Mon.Jul.21_07_00_27.AEST.2008.narrabn.c5.hflip.jpg'
p258
aS'daytimex_1149195628.Fri.Jun.02_07_00_28.AEST.2006.narrabn.c5.hflip.jpg'
p259
aS'daytimex_1272056427.Sat.Apr.24_07_00_27.AEST.2010.narrabn.c5.hflip.jpg'
p260
aS'daytimex_1180213228.Sun.May.27_07_00_28.AEST.2007.narrabn.c5.hflip.jpg'
p261
aS'daytimex_1152478828.Mon.Jul.10_07_00_28.AEST.2006.narrabn.c5.hflip.jpg'
p262
aS'daytimex_1152565228.Tue.Jul.11_07_00_28.AEST.2006.narrabn.c5.hflip.jpg'
p263
aS'daytimex_1179522028.Sat.May.19_07_00_28.AEST.2007.narrabn.c5.hflip.jpg'
p264
aS'daytimex_1244494828.Tue.Jun.09_07_00_28.AEST.2009.narrabn.c5.hflip.jpg'
p265
aS'daytimex_1115326827.Fri.May.06_07_00_27.AEST.2005.narrabn.c5.hflip.jpg'
p266
aS'daytimex_1218574827.Wed.Aug.13_07_00_27.AEST.2008.narrabn.c5.hflip.jpg'
p267
aS'daytimex_1216414828.Sat.Jul.19_07_00_28.AEST.2008.narrabn.c5.hflip.jpg'
p268
aS'daytimex_1244322027.Sun.Jun.07_07_00_27.AEST.2009.narrabn.c5.hflip.jpg'
p269
aS'daytimex_1299358827.Sun.Mar.06_07_00_27.AEST.2011.narrabn.c5.hflip.jpg'
p270
aS'daytimex_1218315628.Sun.Aug.10_07_00_28.AEST.2008.narrabn.c5.hflip.jpg'
p271
aS'daytimex_1216328427.Fri.Jul.18_07_00_27.AEST.2008.narrabn.c5.hflip.jpg'
p272
aS'daytimex_1377205228.Fri.Aug.23_07_00_28.AEST.2013.narrabn.c5.hflip.jpg'
p273
aS'daytimex_1280523628.Sat.Jul.31_07_00_28.AEST.2010.narrabn.c5.hflip.jpg'
p274
aS'daytimex_1180904428.Mon.Jun.04_07_00_28.AEST.2007.narrabn.c5.hflip.jpg'
p275
aS'daytimex_1367182827.Mon.Apr.29_07_00_27.AEST.2013.narrabn.c5.hflip.jpg'
p276
aS'daytimex_1362776427.Sat.Mar.09_07_00_27.AEST.2013.narrabn.c5.hflip.jpg'
p277
aS'daytimex_1206997228.Tue.Apr.01_07_00_28.AEST.2008.narrabn.c5.hflip.jpg'
p278
aS'daytimex_1183410028.Tue.Jul.03_07_00_28.AEST.2007.narrabn.c5.hflip.jpg'
p279
aS'daytimex_1271624427.Mon.Apr.19_07_00_27.AEST.2010.narrabn.c5.hflip.jpg'
p280
aS'daytimex_1362603627.Thu.Mar.07_07_00_27.AEST.2013.narrabn.c5.hflip.jpg'
p281
aS'daytimex_1115067628.Tue.May.03_07_00_28.AEST.2005.narrabn.c5.hflip.jpg'
p282
aS'daytimex_1272315628.Tue.Apr.27_07_00_28.AEST.2010.narrabn.c5.hflip.jpg'
p283
aS'daytimex_1174338027.Tue.Mar.20_07_00_27.AEST.2007.narrabn.c5.hflip.jpg'
p284
aS'daytimex_1115586027.Mon.May.09_07_00_27.AEST.2005.narrabn.c5.hflip.jpg'
p285
aS'daytimex_1115758827.Wed.May.11_07_00_27.AEST.2005.narrabn.c5.hflip.jpg'
p286
aS'daytimex_1178398828.Sun.May.06_07_00_28.AEST.2007.narrabn.c5.hflip.jpg'
p287
aS'daytimex_1285621228.Tue.Sep.28_07_00_28.AEST.2010.narrabn.c5.hflip.jpg'
p288
aS'daytimex_1129928428.Sat.Oct.22_07_00_28.AEST.2005.narrabn.c5.hflip.jpg'
p289
aS'daytimex_1339448428.Tue.Jun.12_07_00_28.AEST.2012.narrabn.c5.hflip.jpg'
p290
aS'daytimex_1243371628.Wed.May.27_07_00_28.AEST.2009.narrabn.c5.hflip.jpg'
p291
aS'daytimex_1165525227.Fri.Dec.08_07_00_27.AEST.2006.narrabn.c5.hflip.jpg'
p292
aS'daytimex_1122843628.Mon.Aug.01_07_00_28.AEST.2005.narrabn.c5.hflip.jpg'
p293
aS'daytimex_1269032427.Sat.Mar.20_07_00_27.AEST.2010.narrabn.c5.hflip.jpg'
p294
aS'daytimex_1321822828.Mon.Nov.21_07_00_28.AEST.2011.narrabn.c5.hflip.jpg'
p295
aS'daytimex_1362344426.Mon.Mar.04_07_00_26.AEST.2013.narrabn.c5.hflip.jpg'
p296
aS'daytimex_1367269226.Tue.Apr.30_07_00_26.AEST.2013.narrabn.c5.hflip.jpg'
p297
aS'daytimex_1279141227.Thu.Jul.15_07_00_27.AEST.2010.narrabn.c5.hflip.jpg'
p298
aS'daytimex_1174683628.Sat.Mar.24_07_00_28.AEST.2007.narrabn.c5.hflip.jpg'
p299
aS'daytimex_1179262828.Wed.May.16_07_00_28.AEST.2007.narrabn.c5.hflip.jpg'
p300
aS'daytimex_1205960427.Thu.Mar.20_07_00_27.AEST.2008.narrabn.c5.hflip.jpg'
p301
aS'daytimex_1160082028.Fri.Oct.06_07_00_28.AEST.2006.narrabn.c5.hflip.jpg'
p302
aS'daytimex_1176066028.Mon.Apr.09_07_00_28.AEST.2007.narrabn.c5.hflip.jpg'
p303
aS'daytimex_1278018028.Fri.Jul.02_07_00_28.AEST.2010.narrabn.c5.hflip.jpg'
p304
aS'daytimex_1393707627.Sun.Mar.02_07_00_27.AEST.2014.narrabn.c5.hflip.jpg'
p305
aS'daytimex_1285448428.Sun.Sep.26_07_00_28.AEST.2010.narrabn.c5.hflip.jpg'
p306
aS'daytimex_1210366827.Sat.May.10_07_00_27.AEST.2008.narrabn.c5.hflip.jpg'
p307
aS'daytimex_1179435627.Fri.May.18_07_00_27.AEST.2007.narrabn.c5.hflip.jpg'
p308
aS'daytimex_1164488428.Sun.Nov.26_07_00_28.AEST.2006.narrabn.c5.hflip.jpg'
p309
aS'daytimex_1114203627.Sat.Apr.23_07_00_27.AEST.2005.narrabn.c5.hflip.jpg'
p310
aS'daytimex_1192482027.Tue.Oct.16_07_00_27.AEST.2007.narrabn.c5.hflip.jpg'
p311
aS'daytimex_1320699628.Tue.Nov.08_07_00_28.AEST.2011.narrabn.c5.hflip.jpg'
p312
aS'daytimex_1421803807.Wed.Jan.21_11_30_07.AEST.2015.narrabn.c5.hflip.jpg'
p313
aS'daytimex_1192136427.Fri.Oct.12_07_00_27.AEST.2007.narrabn.c5.hflip.jpg'
p314
aS'daytimex_1210194028.Thu.May.08_07_00_28.AEST.2008.narrabn.c5.hflip.jpg'
p315
aS'daytimex_1166475628.Tue.Dec.19_07_00_28.AEST.2006.narrabn.c5.hflip.jpg'
p316
aS'daytimex_1397077227.Thu.Apr.10_07_00_27.AEST.2014.narrabn.c5.hflip.jpg'
p317
aS'daytimex_1243198828.Mon.May.25_07_00_28.AEST.2009.narrabn.c5.hflip.jpg'
p318
aS'daytimex_1206046827.Fri.Mar.21_07_00_27.AEST.2008.narrabn.c5.hflip.jpg'
p319
aS'daytimex_1215032428.Thu.Jul.03_07_00_28.AEST.2008.narrabn.c5.hflip.jpg'
p320
aS'daytimex_1095542444.Sun.Sep.19_07_20_44.AEST.2004.narrabn.c5.hflip.jpg'
p321
aS'daytimex_1220043628.Sat.Aug.30_07_00_28.AEST.2008.narrabn.c5.hflip.jpg'
p322
aS'daytimex_1305752427.Thu.May.19_07_00_27.AEST.2011.narrabn.c5.hflip.jpg'
p323
aS'daytimex_1300482028.Sat.Mar.19_07_00_28.AEST.2011.narrabn.c5.hflip.jpg'
p324
aS'daytimex_1396040427.Sat.Mar.29_07_00_27.AEST.2014.narrabn.c5.hflip.jpg'
p325
aS'daytimex_1152738027.Thu.Jul.13_07_00_27.AEST.2006.narrabn.c5.hflip.jpg'
p326
aS'daytimex_1114117228.Fri.Apr.22_07_00_28.AEST.2005.narrabn.c5.hflip.jpg'
p327
aS'daytimex_1193432428.Sat.Oct.27_07_00_28.AEST.2007.narrabn.c5.hflip.jpg'
p328
aS'daytimex_1285362027.Sat.Sep.25_07_00_27.AEST.2010.narrabn.c5.hflip.jpg'
p329
aS'daytimex_1091568045.Wed.Aug.04_07_20_45.AEST.2004.narrabn.c5.hflip.jpg'
p330
aS'daytimex_1176584427.Sun.Apr.15_07_00_27.AEST.2007.narrabn.c5.hflip.jpg'
p331
aS'daytimex_1297803627.Wed.Feb.16_07_00_27.AEST.2011.narrabn.c5.hflip.jpg'
p332
aS'daytimex_1115154028.Wed.May.04_07_00_28.AEST.2005.narrabn.c5.hflip.jpg'
p333
aS'daytimex_1210280428.Fri.May.09_07_00_28.AEST.2008.narrabn.c5.hflip.jpg'
p334
aS'daytimex_1095456045.Sat.Sep.18_07_20_45.AEST.2004.narrabn.c5.hflip.jpg'
p335
aS'daytimex_1296421228.Mon.Jan.31_07_00_28.AEST.2011.narrabn.c5.hflip.jpg'
p336
aS'daytimex_1271278827.Thu.Apr.15_07_00_27.AEST.2010.narrabn.c5.hflip.jpg'
p337
aS'daytimex_1321045227.Sat.Nov.12_07_00_27.AEST.2011.narrabn.c5.hflip.jpg'
p338
aS'daytimex_1218747627.Fri.Aug.15_07_00_27.AEST.2008.narrabn.c5.hflip.jpg'
p339
aS'daytimex_1407358807.Thu.Aug.07_07_00_07.AEST.2014.narrabn.c5.hflip.jpg'
p340
aS'daytimex_1269291628.Tue.Mar.23_07_00_28.AEST.2010.narrabn.c5.hflip.jpg'
p341
aS'daytimex_1096492844.Thu.Sep.30_07_20_44.AEST.2004.narrabn.c5.hflip.jpg'
p342
aS'daytimex_1264194027.Sat.Jan.23_07_00_27.AEST.2010.narrabn.c5.hflip.jpg'
p343
aS'daytimex_1148331627.Tue.May.23_07_00_27.AEST.2006.narrabn.c5.hflip.jpg'
p344
aS'daytimex_1280350828.Thu.Jul.29_07_00_28.AEST.2010.narrabn.c5.hflip.jpg'
p345
aS'daytimex_1358283627.Wed.Jan.16_07_00_27.AEST.2013.narrabn.c5.hflip.jpg'
p346
aS'daytimex_1156798828.Tue.Aug.29_07_00_28.AEST.2006.narrabn.c5.hflip.jpg'
p347
aS'daytimex_1218920428.Sun.Aug.17_07_00_28.AEST.2008.narrabn.c5.hflip.jpg'
p348
aS'daytimex_1269550828.Fri.Mar.26_07_00_28.AEST.2010.narrabn.c5.hflip.jpg'
p349
aS'daytimex_1253394027.Sun.Sep.20_07_00_27.AEST.2009.narrabn.c5.hflip.jpg'
p350
aS'daytimex_1159909227.Wed.Oct.04_07_00_27.AEST.2006.narrabn.c5.hflip.jpg'
p351
aS'daytimex_1266267628.Tue.Feb.16_07_00_28.AEST.2010.narrabn.c5.hflip.jpg'
p352
aS'daytimex_1313614827.Thu.Aug.18_07_00_27.AEST.2011.narrabn.c5.hflip.jpg'
p353
aS'daytimex_1383166828.Thu.Oct.31_07_00_28.AEST.2013.narrabn.c5.hflip.jpg'
p354
aS'daytimex_1368478827.Tue.May.14_07_00_27.AEST.2013.narrabn.c5.hflip.jpg'
p355
aS'daytimex_1194901228.Tue.Nov.13_07_00_28.AEST.2007.narrabn.c5.hflip.jpg'
p356
aS'daytimex_1170968427.Fri.Feb.09_07_00_27.AEST.2007.narrabn.c5.hflip.jpg'
p357
aS'daytimex_1313182827.Sat.Aug.13_07_00_27.AEST.2011.narrabn.c5.hflip.jpg'
p358
aS'daytimex_1263070827.Sun.Jan.10_07_00_27.AEST.2010.narrabn.c5.hflip.jpg'
p359
aS'daytimex_1118264428.Thu.Jun.09_07_00_28.AEST.2005.narrabn.c5.hflip.jpg'
p360
aS'daytimex_1348779627.Fri.Sep.28_07_00_27.AEST.2012.narrabn.c5.hflip.jpg'
p361
aS'daytimex_1331499627.Mon.Mar.12_07_00_27.AEST.2012.narrabn.c5.hflip.jpg'
p362
aS'daytimex_1375736428.Tue.Aug.06_07_00_28.AEST.2013.narrabn.c5.hflip.jpg'
p363
aS'daytimex_1158613228.Tue.Sep.19_07_00_28.AEST.2006.narrabn.c5.hflip.jpg'
p364
aS'daytimex_1277240427.Wed.Jun.23_07_00_27.AEST.2010.narrabn.c5.hflip.jpg'
p365
aS'daytimex_1132347628.Sat.Nov.19_07_00_28.AEST.2005.narrabn.c5.hflip.jpg'
p366
aS'daytimex_1392930028.Fri.Feb.21_07_00_28.AEST.2014.narrabn.c5.hflip.jpg'
p367
aS'daytimex_1263675627.Sun.Jan.17_07_00_27.AEST.2010.narrabn.c5.hflip.jpg'
p368
aS'daytimex_1390424427.Thu.Jan.23_07_00_27.AEST.2014.narrabn.c5.hflip.jpg'
p369
aS'daytimex_1296248427.Sat.Jan.29_07_00_27.AEST.2011.narrabn.c5.hflip.jpg'
p370
aS'daytimex_1132088427.Wed.Nov.16_07_00_27.AEST.2005.narrabn.c5.hflip.jpg'
p371
aS'daytimex_1233003628.Tue.Jan.27_07_00_28.AEST.2009.narrabn.c5.hflip.jpg'
p372
aS'daytimex_1286485227.Fri.Oct.08_07_00_27.AEST.2010.narrabn.c5.hflip.jpg'
p373
aS'daytimex_1209589228.Thu.May.01_07_00_28.AEST.2008.narrabn.c5.hflip.jpg'
p374
aS'daytimex_1246654827.Sat.Jul.04_07_00_27.AEST.2009.narrabn.c5.hflip.jpg'
p375
aS'daytimex_1136062828.Sun.Jan.01_07_00_28.AEST.2006.narrabn.c5.hflip.jpg'
p376
aS'daytimex_1105304428.Mon.Jan.10_07_00_28.AEST.2005.narrabn.c5.hflip.jpg'
p377
aS'daytimex_1170104428.Tue.Jan.30_07_00_28.AEST.2007.narrabn.c5.hflip.jpg'
p378
aS'daytimex_1100553644.Tue.Nov.16_07_20_44.AEST.2004.narrabn.c5.hflip.jpg'
p379
aS'daytimex_1230757227.Thu.Jan.01_07_00_27.AEST.2009.narrabn.c5.hflip.jpg'
p380
aS'daytimex_1237323627.Wed.Mar.18_07_00_27.AEST.2009.narrabn.c5.hflip.jpg'
p381
aS'daytimex_1382302828.Mon.Oct.21_07_00_28.AEST.2013.narrabn.c5.hflip.jpg'
p382
aS'daytimex_1336770028.Sat.May.12_07_00_28.AEST.2012.narrabn.c5.hflip.jpg'
p383
aS'daytimex_1304715627.Sat.May.07_07_00_27.AEST.2011.narrabn.c5.hflip.jpg'
p384
aS'daytimex_1113771628.Mon.Apr.18_07_00_28.AEST.2005.narrabn.c5.hflip.jpg'
p385
aS'daytimex_1344286827.Tue.Aug.07_07_00_27.AEST.2012.narrabn.c5.hflip.jpg'
p386
aS'daytimex_1332795628.Tue.Mar.27_07_00_28.AEST.2012.narrabn.c5.hflip.jpg'
p387
aS'daytimex_1166994028.Mon.Dec.25_07_00_28.AEST.2006.narrabn.c5.hflip.jpg'
p388
aS'daytimex_1346533227.Sun.Sep.02_07_00_27.AEST.2012.narrabn.c5.hflip.jpg'
p389
aS'daytimex_1257195628.Tue.Nov.03_07_00_28.AEST.2009.narrabn.c5.hflip.jpg'
p390
aS'daytimex_1277758827.Tue.Jun.29_07_00_27.AEST.2010.narrabn.c5.hflip.jpg'
p391
aS'daytimex_1104699628.Mon.Jan.03_07_00_28.AEST.2005.narrabn.c5.hflip.jpg'
p392
aS'daytimex_1369515627.Sun.May.26_07_00_27.AEST.2013.narrabn.c5.hflip.jpg'
p393
aS'daytimex_1188853227.Tue.Sep.04_07_00_27.AEST.2007.narrabn.c5.hflip.jpg'
p394
aS'daytimex_1210021227.Tue.May.06_07_00_27.AEST.2008.narrabn.c5.hflip.jpg'
p395
aS'daytimex_1106600428.Tue.Jan.25_07_00_28.AEST.2005.narrabn.c5.hflip.jpg'
p396
aS'daytimex_1308430828.Sun.Jun.19_07_00_28.AEST.2011.narrabn.c5.hflip.jpg'
p397
aS'daytimex_1093641644.Sat.Aug.28_07_20_44.AEST.2004.narrabn.c5.hflip.jpg'
p398
aS'daytimex_1277845228.Wed.Jun.30_07_00_28.AEST.2010.narrabn.c5.hflip.jpg'
p399
aS'daytimex_1290459628.Tue.Nov.23_07_00_28.AEST.2010.narrabn.c5.hflip.jpg'
p400
aS'daytimex_1239138028.Wed.Apr.08_07_00_28.AEST.2009.narrabn.c5.hflip.jpg'
p401
aS'daytimex_1103403628.Sun.Dec.19_07_00_28.AEST.2004.narrabn.c5.hflip.jpg'
p402
aS'daytimex_1232744428.Sat.Jan.24_07_00_28.AEST.2009.narrabn.c5.hflip.jpg'
p403
aS'daytimex_1164229228.Thu.Nov.23_07_00_28.AEST.2006.narrabn.c5.hflip.jpg'
p404
aS'daytimex_1130446828.Fri.Oct.28_07_00_28.AEST.2005.narrabn.c5.hflip.jpg'
p405
aS'daytimex_1132261228.Fri.Nov.18_07_00_28.AEST.2005.narrabn.c5.hflip.jpg'
p406
aS'daytimex_1413493206.Fri.Oct.17_07_00_06.AEST.2014.narrabn.c5.hflip.jpg'
p407
aS'daytimex_1366664426.Tue.Apr.23_07_00_26.AEST.2013.narrabn.c5.hflip.jpg'
p408
aS'daytimex_1102885227.Mon.Dec.13_07_00_27.AEST.2004.narrabn.c5.hflip.jpg'
p409
aS'daytimex_1094764845.Fri.Sep.10_07_20_45.AEST.2004.narrabn.c5.hflip.jpg'
p410
aS'daytimex_1307134828.Sat.Jun.04_07_00_28.AEST.2011.narrabn.c5.hflip.jpg'
p411
aS'daytimex_1289422827.Thu.Nov.11_07_00_27.AEST.2010.narrabn.c5.hflip.jpg'
p412
aS'daytimex_1168722027.Sun.Jan.14_07_00_27.AEST.2007.narrabn.c5.hflip.jpg'
p413
aS'daytimex_1166907628.Sun.Dec.24_07_00_28.AEST.2006.narrabn.c5.hflip.jpg'
p414
aS'daytimex_1130878828.Wed.Nov.02_07_00_28.AEST.2005.narrabn.c5.hflip.jpg'
p415
aS'daytimex_1349730027.Tue.Oct.09_07_00_27.AEST.2012.narrabn.c5.hflip.jpg'
p416
aS'daytimex_1106341227.Sat.Jan.22_07_00_27.AEST.2005.narrabn.c5.hflip.jpg'
p417
aS'daytimex_1194469228.Thu.Nov.08_07_00_28.AEST.2007.narrabn.c5.hflip.jpg'
p418
aS'daytimex_1223931628.Tue.Oct.14_07_00_28.AEST.2008.narrabn.c5.hflip.jpg'
p419
aS'daytimex_1289336428.Wed.Nov.10_07_00_28.AEST.2010.narrabn.c5.hflip.jpg'
p420
aS'daytimex_1259442028.Sun.Nov.29_07_00_28.AEST.2009.narrabn.c5.hflip.jpg'
p421
aS'daytimex_1275080427.Sat.May.29_07_00_27.AEST.2010.narrabn.c5.hflip.jpg'
p422
aS'daytimex_1364245227.Tue.Mar.26_07_00_27.AEST.2013.narrabn.c5.hflip.jpg'
p423
aS'daytimex_1144702827.Tue.Apr.11_07_00_27.AEST.2006.narrabn.c5.hflip.jpg'
p424
aS'daytimex_1137013242.Thu.Jan.12_07_00_42.AEST.2006.narrabn.c5.hflip.jpg'
p425
aS'daytimex_1168981228.Wed.Jan.17_07_00_28.AEST.2007.narrabn.c5.hflip.jpg'
p426
aS'daytimex_1106514027.Mon.Jan.24_07_00_27.AEST.2005.narrabn.c5.hflip.jpg'
p427
aS'daytimex_1355518826.Sat.Dec.15_07_00_26.AEST.2012.narrabn.c5.hflip.jpg'
p428
aS'daytimex_1105131627.Sat.Jan.08_07_00_27.AEST.2005.narrabn.c5.hflip.jpg'
p429
aS'daytimex_1125781227.Sun.Sep.04_07_00_27.AEST.2005.narrabn.c5.hflip.jpg'
p430
aS'daytimex_1100640044.Wed.Nov.17_07_20_44.AEST.2004.narrabn.c5.hflip.jpg'
p431
aS'daytimex_1211058028.Sun.May.18_07_00_28.AEST.2008.narrabn.c5.hflip.jpg'
p432
aS'daytimex_1422322207.Tue.Jan.27_11_30_07.AEST.2015.narrabn.c5.hflip.jpg'
p433
aS'daytimex_1189458027.Tue.Sep.11_07_00_27.AEST.2007.narrabn.c5.hflip.jpg'
p434
aS'daytimex_1311627628.Tue.Jul.26_07_00_28.AEST.2011.narrabn.c5.hflip.jpg'
p435
aS'daytimex_1367701227.Sun.May.05_07_00_27.AEST.2013.narrabn.c5.hflip.jpg'
p436
aS'daytimex_1103058027.Wed.Dec.15_07_00_27.AEST.2004.narrabn.c5.hflip.jpg'
p437
aS'daytimex_1335128427.Mon.Apr.23_07_00_27.AEST.2012.narrabn.c5.hflip.jpg'
p438
aS'daytimex_1352494827.Sat.Nov.10_07_00_27.AEST.2012.narrabn.c5.hflip.jpg'
p439
aS'daytimex_1425850207.Mon.Mar.09_07_30_07.AEST.2015.narrabn.c5.hflip.jpg'
p440
aS'daytimex_1384462828.Fri.Nov.15_07_00_28.AEST.2013.narrabn.c5.hflip.jpg'
p441
aS'daytimex_1262379627.Sat.Jan.02_07_00_27.AEST.2010.narrabn.c5.hflip.jpg'
p442
aS'daytimex_1232658027.Fri.Jan.23_07_00_27.AEST.2009.narrabn.c5.hflip.jpg'
p443
aS'daytimex_1162674028.Sun.Nov.05_07_00_28.AEST.2006.narrabn.c5.hflip.jpg'
p444
aS'daytimex_1123362028.Sun.Aug.07_07_00_28.AEST.2005.narrabn.c5.hflip.jpg'
p445
aS'daytimex_1337288428.Fri.May.18_07_00_28.AEST.2012.narrabn.c5.hflip.jpg'
p446
aS'daytimex_1389992427.Sat.Jan.18_07_00_27.AEST.2014.narrabn.c5.hflip.jpg'
p447
aS'daytimex_1119733228.Sun.Jun.26_07_00_28.AEST.2005.narrabn.c5.hflip.jpg'
p448
aS'daytimex_1327179628.Sun.Jan.22_07_00_28.AEST.2012.narrabn.c5.hflip.jpg'
p449
aS'daytimex_1344805229.Mon.Aug.13_07_00_29.AEST.2012.narrabn.c5.hflip.jpg'
p450
aS'daytimex_1105822828.Sun.Jan.16_07_00_28.AEST.2005.narrabn.c5.hflip.jpg'
p451
aS'daytimex_1199912427.Thu.Jan.10_07_00_27.AEST.2008.narrabn.c5.hflip.jpg'
p452
aS'daytimex_1390165228.Mon.Jan.20_07_00_28.AEST.2014.narrabn.c5.hflip.jpg'
p453
aS'daytimex_1363467627.Sun.Mar.17_07_00_27.AEST.2013.narrabn.c5.hflip.jpg'
p454
aS'daytimex_1200085228.Sat.Jan.12_07_00_28.AEST.2008.narrabn.c5.hflip.jpg'
p455
aS'daytimex_1144616428.Mon.Apr.10_07_00_28.AEST.2006.narrabn.c5.hflip.jpg'
p456
aS'daytimex_1199653228.Mon.Jan.07_07_00_28.AEST.2008.narrabn.c5.hflip.jpg'
p457
aS'daytimex_1365714027.Fri.Apr.12_07_00_27.AEST.2013.narrabn.c5.hflip.jpg'
p458
aS'daytimex_1129755628.Thu.Oct.20_07_00_28.AEST.2005.narrabn.c5.hflip.jpg'
p459
aS'daytimex_1200258027.Mon.Jan.14_07_00_27.AEST.2008.narrabn.c5.hflip.jpg'
p460
aS'daytimex_1362862827.Sun.Mar.10_07_00_27.AEST.2013.narrabn.c5.hflip.jpg'
p461
aS'daytimex_1364158827.Mon.Mar.25_07_00_27.AEST.2013.narrabn.c5.hflip.jpg'
p462
aS'daytimex_1238360427.Mon.Mar.30_07_00_27.AEST.2009.narrabn.c5.hflip.jpg'
p463
aS'daytimex_1363035626.Tue.Mar.12_07_00_26.AEST.2013.narrabn.c5.hflip.jpg'
p464
aS'daytimex_1199739627.Tue.Jan.08_07_00_27.AEST.2008.narrabn.c5.hflip.jpg'
p465
aS'daytimex_1359579627.Thu.Jan.31_07_00_27.AEST.2013.narrabn.c5.hflip.jpg'
p466
aS'daytimex_1202331628.Thu.Feb.07_07_00_28.AEST.2008.narrabn.c5.hflip.jpg'
p467
aS'daytimex_1169413228.Mon.Jan.22_07_00_28.AEST.2007.narrabn.c5.hflip.jpg'
p468
aS'daytimex_1098652844.Mon.Oct.25_07_20_44.AEST.2004.narrabn.c5.hflip.jpg'
p469
aS'daytimex_1199826027.Wed.Jan.09_07_00_27.AEST.2008.narrabn.c5.hflip.jpg'
p470
aS'daytimex_1364072427.Sun.Mar.24_07_00_27.AEST.2013.narrabn.c5.hflip.jpg'
p471
aS'daytimex_1364418026.Thu.Mar.28_07_00_26.AEST.2013.narrabn.c5.hflip.jpg'
p472
aS'daytimex_1364331627.Wed.Mar.27_07_00_27.AEST.2013.narrabn.c5.hflip.jpg'
p473
aS'daytimex_1307048427.Fri.Jun.03_07_00_27.AEST.2011.narrabn.c5.hflip.jpg'
p474
aS'daytimex_1365454827.Tue.Apr.09_07_00_27.AEST.2013.narrabn.c5.hflip.jpg'
p475
aS'daytimex_1102626027.Fri.Dec.10_07_00_27.AEST.2004.narrabn.c5.hflip.jpg'
p476
aS'daytimex_1098739244.Tue.Oct.26_07_20_44.AEST.2004.narrabn.c5.hflip.jpg'
p477
aS'daytimex_1365109227.Fri.Apr.05_07_00_27.AEST.2013.narrabn.c5.hflip.jpg'
p478
aS'daytimex_1363899627.Fri.Mar.22_07_00_27.AEST.2013.narrabn.c5.hflip.jpg'
p479
aS'daytimex_1129842028.Fri.Oct.21_07_00_28.AEST.2005.narrabn.c5.hflip.jpg'
p480
aS'daytimex_1199307628.Thu.Jan.03_07_00_28.AEST.2008.narrabn.c5.hflip.jpg'
p481
aS'daytimex_1161205227.Thu.Oct.19_07_00_27.AEST.2006.narrabn.c5.hflip.jpg'
p482
aS'daytimex_1098825644.Wed.Oct.27_07_20_44.AEST.2004.narrabn.c5.hflip.jpg'
p483
aS'daytimex_1141419628.Sat.Mar.04_07_00_28.AEST.2006.narrabn.c5.hflip.jpg'
p484
aS'daytimex_1366837226.Thu.Apr.25_07_00_26.AEST.2013.narrabn.c5.hflip.jpg'
p485
aS'daytimex_1364504427.Fri.Mar.29_07_00_27.AEST.2013.narrabn.c5.hflip.jpg'
p486
aS'daytimex_1199998828.Fri.Jan.11_07_00_28.AEST.2008.narrabn.c5.hflip.jpg'
p487
aS'daytimex_1363381227.Sat.Mar.16_07_00_27.AEST.2013.narrabn.c5.hflip.jpg'
p488
aS'daytimex_1363294826.Fri.Mar.15_07_00_26.AEST.2013.narrabn.c5.hflip.jpg'
p489
aS'daytimex_1366059626.Tue.Apr.16_07_00_26.AEST.2013.narrabn.c5.hflip.jpg'
p490
aS'daytimex_1304370028.Tue.May.03_07_00_28.AEST.2011.narrabn.c5.hflip.jpg'
p491
aS'daytimex_1102453228.Wed.Dec.08_07_00_28.AEST.2004.narrabn.c5.hflip.jpg'
p492
aS'daytimex_1200171628.Sun.Jan.13_07_00_28.AEST.2008.narrabn.c5.hflip.jpg'
p493
aS'daytimex_1154120427.Sat.Jul.29_07_00_27.AEST.2006.narrabn.c5.hflip.jpg'
p494
aS'daytimex_1102712427.Sat.Dec.11_07_00_27.AEST.2004.narrabn.c5.hflip.jpg'
p495
aS'daytimex_1298494828.Thu.Feb.24_07_00_28.AEST.2011.narrabn.c5.hflip.jpg'
p496
aS'daytimex_1252270827.Mon.Sep.07_07_00_27.AEST.2009.narrabn.c5.hflip.jpg'
p497
aS'daytimex_1258837227.Sun.Nov.22_07_00_27.AEST.2009.narrabn.c5.hflip.jpg'
p498
aS'daytimex_1365973226.Mon.Apr.15_07_00_26.AEST.2013.narrabn.c5.hflip.jpg'
p499
aS'daytimex_1169326827.Sun.Jan.21_07_00_27.AEST.2007.narrabn.c5.hflip.jpg'
p500
aS'daytimex_1246309228.Tue.Jun.30_07_00_28.AEST.2009.narrabn.c5.vflip.jpg'
p501
aS'daytimex_1115413227.Sat.May.07_07_00_27.AEST.2005.narrabn.c5.vflip.jpg'
p502
aS'daytimex_1244840427.Sat.Jun.13_07_00_27.AEST.2009.narrabn.c5.vflip.jpg'
p503
aS'daytimex_1178571627.Tue.May.08_07_00_27.AEST.2007.narrabn.c5.vflip.jpg'
p504
aS'daytimex_1303506028.Sat.Apr.23_07_00_28.AEST.2011.narrabn.c5.vflip.jpg'
p505
aS'daytimex_1151614827.Fri.Jun.30_07_00_27.AEST.2006.narrabn.c5.vflip.jpg'
p506
aS'daytimex_1244235628.Sat.Jun.06_07_00_28.AEST.2009.narrabn.c5.vflip.jpg'
p507
aS'daytimex_1216587627.Mon.Jul.21_07_00_27.AEST.2008.narrabn.c5.vflip.jpg'
p508
aS'daytimex_1149195628.Fri.Jun.02_07_00_28.AEST.2006.narrabn.c5.vflip.jpg'
p509
aS'daytimex_1272056427.Sat.Apr.24_07_00_27.AEST.2010.narrabn.c5.vflip.jpg'
p510
aS'daytimex_1180213228.Sun.May.27_07_00_28.AEST.2007.narrabn.c5.vflip.jpg'
p511
aS'daytimex_1152478828.Mon.Jul.10_07_00_28.AEST.2006.narrabn.c5.vflip.jpg'
p512
aS'daytimex_1152565228.Tue.Jul.11_07_00_28.AEST.2006.narrabn.c5.vflip.jpg'
p513
aS'daytimex_1179522028.Sat.May.19_07_00_28.AEST.2007.narrabn.c5.vflip.jpg'
p514
aS'daytimex_1244494828.Tue.Jun.09_07_00_28.AEST.2009.narrabn.c5.vflip.jpg'
p515
aS'daytimex_1115326827.Fri.May.06_07_00_27.AEST.2005.narrabn.c5.vflip.jpg'
p516
aS'daytimex_1218574827.Wed.Aug.13_07_00_27.AEST.2008.narrabn.c5.vflip.jpg'
p517
aS'daytimex_1216414828.Sat.Jul.19_07_00_28.AEST.2008.narrabn.c5.vflip.jpg'
p518
aS'daytimex_1244322027.Sun.Jun.07_07_00_27.AEST.2009.narrabn.c5.vflip.jpg'
p519
aS'daytimex_1299358827.Sun.Mar.06_07_00_27.AEST.2011.narrabn.c5.vflip.jpg'
p520
aS'daytimex_1218315628.Sun.Aug.10_07_00_28.AEST.2008.narrabn.c5.vflip.jpg'
p521
aS'daytimex_1216328427.Fri.Jul.18_07_00_27.AEST.2008.narrabn.c5.vflip.jpg'
p522
aS'daytimex_1377205228.Fri.Aug.23_07_00_28.AEST.2013.narrabn.c5.vflip.jpg'
p523
aS'daytimex_1280523628.Sat.Jul.31_07_00_28.AEST.2010.narrabn.c5.vflip.jpg'
p524
aS'daytimex_1180904428.Mon.Jun.04_07_00_28.AEST.2007.narrabn.c5.vflip.jpg'
p525
aS'daytimex_1367182827.Mon.Apr.29_07_00_27.AEST.2013.narrabn.c5.vflip.jpg'
p526
aS'daytimex_1362776427.Sat.Mar.09_07_00_27.AEST.2013.narrabn.c5.vflip.jpg'
p527
aS'daytimex_1206997228.Tue.Apr.01_07_00_28.AEST.2008.narrabn.c5.vflip.jpg'
p528
aS'daytimex_1183410028.Tue.Jul.03_07_00_28.AEST.2007.narrabn.c5.vflip.jpg'
p529
aS'daytimex_1271624427.Mon.Apr.19_07_00_27.AEST.2010.narrabn.c5.vflip.jpg'
p530
aS'daytimex_1362603627.Thu.Mar.07_07_00_27.AEST.2013.narrabn.c5.vflip.jpg'
p531
aS'daytimex_1115067628.Tue.May.03_07_00_28.AEST.2005.narrabn.c5.vflip.jpg'
p532
aS'daytimex_1272315628.Tue.Apr.27_07_00_28.AEST.2010.narrabn.c5.vflip.jpg'
p533
aS'daytimex_1174338027.Tue.Mar.20_07_00_27.AEST.2007.narrabn.c5.vflip.jpg'
p534
aS'daytimex_1115586027.Mon.May.09_07_00_27.AEST.2005.narrabn.c5.vflip.jpg'
p535
aS'daytimex_1115758827.Wed.May.11_07_00_27.AEST.2005.narrabn.c5.vflip.jpg'
p536
aS'daytimex_1178398828.Sun.May.06_07_00_28.AEST.2007.narrabn.c5.vflip.jpg'
p537
aS'daytimex_1285621228.Tue.Sep.28_07_00_28.AEST.2010.narrabn.c5.vflip.jpg'
p538
aS'daytimex_1129928428.Sat.Oct.22_07_00_28.AEST.2005.narrabn.c5.vflip.jpg'
p539
aS'daytimex_1339448428.Tue.Jun.12_07_00_28.AEST.2012.narrabn.c5.vflip.jpg'
p540
aS'daytimex_1243371628.Wed.May.27_07_00_28.AEST.2009.narrabn.c5.vflip.jpg'
p541
aS'daytimex_1165525227.Fri.Dec.08_07_00_27.AEST.2006.narrabn.c5.vflip.jpg'
p542
aS'daytimex_1122843628.Mon.Aug.01_07_00_28.AEST.2005.narrabn.c5.vflip.jpg'
p543
aS'daytimex_1269032427.Sat.Mar.20_07_00_27.AEST.2010.narrabn.c5.vflip.jpg'
p544
aS'daytimex_1321822828.Mon.Nov.21_07_00_28.AEST.2011.narrabn.c5.vflip.jpg'
p545
aS'daytimex_1362344426.Mon.Mar.04_07_00_26.AEST.2013.narrabn.c5.vflip.jpg'
p546
aS'daytimex_1367269226.Tue.Apr.30_07_00_26.AEST.2013.narrabn.c5.vflip.jpg'
p547
aS'daytimex_1279141227.Thu.Jul.15_07_00_27.AEST.2010.narrabn.c5.vflip.jpg'
p548
aS'daytimex_1174683628.Sat.Mar.24_07_00_28.AEST.2007.narrabn.c5.vflip.jpg'
p549
aS'daytimex_1179262828.Wed.May.16_07_00_28.AEST.2007.narrabn.c5.vflip.jpg'
p550
aS'daytimex_1205960427.Thu.Mar.20_07_00_27.AEST.2008.narrabn.c5.vflip.jpg'
p551
aS'daytimex_1160082028.Fri.Oct.06_07_00_28.AEST.2006.narrabn.c5.vflip.jpg'
p552
aS'daytimex_1176066028.Mon.Apr.09_07_00_28.AEST.2007.narrabn.c5.vflip.jpg'
p553
aS'daytimex_1278018028.Fri.Jul.02_07_00_28.AEST.2010.narrabn.c5.vflip.jpg'
p554
aS'daytimex_1393707627.Sun.Mar.02_07_00_27.AEST.2014.narrabn.c5.vflip.jpg'
p555
aS'daytimex_1285448428.Sun.Sep.26_07_00_28.AEST.2010.narrabn.c5.vflip.jpg'
p556
aS'daytimex_1210366827.Sat.May.10_07_00_27.AEST.2008.narrabn.c5.vflip.jpg'
p557
aS'daytimex_1179435627.Fri.May.18_07_00_27.AEST.2007.narrabn.c5.vflip.jpg'
p558
aS'daytimex_1164488428.Sun.Nov.26_07_00_28.AEST.2006.narrabn.c5.vflip.jpg'
p559
aS'daytimex_1114203627.Sat.Apr.23_07_00_27.AEST.2005.narrabn.c5.vflip.jpg'
p560
aS'daytimex_1192482027.Tue.Oct.16_07_00_27.AEST.2007.narrabn.c5.vflip.jpg'
p561
aS'daytimex_1320699628.Tue.Nov.08_07_00_28.AEST.2011.narrabn.c5.vflip.jpg'
p562
aS'daytimex_1421803807.Wed.Jan.21_11_30_07.AEST.2015.narrabn.c5.vflip.jpg'
p563
aS'daytimex_1192136427.Fri.Oct.12_07_00_27.AEST.2007.narrabn.c5.vflip.jpg'
p564
aS'daytimex_1210194028.Thu.May.08_07_00_28.AEST.2008.narrabn.c5.vflip.jpg'
p565
aS'daytimex_1166475628.Tue.Dec.19_07_00_28.AEST.2006.narrabn.c5.vflip.jpg'
p566
aS'daytimex_1397077227.Thu.Apr.10_07_00_27.AEST.2014.narrabn.c5.vflip.jpg'
p567
aS'daytimex_1243198828.Mon.May.25_07_00_28.AEST.2009.narrabn.c5.vflip.jpg'
p568
aS'daytimex_1206046827.Fri.Mar.21_07_00_27.AEST.2008.narrabn.c5.vflip.jpg'
p569
aS'daytimex_1215032428.Thu.Jul.03_07_00_28.AEST.2008.narrabn.c5.vflip.jpg'
p570
aS'daytimex_1095542444.Sun.Sep.19_07_20_44.AEST.2004.narrabn.c5.vflip.jpg'
p571
aS'daytimex_1220043628.Sat.Aug.30_07_00_28.AEST.2008.narrabn.c5.vflip.jpg'
p572
aS'daytimex_1305752427.Thu.May.19_07_00_27.AEST.2011.narrabn.c5.vflip.jpg'
p573
aS'daytimex_1300482028.Sat.Mar.19_07_00_28.AEST.2011.narrabn.c5.vflip.jpg'
p574
aS'daytimex_1396040427.Sat.Mar.29_07_00_27.AEST.2014.narrabn.c5.vflip.jpg'
p575
aS'daytimex_1152738027.Thu.Jul.13_07_00_27.AEST.2006.narrabn.c5.vflip.jpg'
p576
aS'daytimex_1114117228.Fri.Apr.22_07_00_28.AEST.2005.narrabn.c5.vflip.jpg'
p577
aS'daytimex_1193432428.Sat.Oct.27_07_00_28.AEST.2007.narrabn.c5.vflip.jpg'
p578
aS'daytimex_1285362027.Sat.Sep.25_07_00_27.AEST.2010.narrabn.c5.vflip.jpg'
p579
aS'daytimex_1091568045.Wed.Aug.04_07_20_45.AEST.2004.narrabn.c5.vflip.jpg'
p580
aS'daytimex_1176584427.Sun.Apr.15_07_00_27.AEST.2007.narrabn.c5.vflip.jpg'
p581
aS'daytimex_1297803627.Wed.Feb.16_07_00_27.AEST.2011.narrabn.c5.vflip.jpg'
p582
aS'daytimex_1115154028.Wed.May.04_07_00_28.AEST.2005.narrabn.c5.vflip.jpg'
p583
aS'daytimex_1210280428.Fri.May.09_07_00_28.AEST.2008.narrabn.c5.vflip.jpg'
p584
aS'daytimex_1095456045.Sat.Sep.18_07_20_45.AEST.2004.narrabn.c5.vflip.jpg'
p585
aS'daytimex_1296421228.Mon.Jan.31_07_00_28.AEST.2011.narrabn.c5.vflip.jpg'
p586
aS'daytimex_1271278827.Thu.Apr.15_07_00_27.AEST.2010.narrabn.c5.vflip.jpg'
p587
aS'daytimex_1321045227.Sat.Nov.12_07_00_27.AEST.2011.narrabn.c5.vflip.jpg'
p588
aS'daytimex_1218747627.Fri.Aug.15_07_00_27.AEST.2008.narrabn.c5.vflip.jpg'
p589
aS'daytimex_1407358807.Thu.Aug.07_07_00_07.AEST.2014.narrabn.c5.vflip.jpg'
p590
aS'daytimex_1269291628.Tue.Mar.23_07_00_28.AEST.2010.narrabn.c5.vflip.jpg'
p591
aS'daytimex_1096492844.Thu.Sep.30_07_20_44.AEST.2004.narrabn.c5.vflip.jpg'
p592
aS'daytimex_1264194027.Sat.Jan.23_07_00_27.AEST.2010.narrabn.c5.vflip.jpg'
p593
aS'daytimex_1148331627.Tue.May.23_07_00_27.AEST.2006.narrabn.c5.vflip.jpg'
p594
aS'daytimex_1280350828.Thu.Jul.29_07_00_28.AEST.2010.narrabn.c5.vflip.jpg'
p595
aS'daytimex_1358283627.Wed.Jan.16_07_00_27.AEST.2013.narrabn.c5.vflip.jpg'
p596
aS'daytimex_1156798828.Tue.Aug.29_07_00_28.AEST.2006.narrabn.c5.vflip.jpg'
p597
aS'daytimex_1218920428.Sun.Aug.17_07_00_28.AEST.2008.narrabn.c5.vflip.jpg'
p598
aS'daytimex_1269550828.Fri.Mar.26_07_00_28.AEST.2010.narrabn.c5.vflip.jpg'
p599
aS'daytimex_1253394027.Sun.Sep.20_07_00_27.AEST.2009.narrabn.c5.vflip.jpg'
p600
aS'daytimex_1159909227.Wed.Oct.04_07_00_27.AEST.2006.narrabn.c5.vflip.jpg'
p601
aS'daytimex_1266267628.Tue.Feb.16_07_00_28.AEST.2010.narrabn.c5.vflip.jpg'
p602
aS'daytimex_1313614827.Thu.Aug.18_07_00_27.AEST.2011.narrabn.c5.vflip.jpg'
p603
aS'daytimex_1383166828.Thu.Oct.31_07_00_28.AEST.2013.narrabn.c5.vflip.jpg'
p604
aS'daytimex_1368478827.Tue.May.14_07_00_27.AEST.2013.narrabn.c5.vflip.jpg'
p605
aS'daytimex_1194901228.Tue.Nov.13_07_00_28.AEST.2007.narrabn.c5.vflip.jpg'
p606
aS'daytimex_1170968427.Fri.Feb.09_07_00_27.AEST.2007.narrabn.c5.vflip.jpg'
p607
aS'daytimex_1313182827.Sat.Aug.13_07_00_27.AEST.2011.narrabn.c5.vflip.jpg'
p608
aS'daytimex_1263070827.Sun.Jan.10_07_00_27.AEST.2010.narrabn.c5.vflip.jpg'
p609
aS'daytimex_1118264428.Thu.Jun.09_07_00_28.AEST.2005.narrabn.c5.vflip.jpg'
p610
aS'daytimex_1348779627.Fri.Sep.28_07_00_27.AEST.2012.narrabn.c5.vflip.jpg'
p611
aS'daytimex_1331499627.Mon.Mar.12_07_00_27.AEST.2012.narrabn.c5.vflip.jpg'
p612
aS'daytimex_1375736428.Tue.Aug.06_07_00_28.AEST.2013.narrabn.c5.vflip.jpg'
p613
aS'daytimex_1158613228.Tue.Sep.19_07_00_28.AEST.2006.narrabn.c5.vflip.jpg'
p614
aS'daytimex_1277240427.Wed.Jun.23_07_00_27.AEST.2010.narrabn.c5.vflip.jpg'
p615
aS'daytimex_1132347628.Sat.Nov.19_07_00_28.AEST.2005.narrabn.c5.vflip.jpg'
p616
aS'daytimex_1392930028.Fri.Feb.21_07_00_28.AEST.2014.narrabn.c5.vflip.jpg'
p617
aS'daytimex_1263675627.Sun.Jan.17_07_00_27.AEST.2010.narrabn.c5.vflip.jpg'
p618
aS'daytimex_1390424427.Thu.Jan.23_07_00_27.AEST.2014.narrabn.c5.vflip.jpg'
p619
aS'daytimex_1296248427.Sat.Jan.29_07_00_27.AEST.2011.narrabn.c5.vflip.jpg'
p620
aS'daytimex_1132088427.Wed.Nov.16_07_00_27.AEST.2005.narrabn.c5.vflip.jpg'
p621
aS'daytimex_1233003628.Tue.Jan.27_07_00_28.AEST.2009.narrabn.c5.vflip.jpg'
p622
aS'daytimex_1286485227.Fri.Oct.08_07_00_27.AEST.2010.narrabn.c5.vflip.jpg'
p623
aS'daytimex_1209589228.Thu.May.01_07_00_28.AEST.2008.narrabn.c5.vflip.jpg'
p624
aS'daytimex_1246654827.Sat.Jul.04_07_00_27.AEST.2009.narrabn.c5.vflip.jpg'
p625
aS'daytimex_1136062828.Sun.Jan.01_07_00_28.AEST.2006.narrabn.c5.vflip.jpg'
p626
aS'daytimex_1105304428.Mon.Jan.10_07_00_28.AEST.2005.narrabn.c5.vflip.jpg'
p627
aS'daytimex_1170104428.Tue.Jan.30_07_00_28.AEST.2007.narrabn.c5.vflip.jpg'
p628
aS'daytimex_1100553644.Tue.Nov.16_07_20_44.AEST.2004.narrabn.c5.vflip.jpg'
p629
aS'daytimex_1230757227.Thu.Jan.01_07_00_27.AEST.2009.narrabn.c5.vflip.jpg'
p630
aS'daytimex_1237323627.Wed.Mar.18_07_00_27.AEST.2009.narrabn.c5.vflip.jpg'
p631
aS'daytimex_1382302828.Mon.Oct.21_07_00_28.AEST.2013.narrabn.c5.vflip.jpg'
p632
aS'daytimex_1336770028.Sat.May.12_07_00_28.AEST.2012.narrabn.c5.vflip.jpg'
p633
aS'daytimex_1304715627.Sat.May.07_07_00_27.AEST.2011.narrabn.c5.vflip.jpg'
p634
aS'daytimex_1113771628.Mon.Apr.18_07_00_28.AEST.2005.narrabn.c5.vflip.jpg'
p635
aS'daytimex_1344286827.Tue.Aug.07_07_00_27.AEST.2012.narrabn.c5.vflip.jpg'
p636
aS'daytimex_1332795628.Tue.Mar.27_07_00_28.AEST.2012.narrabn.c5.vflip.jpg'
p637
aS'daytimex_1166994028.Mon.Dec.25_07_00_28.AEST.2006.narrabn.c5.vflip.jpg'
p638
aS'daytimex_1346533227.Sun.Sep.02_07_00_27.AEST.2012.narrabn.c5.vflip.jpg'
p639
aS'daytimex_1257195628.Tue.Nov.03_07_00_28.AEST.2009.narrabn.c5.vflip.jpg'
p640
aS'daytimex_1277758827.Tue.Jun.29_07_00_27.AEST.2010.narrabn.c5.vflip.jpg'
p641
aS'daytimex_1104699628.Mon.Jan.03_07_00_28.AEST.2005.narrabn.c5.vflip.jpg'
p642
aS'daytimex_1369515627.Sun.May.26_07_00_27.AEST.2013.narrabn.c5.vflip.jpg'
p643
aS'daytimex_1188853227.Tue.Sep.04_07_00_27.AEST.2007.narrabn.c5.vflip.jpg'
p644
aS'daytimex_1210021227.Tue.May.06_07_00_27.AEST.2008.narrabn.c5.vflip.jpg'
p645
aS'daytimex_1106600428.Tue.Jan.25_07_00_28.AEST.2005.narrabn.c5.vflip.jpg'
p646
aS'daytimex_1308430828.Sun.Jun.19_07_00_28.AEST.2011.narrabn.c5.vflip.jpg'
p647
aS'daytimex_1093641644.Sat.Aug.28_07_20_44.AEST.2004.narrabn.c5.vflip.jpg'
p648
aS'daytimex_1277845228.Wed.Jun.30_07_00_28.AEST.2010.narrabn.c5.vflip.jpg'
p649
aS'daytimex_1290459628.Tue.Nov.23_07_00_28.AEST.2010.narrabn.c5.vflip.jpg'
p650
aS'daytimex_1239138028.Wed.Apr.08_07_00_28.AEST.2009.narrabn.c5.vflip.jpg'
p651
aS'daytimex_1103403628.Sun.Dec.19_07_00_28.AEST.2004.narrabn.c5.vflip.jpg'
p652
aS'daytimex_1232744428.Sat.Jan.24_07_00_28.AEST.2009.narrabn.c5.vflip.jpg'
p653
aS'daytimex_1164229228.Thu.Nov.23_07_00_28.AEST.2006.narrabn.c5.vflip.jpg'
p654
aS'daytimex_1130446828.Fri.Oct.28_07_00_28.AEST.2005.narrabn.c5.vflip.jpg'
p655
aS'daytimex_1132261228.Fri.Nov.18_07_00_28.AEST.2005.narrabn.c5.vflip.jpg'
p656
aS'daytimex_1413493206.Fri.Oct.17_07_00_06.AEST.2014.narrabn.c5.vflip.jpg'
p657
aS'daytimex_1366664426.Tue.Apr.23_07_00_26.AEST.2013.narrabn.c5.vflip.jpg'
p658
aS'daytimex_1102885227.Mon.Dec.13_07_00_27.AEST.2004.narrabn.c5.vflip.jpg'
p659
aS'daytimex_1094764845.Fri.Sep.10_07_20_45.AEST.2004.narrabn.c5.vflip.jpg'
p660
aS'daytimex_1307134828.Sat.Jun.04_07_00_28.AEST.2011.narrabn.c5.vflip.jpg'
p661
aS'daytimex_1289422827.Thu.Nov.11_07_00_27.AEST.2010.narrabn.c5.vflip.jpg'
p662
aS'daytimex_1168722027.Sun.Jan.14_07_00_27.AEST.2007.narrabn.c5.vflip.jpg'
p663
aS'daytimex_1166907628.Sun.Dec.24_07_00_28.AEST.2006.narrabn.c5.vflip.jpg'
p664
aS'daytimex_1130878828.Wed.Nov.02_07_00_28.AEST.2005.narrabn.c5.vflip.jpg'
p665
aS'daytimex_1349730027.Tue.Oct.09_07_00_27.AEST.2012.narrabn.c5.vflip.jpg'
p666
aS'daytimex_1106341227.Sat.Jan.22_07_00_27.AEST.2005.narrabn.c5.vflip.jpg'
p667
aS'daytimex_1194469228.Thu.Nov.08_07_00_28.AEST.2007.narrabn.c5.vflip.jpg'
p668
aS'daytimex_1223931628.Tue.Oct.14_07_00_28.AEST.2008.narrabn.c5.vflip.jpg'
p669
aS'daytimex_1289336428.Wed.Nov.10_07_00_28.AEST.2010.narrabn.c5.vflip.jpg'
p670
aS'daytimex_1259442028.Sun.Nov.29_07_00_28.AEST.2009.narrabn.c5.vflip.jpg'
p671
aS'daytimex_1275080427.Sat.May.29_07_00_27.AEST.2010.narrabn.c5.vflip.jpg'
p672
aS'daytimex_1364245227.Tue.Mar.26_07_00_27.AEST.2013.narrabn.c5.vflip.jpg'
p673
aS'daytimex_1144702827.Tue.Apr.11_07_00_27.AEST.2006.narrabn.c5.vflip.jpg'
p674
aS'daytimex_1137013242.Thu.Jan.12_07_00_42.AEST.2006.narrabn.c5.vflip.jpg'
p675
aS'daytimex_1168981228.Wed.Jan.17_07_00_28.AEST.2007.narrabn.c5.vflip.jpg'
p676
aS'daytimex_1106514027.Mon.Jan.24_07_00_27.AEST.2005.narrabn.c5.vflip.jpg'
p677
aS'daytimex_1355518826.Sat.Dec.15_07_00_26.AEST.2012.narrabn.c5.vflip.jpg'
p678
aS'daytimex_1105131627.Sat.Jan.08_07_00_27.AEST.2005.narrabn.c5.vflip.jpg'
p679
aS'daytimex_1125781227.Sun.Sep.04_07_00_27.AEST.2005.narrabn.c5.vflip.jpg'
p680
aS'daytimex_1100640044.Wed.Nov.17_07_20_44.AEST.2004.narrabn.c5.vflip.jpg'
p681
aS'daytimex_1211058028.Sun.May.18_07_00_28.AEST.2008.narrabn.c5.vflip.jpg'
p682
aS'daytimex_1422322207.Tue.Jan.27_11_30_07.AEST.2015.narrabn.c5.vflip.jpg'
p683
aS'daytimex_1189458027.Tue.Sep.11_07_00_27.AEST.2007.narrabn.c5.vflip.jpg'
p684
aS'daytimex_1311627628.Tue.Jul.26_07_00_28.AEST.2011.narrabn.c5.vflip.jpg'
p685
aS'daytimex_1367701227.Sun.May.05_07_00_27.AEST.2013.narrabn.c5.vflip.jpg'
p686
aS'daytimex_1103058027.Wed.Dec.15_07_00_27.AEST.2004.narrabn.c5.vflip.jpg'
p687
aS'daytimex_1335128427.Mon.Apr.23_07_00_27.AEST.2012.narrabn.c5.vflip.jpg'
p688
aS'daytimex_1352494827.Sat.Nov.10_07_00_27.AEST.2012.narrabn.c5.vflip.jpg'
p689
aS'daytimex_1425850207.Mon.Mar.09_07_30_07.AEST.2015.narrabn.c5.vflip.jpg'
p690
aS'daytimex_1384462828.Fri.Nov.15_07_00_28.AEST.2013.narrabn.c5.vflip.jpg'
p691
aS'daytimex_1262379627.Sat.Jan.02_07_00_27.AEST.2010.narrabn.c5.vflip.jpg'
p692
aS'daytimex_1232658027.Fri.Jan.23_07_00_27.AEST.2009.narrabn.c5.vflip.jpg'
p693
aS'daytimex_1162674028.Sun.Nov.05_07_00_28.AEST.2006.narrabn.c5.vflip.jpg'
p694
aS'daytimex_1123362028.Sun.Aug.07_07_00_28.AEST.2005.narrabn.c5.vflip.jpg'
p695
aS'daytimex_1337288428.Fri.May.18_07_00_28.AEST.2012.narrabn.c5.vflip.jpg'
p696
aS'daytimex_1389992427.Sat.Jan.18_07_00_27.AEST.2014.narrabn.c5.vflip.jpg'
p697
aS'daytimex_1119733228.Sun.Jun.26_07_00_28.AEST.2005.narrabn.c5.vflip.jpg'
p698
aS'daytimex_1327179628.Sun.Jan.22_07_00_28.AEST.2012.narrabn.c5.vflip.jpg'
p699
aS'daytimex_1344805229.Mon.Aug.13_07_00_29.AEST.2012.narrabn.c5.vflip.jpg'
p700
aS'daytimex_1105822828.Sun.Jan.16_07_00_28.AEST.2005.narrabn.c5.vflip.jpg'
p701
aS'daytimex_1199912427.Thu.Jan.10_07_00_27.AEST.2008.narrabn.c5.vflip.jpg'
p702
aS'daytimex_1390165228.Mon.Jan.20_07_00_28.AEST.2014.narrabn.c5.vflip.jpg'
p703
aS'daytimex_1363467627.Sun.Mar.17_07_00_27.AEST.2013.narrabn.c5.vflip.jpg'
p704
aS'daytimex_1200085228.Sat.Jan.12_07_00_28.AEST.2008.narrabn.c5.vflip.jpg'
p705
aS'daytimex_1144616428.Mon.Apr.10_07_00_28.AEST.2006.narrabn.c5.vflip.jpg'
p706
aS'daytimex_1199653228.Mon.Jan.07_07_00_28.AEST.2008.narrabn.c5.vflip.jpg'
p707
aS'daytimex_1365714027.Fri.Apr.12_07_00_27.AEST.2013.narrabn.c5.vflip.jpg'
p708
aS'daytimex_1129755628.Thu.Oct.20_07_00_28.AEST.2005.narrabn.c5.vflip.jpg'
p709
aS'daytimex_1200258027.Mon.Jan.14_07_00_27.AEST.2008.narrabn.c5.vflip.jpg'
p710
aS'daytimex_1362862827.Sun.Mar.10_07_00_27.AEST.2013.narrabn.c5.vflip.jpg'
p711
aS'daytimex_1364158827.Mon.Mar.25_07_00_27.AEST.2013.narrabn.c5.vflip.jpg'
p712
aS'daytimex_1238360427.Mon.Mar.30_07_00_27.AEST.2009.narrabn.c5.vflip.jpg'
p713
aS'daytimex_1363035626.Tue.Mar.12_07_00_26.AEST.2013.narrabn.c5.vflip.jpg'
p714
aS'daytimex_1199739627.Tue.Jan.08_07_00_27.AEST.2008.narrabn.c5.vflip.jpg'
p715
aS'daytimex_1359579627.Thu.Jan.31_07_00_27.AEST.2013.narrabn.c5.vflip.jpg'
p716
aS'daytimex_1202331628.Thu.Feb.07_07_00_28.AEST.2008.narrabn.c5.vflip.jpg'
p717
aS'daytimex_1169413228.Mon.Jan.22_07_00_28.AEST.2007.narrabn.c5.vflip.jpg'
p718
aS'daytimex_1098652844.Mon.Oct.25_07_20_44.AEST.2004.narrabn.c5.vflip.jpg'
p719
aS'daytimex_1199826027.Wed.Jan.09_07_00_27.AEST.2008.narrabn.c5.vflip.jpg'
p720
aS'daytimex_1364072427.Sun.Mar.24_07_00_27.AEST.2013.narrabn.c5.vflip.jpg'
p721
aS'daytimex_1364418026.Thu.Mar.28_07_00_26.AEST.2013.narrabn.c5.vflip.jpg'
p722
aS'daytimex_1364331627.Wed.Mar.27_07_00_27.AEST.2013.narrabn.c5.vflip.jpg'
p723
aS'daytimex_1307048427.Fri.Jun.03_07_00_27.AEST.2011.narrabn.c5.vflip.jpg'
p724
aS'daytimex_1365454827.Tue.Apr.09_07_00_27.AEST.2013.narrabn.c5.vflip.jpg'
p725
aS'daytimex_1102626027.Fri.Dec.10_07_00_27.AEST.2004.narrabn.c5.vflip.jpg'
p726
aS'daytimex_1098739244.Tue.Oct.26_07_20_44.AEST.2004.narrabn.c5.vflip.jpg'
p727
aS'daytimex_1365109227.Fri.Apr.05_07_00_27.AEST.2013.narrabn.c5.vflip.jpg'
p728
aS'daytimex_1363899627.Fri.Mar.22_07_00_27.AEST.2013.narrabn.c5.vflip.jpg'
p729
aS'daytimex_1129842028.Fri.Oct.21_07_00_28.AEST.2005.narrabn.c5.vflip.jpg'
p730
aS'daytimex_1199307628.Thu.Jan.03_07_00_28.AEST.2008.narrabn.c5.vflip.jpg'
p731
aS'daytimex_1161205227.Thu.Oct.19_07_00_27.AEST.2006.narrabn.c5.vflip.jpg'
p732
aS'daytimex_1098825644.Wed.Oct.27_07_20_44.AEST.2004.narrabn.c5.vflip.jpg'
p733
aS'daytimex_1141419628.Sat.Mar.04_07_00_28.AEST.2006.narrabn.c5.vflip.jpg'
p734
aS'daytimex_1366837226.Thu.Apr.25_07_00_26.AEST.2013.narrabn.c5.vflip.jpg'
p735
aS'daytimex_1364504427.Fri.Mar.29_07_00_27.AEST.2013.narrabn.c5.vflip.jpg'
p736
aS'daytimex_1199998828.Fri.Jan.11_07_00_28.AEST.2008.narrabn.c5.vflip.jpg'
p737
aS'daytimex_1363381227.Sat.Mar.16_07_00_27.AEST.2013.narrabn.c5.vflip.jpg'
p738
aS'daytimex_1363294826.Fri.Mar.15_07_00_26.AEST.2013.narrabn.c5.vflip.jpg'
p739
aS'daytimex_1366059626.Tue.Apr.16_07_00_26.AEST.2013.narrabn.c5.vflip.jpg'
p740
aS'daytimex_1304370028.Tue.May.03_07_00_28.AEST.2011.narrabn.c5.vflip.jpg'
p741
aS'daytimex_1102453228.Wed.Dec.08_07_00_28.AEST.2004.narrabn.c5.vflip.jpg'
p742
aS'daytimex_1200171628.Sun.Jan.13_07_00_28.AEST.2008.narrabn.c5.vflip.jpg'
p743
aS'daytimex_1154120427.Sat.Jul.29_07_00_27.AEST.2006.narrabn.c5.vflip.jpg'
p744
aS'daytimex_1102712427.Sat.Dec.11_07_00_27.AEST.2004.narrabn.c5.vflip.jpg'
p745
aS'daytimex_1298494828.Thu.Feb.24_07_00_28.AEST.2011.narrabn.c5.vflip.jpg'
p746
aS'daytimex_1252270827.Mon.Sep.07_07_00_27.AEST.2009.narrabn.c5.vflip.jpg'
p747
aS'daytimex_1258837227.Sun.Nov.22_07_00_27.AEST.2009.narrabn.c5.vflip.jpg'
p748
aS'daytimex_1365973226.Mon.Apr.15_07_00_26.AEST.2013.narrabn.c5.vflip.jpg'
p749
aS'daytimex_1169326827.Sun.Jan.21_07_00_27.AEST.2007.narrabn.c5.vflip.jpg'
p750
aS'daytimex_1246309228.Tue.Jun.30_07_00_28.AEST.2009.narrabn.c5.rot.jpg'
p751
aS'daytimex_1115413227.Sat.May.07_07_00_27.AEST.2005.narrabn.c5.rot.jpg'
p752
aS'daytimex_1244840427.Sat.Jun.13_07_00_27.AEST.2009.narrabn.c5.rot.jpg'
p753
aS'daytimex_1178571627.Tue.May.08_07_00_27.AEST.2007.narrabn.c5.rot.jpg'
p754
aS'daytimex_1303506028.Sat.Apr.23_07_00_28.AEST.2011.narrabn.c5.rot.jpg'
p755
aS'daytimex_1151614827.Fri.Jun.30_07_00_27.AEST.2006.narrabn.c5.rot.jpg'
p756
aS'daytimex_1244235628.Sat.Jun.06_07_00_28.AEST.2009.narrabn.c5.rot.jpg'
p757
aS'daytimex_1216587627.Mon.Jul.21_07_00_27.AEST.2008.narrabn.c5.rot.jpg'
p758
aS'daytimex_1149195628.Fri.Jun.02_07_00_28.AEST.2006.narrabn.c5.rot.jpg'
p759
aS'daytimex_1272056427.Sat.Apr.24_07_00_27.AEST.2010.narrabn.c5.rot.jpg'
p760
aS'daytimex_1180213228.Sun.May.27_07_00_28.AEST.2007.narrabn.c5.rot.jpg'
p761
aS'daytimex_1152478828.Mon.Jul.10_07_00_28.AEST.2006.narrabn.c5.rot.jpg'
p762
aS'daytimex_1152565228.Tue.Jul.11_07_00_28.AEST.2006.narrabn.c5.rot.jpg'
p763
aS'daytimex_1179522028.Sat.May.19_07_00_28.AEST.2007.narrabn.c5.rot.jpg'
p764
aS'daytimex_1244494828.Tue.Jun.09_07_00_28.AEST.2009.narrabn.c5.rot.jpg'
p765
aS'daytimex_1115326827.Fri.May.06_07_00_27.AEST.2005.narrabn.c5.rot.jpg'
p766
aS'daytimex_1218574827.Wed.Aug.13_07_00_27.AEST.2008.narrabn.c5.rot.jpg'
p767
aS'daytimex_1216414828.Sat.Jul.19_07_00_28.AEST.2008.narrabn.c5.rot.jpg'
p768
aS'daytimex_1244322027.Sun.Jun.07_07_00_27.AEST.2009.narrabn.c5.rot.jpg'
p769
aS'daytimex_1299358827.Sun.Mar.06_07_00_27.AEST.2011.narrabn.c5.rot.jpg'
p770
aS'daytimex_1218315628.Sun.Aug.10_07_00_28.AEST.2008.narrabn.c5.rot.jpg'
p771
aS'daytimex_1216328427.Fri.Jul.18_07_00_27.AEST.2008.narrabn.c5.rot.jpg'
p772
aS'daytimex_1377205228.Fri.Aug.23_07_00_28.AEST.2013.narrabn.c5.rot.jpg'
p773
aS'daytimex_1280523628.Sat.Jul.31_07_00_28.AEST.2010.narrabn.c5.rot.jpg'
p774
aS'daytimex_1180904428.Mon.Jun.04_07_00_28.AEST.2007.narrabn.c5.rot.jpg'
p775
aS'daytimex_1367182827.Mon.Apr.29_07_00_27.AEST.2013.narrabn.c5.rot.jpg'
p776
aS'daytimex_1362776427.Sat.Mar.09_07_00_27.AEST.2013.narrabn.c5.rot.jpg'
p777
aS'daytimex_1206997228.Tue.Apr.01_07_00_28.AEST.2008.narrabn.c5.rot.jpg'
p778
aS'daytimex_1183410028.Tue.Jul.03_07_00_28.AEST.2007.narrabn.c5.rot.jpg'
p779
aS'daytimex_1271624427.Mon.Apr.19_07_00_27.AEST.2010.narrabn.c5.rot.jpg'
p780
aS'daytimex_1362603627.Thu.Mar.07_07_00_27.AEST.2013.narrabn.c5.rot.jpg'
p781
aS'daytimex_1115067628.Tue.May.03_07_00_28.AEST.2005.narrabn.c5.rot.jpg'
p782
aS'daytimex_1272315628.Tue.Apr.27_07_00_28.AEST.2010.narrabn.c5.rot.jpg'
p783
aS'daytimex_1174338027.Tue.Mar.20_07_00_27.AEST.2007.narrabn.c5.rot.jpg'
p784
aS'daytimex_1115586027.Mon.May.09_07_00_27.AEST.2005.narrabn.c5.rot.jpg'
p785
aS'daytimex_1115758827.Wed.May.11_07_00_27.AEST.2005.narrabn.c5.rot.jpg'
p786
aS'daytimex_1178398828.Sun.May.06_07_00_28.AEST.2007.narrabn.c5.rot.jpg'
p787
aS'daytimex_1285621228.Tue.Sep.28_07_00_28.AEST.2010.narrabn.c5.rot.jpg'
p788
aS'daytimex_1129928428.Sat.Oct.22_07_00_28.AEST.2005.narrabn.c5.rot.jpg'
p789
aS'daytimex_1339448428.Tue.Jun.12_07_00_28.AEST.2012.narrabn.c5.rot.jpg'
p790
aS'daytimex_1243371628.Wed.May.27_07_00_28.AEST.2009.narrabn.c5.rot.jpg'
p791
aS'daytimex_1165525227.Fri.Dec.08_07_00_27.AEST.2006.narrabn.c5.rot.jpg'
p792
aS'daytimex_1122843628.Mon.Aug.01_07_00_28.AEST.2005.narrabn.c5.rot.jpg'
p793
aS'daytimex_1269032427.Sat.Mar.20_07_00_27.AEST.2010.narrabn.c5.rot.jpg'
p794
aS'daytimex_1321822828.Mon.Nov.21_07_00_28.AEST.2011.narrabn.c5.rot.jpg'
p795
aS'daytimex_1362344426.Mon.Mar.04_07_00_26.AEST.2013.narrabn.c5.rot.jpg'
p796
aS'daytimex_1367269226.Tue.Apr.30_07_00_26.AEST.2013.narrabn.c5.rot.jpg'
p797
aS'daytimex_1279141227.Thu.Jul.15_07_00_27.AEST.2010.narrabn.c5.rot.jpg'
p798
aS'daytimex_1174683628.Sat.Mar.24_07_00_28.AEST.2007.narrabn.c5.rot.jpg'
p799
aS'daytimex_1179262828.Wed.May.16_07_00_28.AEST.2007.narrabn.c5.rot.jpg'
p800
aS'daytimex_1205960427.Thu.Mar.20_07_00_27.AEST.2008.narrabn.c5.rot.jpg'
p801
aS'daytimex_1160082028.Fri.Oct.06_07_00_28.AEST.2006.narrabn.c5.rot.jpg'
p802
aS'daytimex_1176066028.Mon.Apr.09_07_00_28.AEST.2007.narrabn.c5.rot.jpg'
p803
aS'daytimex_1278018028.Fri.Jul.02_07_00_28.AEST.2010.narrabn.c5.rot.jpg'
p804
aS'daytimex_1393707627.Sun.Mar.02_07_00_27.AEST.2014.narrabn.c5.rot.jpg'
p805
aS'daytimex_1285448428.Sun.Sep.26_07_00_28.AEST.2010.narrabn.c5.rot.jpg'
p806
aS'daytimex_1210366827.Sat.May.10_07_00_27.AEST.2008.narrabn.c5.rot.jpg'
p807
aS'daytimex_1179435627.Fri.May.18_07_00_27.AEST.2007.narrabn.c5.rot.jpg'
p808
aS'daytimex_1164488428.Sun.Nov.26_07_00_28.AEST.2006.narrabn.c5.rot.jpg'
p809
aS'daytimex_1114203627.Sat.Apr.23_07_00_27.AEST.2005.narrabn.c5.rot.jpg'
p810
aS'daytimex_1192482027.Tue.Oct.16_07_00_27.AEST.2007.narrabn.c5.rot.jpg'
p811
aS'daytimex_1320699628.Tue.Nov.08_07_00_28.AEST.2011.narrabn.c5.rot.jpg'
p812
aS'daytimex_1421803807.Wed.Jan.21_11_30_07.AEST.2015.narrabn.c5.rot.jpg'
p813
aS'daytimex_1192136427.Fri.Oct.12_07_00_27.AEST.2007.narrabn.c5.rot.jpg'
p814
aS'daytimex_1210194028.Thu.May.08_07_00_28.AEST.2008.narrabn.c5.rot.jpg'
p815
aS'daytimex_1166475628.Tue.Dec.19_07_00_28.AEST.2006.narrabn.c5.rot.jpg'
p816
aS'daytimex_1397077227.Thu.Apr.10_07_00_27.AEST.2014.narrabn.c5.rot.jpg'
p817
aS'daytimex_1243198828.Mon.May.25_07_00_28.AEST.2009.narrabn.c5.rot.jpg'
p818
aS'daytimex_1206046827.Fri.Mar.21_07_00_27.AEST.2008.narrabn.c5.rot.jpg'
p819
aS'daytimex_1215032428.Thu.Jul.03_07_00_28.AEST.2008.narrabn.c5.rot.jpg'
p820
aS'daytimex_1095542444.Sun.Sep.19_07_20_44.AEST.2004.narrabn.c5.rot.jpg'
p821
aS'daytimex_1220043628.Sat.Aug.30_07_00_28.AEST.2008.narrabn.c5.rot.jpg'
p822
aS'daytimex_1305752427.Thu.May.19_07_00_27.AEST.2011.narrabn.c5.rot.jpg'
p823
aS'daytimex_1300482028.Sat.Mar.19_07_00_28.AEST.2011.narrabn.c5.rot.jpg'
p824
aS'daytimex_1396040427.Sat.Mar.29_07_00_27.AEST.2014.narrabn.c5.rot.jpg'
p825
aS'daytimex_1152738027.Thu.Jul.13_07_00_27.AEST.2006.narrabn.c5.rot.jpg'
p826
aS'daytimex_1114117228.Fri.Apr.22_07_00_28.AEST.2005.narrabn.c5.rot.jpg'
p827
aS'daytimex_1193432428.Sat.Oct.27_07_00_28.AEST.2007.narrabn.c5.rot.jpg'
p828
aS'daytimex_1285362027.Sat.Sep.25_07_00_27.AEST.2010.narrabn.c5.rot.jpg'
p829
aS'daytimex_1091568045.Wed.Aug.04_07_20_45.AEST.2004.narrabn.c5.rot.jpg'
p830
aS'daytimex_1176584427.Sun.Apr.15_07_00_27.AEST.2007.narrabn.c5.rot.jpg'
p831
aS'daytimex_1297803627.Wed.Feb.16_07_00_27.AEST.2011.narrabn.c5.rot.jpg'
p832
aS'daytimex_1115154028.Wed.May.04_07_00_28.AEST.2005.narrabn.c5.rot.jpg'
p833
aS'daytimex_1210280428.Fri.May.09_07_00_28.AEST.2008.narrabn.c5.rot.jpg'
p834
aS'daytimex_1095456045.Sat.Sep.18_07_20_45.AEST.2004.narrabn.c5.rot.jpg'
p835
aS'daytimex_1296421228.Mon.Jan.31_07_00_28.AEST.2011.narrabn.c5.rot.jpg'
p836
aS'daytimex_1271278827.Thu.Apr.15_07_00_27.AEST.2010.narrabn.c5.rot.jpg'
p837
aS'daytimex_1321045227.Sat.Nov.12_07_00_27.AEST.2011.narrabn.c5.rot.jpg'
p838
aS'daytimex_1218747627.Fri.Aug.15_07_00_27.AEST.2008.narrabn.c5.rot.jpg'
p839
aS'daytimex_1407358807.Thu.Aug.07_07_00_07.AEST.2014.narrabn.c5.rot.jpg'
p840
aS'daytimex_1269291628.Tue.Mar.23_07_00_28.AEST.2010.narrabn.c5.rot.jpg'
p841
aS'daytimex_1096492844.Thu.Sep.30_07_20_44.AEST.2004.narrabn.c5.rot.jpg'
p842
aS'daytimex_1264194027.Sat.Jan.23_07_00_27.AEST.2010.narrabn.c5.rot.jpg'
p843
aS'daytimex_1148331627.Tue.May.23_07_00_27.AEST.2006.narrabn.c5.rot.jpg'
p844
aS'daytimex_1280350828.Thu.Jul.29_07_00_28.AEST.2010.narrabn.c5.rot.jpg'
p845
aS'daytimex_1358283627.Wed.Jan.16_07_00_27.AEST.2013.narrabn.c5.rot.jpg'
p846
aS'daytimex_1156798828.Tue.Aug.29_07_00_28.AEST.2006.narrabn.c5.rot.jpg'
p847
aS'daytimex_1218920428.Sun.Aug.17_07_00_28.AEST.2008.narrabn.c5.rot.jpg'
p848
aS'daytimex_1269550828.Fri.Mar.26_07_00_28.AEST.2010.narrabn.c5.rot.jpg'
p849
aS'daytimex_1253394027.Sun.Sep.20_07_00_27.AEST.2009.narrabn.c5.rot.jpg'
p850
aS'daytimex_1159909227.Wed.Oct.04_07_00_27.AEST.2006.narrabn.c5.rot.jpg'
p851
aS'daytimex_1266267628.Tue.Feb.16_07_00_28.AEST.2010.narrabn.c5.rot.jpg'
p852
aS'daytimex_1313614827.Thu.Aug.18_07_00_27.AEST.2011.narrabn.c5.rot.jpg'
p853
aS'daytimex_1383166828.Thu.Oct.31_07_00_28.AEST.2013.narrabn.c5.rot.jpg'
p854
aS'daytimex_1368478827.Tue.May.14_07_00_27.AEST.2013.narrabn.c5.rot.jpg'
p855
aS'daytimex_1194901228.Tue.Nov.13_07_00_28.AEST.2007.narrabn.c5.rot.jpg'
p856
aS'daytimex_1170968427.Fri.Feb.09_07_00_27.AEST.2007.narrabn.c5.rot.jpg'
p857
aS'daytimex_1313182827.Sat.Aug.13_07_00_27.AEST.2011.narrabn.c5.rot.jpg'
p858
aS'daytimex_1263070827.Sun.Jan.10_07_00_27.AEST.2010.narrabn.c5.rot.jpg'
p859
aS'daytimex_1118264428.Thu.Jun.09_07_00_28.AEST.2005.narrabn.c5.rot.jpg'
p860
aS'daytimex_1348779627.Fri.Sep.28_07_00_27.AEST.2012.narrabn.c5.rot.jpg'
p861
aS'daytimex_1331499627.Mon.Mar.12_07_00_27.AEST.2012.narrabn.c5.rot.jpg'
p862
aS'daytimex_1375736428.Tue.Aug.06_07_00_28.AEST.2013.narrabn.c5.rot.jpg'
p863
aS'daytimex_1158613228.Tue.Sep.19_07_00_28.AEST.2006.narrabn.c5.rot.jpg'
p864
aS'daytimex_1277240427.Wed.Jun.23_07_00_27.AEST.2010.narrabn.c5.rot.jpg'
p865
aS'daytimex_1132347628.Sat.Nov.19_07_00_28.AEST.2005.narrabn.c5.rot.jpg'
p866
aS'daytimex_1392930028.Fri.Feb.21_07_00_28.AEST.2014.narrabn.c5.rot.jpg'
p867
aS'daytimex_1263675627.Sun.Jan.17_07_00_27.AEST.2010.narrabn.c5.rot.jpg'
p868
aS'daytimex_1390424427.Thu.Jan.23_07_00_27.AEST.2014.narrabn.c5.rot.jpg'
p869
aS'daytimex_1296248427.Sat.Jan.29_07_00_27.AEST.2011.narrabn.c5.rot.jpg'
p870
aS'daytimex_1132088427.Wed.Nov.16_07_00_27.AEST.2005.narrabn.c5.rot.jpg'
p871
aS'daytimex_1233003628.Tue.Jan.27_07_00_28.AEST.2009.narrabn.c5.rot.jpg'
p872
aS'daytimex_1286485227.Fri.Oct.08_07_00_27.AEST.2010.narrabn.c5.rot.jpg'
p873
aS'daytimex_1209589228.Thu.May.01_07_00_28.AEST.2008.narrabn.c5.rot.jpg'
p874
aS'daytimex_1246654827.Sat.Jul.04_07_00_27.AEST.2009.narrabn.c5.rot.jpg'
p875
aS'daytimex_1136062828.Sun.Jan.01_07_00_28.AEST.2006.narrabn.c5.rot.jpg'
p876
aS'daytimex_1105304428.Mon.Jan.10_07_00_28.AEST.2005.narrabn.c5.rot.jpg'
p877
aS'daytimex_1170104428.Tue.Jan.30_07_00_28.AEST.2007.narrabn.c5.rot.jpg'
p878
aS'daytimex_1100553644.Tue.Nov.16_07_20_44.AEST.2004.narrabn.c5.rot.jpg'
p879
aS'daytimex_1230757227.Thu.Jan.01_07_00_27.AEST.2009.narrabn.c5.rot.jpg'
p880
aS'daytimex_1237323627.Wed.Mar.18_07_00_27.AEST.2009.narrabn.c5.rot.jpg'
p881
aS'daytimex_1382302828.Mon.Oct.21_07_00_28.AEST.2013.narrabn.c5.rot.jpg'
p882
aS'daytimex_1336770028.Sat.May.12_07_00_28.AEST.2012.narrabn.c5.rot.jpg'
p883
aS'daytimex_1304715627.Sat.May.07_07_00_27.AEST.2011.narrabn.c5.rot.jpg'
p884
aS'daytimex_1113771628.Mon.Apr.18_07_00_28.AEST.2005.narrabn.c5.rot.jpg'
p885
aS'daytimex_1344286827.Tue.Aug.07_07_00_27.AEST.2012.narrabn.c5.rot.jpg'
p886
aS'daytimex_1332795628.Tue.Mar.27_07_00_28.AEST.2012.narrabn.c5.rot.jpg'
p887
aS'daytimex_1166994028.Mon.Dec.25_07_00_28.AEST.2006.narrabn.c5.rot.jpg'
p888
aS'daytimex_1346533227.Sun.Sep.02_07_00_27.AEST.2012.narrabn.c5.rot.jpg'
p889
aS'daytimex_1257195628.Tue.Nov.03_07_00_28.AEST.2009.narrabn.c5.rot.jpg'
p890
aS'daytimex_1277758827.Tue.Jun.29_07_00_27.AEST.2010.narrabn.c5.rot.jpg'
p891
aS'daytimex_1104699628.Mon.Jan.03_07_00_28.AEST.2005.narrabn.c5.rot.jpg'
p892
aS'daytimex_1369515627.Sun.May.26_07_00_27.AEST.2013.narrabn.c5.rot.jpg'
p893
aS'daytimex_1188853227.Tue.Sep.04_07_00_27.AEST.2007.narrabn.c5.rot.jpg'
p894
aS'daytimex_1210021227.Tue.May.06_07_00_27.AEST.2008.narrabn.c5.rot.jpg'
p895
aS'daytimex_1106600428.Tue.Jan.25_07_00_28.AEST.2005.narrabn.c5.rot.jpg'
p896
aS'daytimex_1308430828.Sun.Jun.19_07_00_28.AEST.2011.narrabn.c5.rot.jpg'
p897
aS'daytimex_1093641644.Sat.Aug.28_07_20_44.AEST.2004.narrabn.c5.rot.jpg'
p898
aS'daytimex_1277845228.Wed.Jun.30_07_00_28.AEST.2010.narrabn.c5.rot.jpg'
p899
aS'daytimex_1290459628.Tue.Nov.23_07_00_28.AEST.2010.narrabn.c5.rot.jpg'
p900
aS'daytimex_1239138028.Wed.Apr.08_07_00_28.AEST.2009.narrabn.c5.rot.jpg'
p901
aS'daytimex_1103403628.Sun.Dec.19_07_00_28.AEST.2004.narrabn.c5.rot.jpg'
p902
aS'daytimex_1232744428.Sat.Jan.24_07_00_28.AEST.2009.narrabn.c5.rot.jpg'
p903
aS'daytimex_1164229228.Thu.Nov.23_07_00_28.AEST.2006.narrabn.c5.rot.jpg'
p904
aS'daytimex_1130446828.Fri.Oct.28_07_00_28.AEST.2005.narrabn.c5.rot.jpg'
p905
aS'daytimex_1132261228.Fri.Nov.18_07_00_28.AEST.2005.narrabn.c5.rot.jpg'
p906
aS'daytimex_1413493206.Fri.Oct.17_07_00_06.AEST.2014.narrabn.c5.rot.jpg'
p907
aS'daytimex_1366664426.Tue.Apr.23_07_00_26.AEST.2013.narrabn.c5.rot.jpg'
p908
aS'daytimex_1102885227.Mon.Dec.13_07_00_27.AEST.2004.narrabn.c5.rot.jpg'
p909
aS'daytimex_1094764845.Fri.Sep.10_07_20_45.AEST.2004.narrabn.c5.rot.jpg'
p910
aS'daytimex_1307134828.Sat.Jun.04_07_00_28.AEST.2011.narrabn.c5.rot.jpg'
p911
aS'daytimex_1289422827.Thu.Nov.11_07_00_27.AEST.2010.narrabn.c5.rot.jpg'
p912
aS'daytimex_1168722027.Sun.Jan.14_07_00_27.AEST.2007.narrabn.c5.rot.jpg'
p913
aS'daytimex_1166907628.Sun.Dec.24_07_00_28.AEST.2006.narrabn.c5.rot.jpg'
p914
aS'daytimex_1130878828.Wed.Nov.02_07_00_28.AEST.2005.narrabn.c5.rot.jpg'
p915
aS'daytimex_1349730027.Tue.Oct.09_07_00_27.AEST.2012.narrabn.c5.rot.jpg'
p916
aS'daytimex_1106341227.Sat.Jan.22_07_00_27.AEST.2005.narrabn.c5.rot.jpg'
p917
aS'daytimex_1194469228.Thu.Nov.08_07_00_28.AEST.2007.narrabn.c5.rot.jpg'
p918
aS'daytimex_1223931628.Tue.Oct.14_07_00_28.AEST.2008.narrabn.c5.rot.jpg'
p919
aS'daytimex_1289336428.Wed.Nov.10_07_00_28.AEST.2010.narrabn.c5.rot.jpg'
p920
aS'daytimex_1259442028.Sun.Nov.29_07_00_28.AEST.2009.narrabn.c5.rot.jpg'
p921
aS'daytimex_1275080427.Sat.May.29_07_00_27.AEST.2010.narrabn.c5.rot.jpg'
p922
aS'daytimex_1364245227.Tue.Mar.26_07_00_27.AEST.2013.narrabn.c5.rot.jpg'
p923
aS'daytimex_1144702827.Tue.Apr.11_07_00_27.AEST.2006.narrabn.c5.rot.jpg'
p924
aS'daytimex_1137013242.Thu.Jan.12_07_00_42.AEST.2006.narrabn.c5.rot.jpg'
p925
aS'daytimex_1168981228.Wed.Jan.17_07_00_28.AEST.2007.narrabn.c5.rot.jpg'
p926
aS'daytimex_1106514027.Mon.Jan.24_07_00_27.AEST.2005.narrabn.c5.rot.jpg'
p927
aS'daytimex_1355518826.Sat.Dec.15_07_00_26.AEST.2012.narrabn.c5.rot.jpg'
p928
aS'daytimex_1105131627.Sat.Jan.08_07_00_27.AEST.2005.narrabn.c5.rot.jpg'
p929
aS'daytimex_1125781227.Sun.Sep.04_07_00_27.AEST.2005.narrabn.c5.rot.jpg'
p930
aS'daytimex_1100640044.Wed.Nov.17_07_20_44.AEST.2004.narrabn.c5.rot.jpg'
p931
aS'daytimex_1211058028.Sun.May.18_07_00_28.AEST.2008.narrabn.c5.rot.jpg'
p932
aS'daytimex_1422322207.Tue.Jan.27_11_30_07.AEST.2015.narrabn.c5.rot.jpg'
p933
aS'daytimex_1189458027.Tue.Sep.11_07_00_27.AEST.2007.narrabn.c5.rot.jpg'
p934
aS'daytimex_1311627628.Tue.Jul.26_07_00_28.AEST.2011.narrabn.c5.rot.jpg'
p935
aS'daytimex_1367701227.Sun.May.05_07_00_27.AEST.2013.narrabn.c5.rot.jpg'
p936
aS'daytimex_1103058027.Wed.Dec.15_07_00_27.AEST.2004.narrabn.c5.rot.jpg'
p937
aS'daytimex_1335128427.Mon.Apr.23_07_00_27.AEST.2012.narrabn.c5.rot.jpg'
p938
aS'daytimex_1352494827.Sat.Nov.10_07_00_27.AEST.2012.narrabn.c5.rot.jpg'
p939
aS'daytimex_1425850207.Mon.Mar.09_07_30_07.AEST.2015.narrabn.c5.rot.jpg'
p940
aS'daytimex_1384462828.Fri.Nov.15_07_00_28.AEST.2013.narrabn.c5.rot.jpg'
p941
aS'daytimex_1262379627.Sat.Jan.02_07_00_27.AEST.2010.narrabn.c5.rot.jpg'
p942
aS'daytimex_1232658027.Fri.Jan.23_07_00_27.AEST.2009.narrabn.c5.rot.jpg'
p943
aS'daytimex_1162674028.Sun.Nov.05_07_00_28.AEST.2006.narrabn.c5.rot.jpg'
p944
aS'daytimex_1123362028.Sun.Aug.07_07_00_28.AEST.2005.narrabn.c5.rot.jpg'
p945
aS'daytimex_1337288428.Fri.May.18_07_00_28.AEST.2012.narrabn.c5.rot.jpg'
p946
aS'daytimex_1389992427.Sat.Jan.18_07_00_27.AEST.2014.narrabn.c5.rot.jpg'
p947
aS'daytimex_1119733228.Sun.Jun.26_07_00_28.AEST.2005.narrabn.c5.rot.jpg'
p948
aS'daytimex_1327179628.Sun.Jan.22_07_00_28.AEST.2012.narrabn.c5.rot.jpg'
p949
aS'daytimex_1344805229.Mon.Aug.13_07_00_29.AEST.2012.narrabn.c5.rot.jpg'
p950
aS'daytimex_1105822828.Sun.Jan.16_07_00_28.AEST.2005.narrabn.c5.rot.jpg'
p951
aS'daytimex_1199912427.Thu.Jan.10_07_00_27.AEST.2008.narrabn.c5.rot.jpg'
p952
aS'daytimex_1390165228.Mon.Jan.20_07_00_28.AEST.2014.narrabn.c5.rot.jpg'
p953
aS'daytimex_1363467627.Sun.Mar.17_07_00_27.AEST.2013.narrabn.c5.rot.jpg'
p954
aS'daytimex_1200085228.Sat.Jan.12_07_00_28.AEST.2008.narrabn.c5.rot.jpg'
p955
aS'daytimex_1144616428.Mon.Apr.10_07_00_28.AEST.2006.narrabn.c5.rot.jpg'
p956
aS'daytimex_1199653228.Mon.Jan.07_07_00_28.AEST.2008.narrabn.c5.rot.jpg'
p957
aS'daytimex_1365714027.Fri.Apr.12_07_00_27.AEST.2013.narrabn.c5.rot.jpg'
p958
aS'daytimex_1129755628.Thu.Oct.20_07_00_28.AEST.2005.narrabn.c5.rot.jpg'
p959
aS'daytimex_1200258027.Mon.Jan.14_07_00_27.AEST.2008.narrabn.c5.rot.jpg'
p960
aS'daytimex_1362862827.Sun.Mar.10_07_00_27.AEST.2013.narrabn.c5.rot.jpg'
p961
aS'daytimex_1364158827.Mon.Mar.25_07_00_27.AEST.2013.narrabn.c5.rot.jpg'
p962
aS'daytimex_1238360427.Mon.Mar.30_07_00_27.AEST.2009.narrabn.c5.rot.jpg'
p963
aS'daytimex_1363035626.Tue.Mar.12_07_00_26.AEST.2013.narrabn.c5.rot.jpg'
p964
aS'daytimex_1199739627.Tue.Jan.08_07_00_27.AEST.2008.narrabn.c5.rot.jpg'
p965
aS'daytimex_1359579627.Thu.Jan.31_07_00_27.AEST.2013.narrabn.c5.rot.jpg'
p966
aS'daytimex_1202331628.Thu.Feb.07_07_00_28.AEST.2008.narrabn.c5.rot.jpg'
p967
aS'daytimex_1169413228.Mon.Jan.22_07_00_28.AEST.2007.narrabn.c5.rot.jpg'
p968
aS'daytimex_1098652844.Mon.Oct.25_07_20_44.AEST.2004.narrabn.c5.rot.jpg'
p969
aS'daytimex_1199826027.Wed.Jan.09_07_00_27.AEST.2008.narrabn.c5.rot.jpg'
p970
aS'daytimex_1364072427.Sun.Mar.24_07_00_27.AEST.2013.narrabn.c5.rot.jpg'
p971
aS'daytimex_1364418026.Thu.Mar.28_07_00_26.AEST.2013.narrabn.c5.rot.jpg'
p972
aS'daytimex_1364331627.Wed.Mar.27_07_00_27.AEST.2013.narrabn.c5.rot.jpg'
p973
aS'daytimex_1307048427.Fri.Jun.03_07_00_27.AEST.2011.narrabn.c5.rot.jpg'
p974
aS'daytimex_1365454827.Tue.Apr.09_07_00_27.AEST.2013.narrabn.c5.rot.jpg'
p975
aS'daytimex_1102626027.Fri.Dec.10_07_00_27.AEST.2004.narrabn.c5.rot.jpg'
p976
aS'daytimex_1098739244.Tue.Oct.26_07_20_44.AEST.2004.narrabn.c5.rot.jpg'
p977
aS'daytimex_1365109227.Fri.Apr.05_07_00_27.AEST.2013.narrabn.c5.rot.jpg'
p978
aS'daytimex_1363899627.Fri.Mar.22_07_00_27.AEST.2013.narrabn.c5.rot.jpg'
p979
aS'daytimex_1129842028.Fri.Oct.21_07_00_28.AEST.2005.narrabn.c5.rot.jpg'
p980
aS'daytimex_1199307628.Thu.Jan.03_07_00_28.AEST.2008.narrabn.c5.rot.jpg'
p981
aS'daytimex_1161205227.Thu.Oct.19_07_00_27.AEST.2006.narrabn.c5.rot.jpg'
p982
aS'daytimex_1098825644.Wed.Oct.27_07_20_44.AEST.2004.narrabn.c5.rot.jpg'
p983
aS'daytimex_1141419628.Sat.Mar.04_07_00_28.AEST.2006.narrabn.c5.rot.jpg'
p984
aS'daytimex_1366837226.Thu.Apr.25_07_00_26.AEST.2013.narrabn.c5.rot.jpg'
p985
aS'daytimex_1364504427.Fri.Mar.29_07_00_27.AEST.2013.narrabn.c5.rot.jpg'
p986
aS'daytimex_1199998828.Fri.Jan.11_07_00_28.AEST.2008.narrabn.c5.rot.jpg'
p987
aS'daytimex_1363381227.Sat.Mar.16_07_00_27.AEST.2013.narrabn.c5.rot.jpg'
p988
aS'daytimex_1363294826.Fri.Mar.15_07_00_26.AEST.2013.narrabn.c5.rot.jpg'
p989
aS'daytimex_1366059626.Tue.Apr.16_07_00_26.AEST.2013.narrabn.c5.rot.jpg'
p990
aS'daytimex_1304370028.Tue.May.03_07_00_28.AEST.2011.narrabn.c5.rot.jpg'
p991
aS'daytimex_1102453228.Wed.Dec.08_07_00_28.AEST.2004.narrabn.c5.rot.jpg'
p992
aS'daytimex_1200171628.Sun.Jan.13_07_00_28.AEST.2008.narrabn.c5.rot.jpg'
p993
aS'daytimex_1154120427.Sat.Jul.29_07_00_27.AEST.2006.narrabn.c5.rot.jpg'
p994
aS'daytimex_1102712427.Sat.Dec.11_07_00_27.AEST.2004.narrabn.c5.rot.jpg'
p995
aS'daytimex_1298494828.Thu.Feb.24_07_00_28.AEST.2011.narrabn.c5.rot.jpg'
p996
aS'daytimex_1252270827.Mon.Sep.07_07_00_27.AEST.2009.narrabn.c5.rot.jpg'
p997
aS'daytimex_1258837227.Sun.Nov.22_07_00_27.AEST.2009.narrabn.c5.rot.jpg'
p998
aS'daytimex_1365973226.Mon.Apr.15_07_00_26.AEST.2013.narrabn.c5.rot.jpg'
p999
aS'daytimex_1169326827.Sun.Jan.21_07_00_27.AEST.2007.narrabn.c5.rot.jpg'
p1000
aS'daytimex_1246309228.Tue.Jun.30_07_00_28.AEST.2009.narrabn.c5.erase.jpg'
p1001
aS'daytimex_1115413227.Sat.May.07_07_00_27.AEST.2005.narrabn.c5.erase.jpg'
p1002
aS'daytimex_1244840427.Sat.Jun.13_07_00_27.AEST.2009.narrabn.c5.erase.jpg'
p1003
aS'daytimex_1178571627.Tue.May.08_07_00_27.AEST.2007.narrabn.c5.erase.jpg'
p1004
aS'daytimex_1303506028.Sat.Apr.23_07_00_28.AEST.2011.narrabn.c5.erase.jpg'
p1005
aS'daytimex_1151614827.Fri.Jun.30_07_00_27.AEST.2006.narrabn.c5.erase.jpg'
p1006
aS'daytimex_1244235628.Sat.Jun.06_07_00_28.AEST.2009.narrabn.c5.erase.jpg'
p1007
aS'daytimex_1216587627.Mon.Jul.21_07_00_27.AEST.2008.narrabn.c5.erase.jpg'
p1008
aS'daytimex_1149195628.Fri.Jun.02_07_00_28.AEST.2006.narrabn.c5.erase.jpg'
p1009
aS'daytimex_1272056427.Sat.Apr.24_07_00_27.AEST.2010.narrabn.c5.erase.jpg'
p1010
aS'daytimex_1180213228.Sun.May.27_07_00_28.AEST.2007.narrabn.c5.erase.jpg'
p1011
aS'daytimex_1152478828.Mon.Jul.10_07_00_28.AEST.2006.narrabn.c5.erase.jpg'
p1012
aS'daytimex_1152565228.Tue.Jul.11_07_00_28.AEST.2006.narrabn.c5.erase.jpg'
p1013
aS'daytimex_1179522028.Sat.May.19_07_00_28.AEST.2007.narrabn.c5.erase.jpg'
p1014
aS'daytimex_1244494828.Tue.Jun.09_07_00_28.AEST.2009.narrabn.c5.erase.jpg'
p1015
aS'daytimex_1115326827.Fri.May.06_07_00_27.AEST.2005.narrabn.c5.erase.jpg'
p1016
aS'daytimex_1218574827.Wed.Aug.13_07_00_27.AEST.2008.narrabn.c5.erase.jpg'
p1017
aS'daytimex_1216414828.Sat.Jul.19_07_00_28.AEST.2008.narrabn.c5.erase.jpg'
p1018
aS'daytimex_1244322027.Sun.Jun.07_07_00_27.AEST.2009.narrabn.c5.erase.jpg'
p1019
aS'daytimex_1299358827.Sun.Mar.06_07_00_27.AEST.2011.narrabn.c5.erase.jpg'
p1020
aS'daytimex_1218315628.Sun.Aug.10_07_00_28.AEST.2008.narrabn.c5.erase.jpg'
p1021
aS'daytimex_1216328427.Fri.Jul.18_07_00_27.AEST.2008.narrabn.c5.erase.jpg'
p1022
aS'daytimex_1377205228.Fri.Aug.23_07_00_28.AEST.2013.narrabn.c5.erase.jpg'
p1023
aS'daytimex_1280523628.Sat.Jul.31_07_00_28.AEST.2010.narrabn.c5.erase.jpg'
p1024
aS'daytimex_1180904428.Mon.Jun.04_07_00_28.AEST.2007.narrabn.c5.erase.jpg'
p1025
aS'daytimex_1367182827.Mon.Apr.29_07_00_27.AEST.2013.narrabn.c5.erase.jpg'
p1026
aS'daytimex_1362776427.Sat.Mar.09_07_00_27.AEST.2013.narrabn.c5.erase.jpg'
p1027
aS'daytimex_1206997228.Tue.Apr.01_07_00_28.AEST.2008.narrabn.c5.erase.jpg'
p1028
aS'daytimex_1183410028.Tue.Jul.03_07_00_28.AEST.2007.narrabn.c5.erase.jpg'
p1029
aS'daytimex_1271624427.Mon.Apr.19_07_00_27.AEST.2010.narrabn.c5.erase.jpg'
p1030
aS'daytimex_1362603627.Thu.Mar.07_07_00_27.AEST.2013.narrabn.c5.erase.jpg'
p1031
aS'daytimex_1115067628.Tue.May.03_07_00_28.AEST.2005.narrabn.c5.erase.jpg'
p1032
aS'daytimex_1272315628.Tue.Apr.27_07_00_28.AEST.2010.narrabn.c5.erase.jpg'
p1033
aS'daytimex_1174338027.Tue.Mar.20_07_00_27.AEST.2007.narrabn.c5.erase.jpg'
p1034
aS'daytimex_1115586027.Mon.May.09_07_00_27.AEST.2005.narrabn.c5.erase.jpg'
p1035
aS'daytimex_1115758827.Wed.May.11_07_00_27.AEST.2005.narrabn.c5.erase.jpg'
p1036
aS'daytimex_1178398828.Sun.May.06_07_00_28.AEST.2007.narrabn.c5.erase.jpg'
p1037
aS'daytimex_1285621228.Tue.Sep.28_07_00_28.AEST.2010.narrabn.c5.erase.jpg'
p1038
aS'daytimex_1129928428.Sat.Oct.22_07_00_28.AEST.2005.narrabn.c5.erase.jpg'
p1039
aS'daytimex_1339448428.Tue.Jun.12_07_00_28.AEST.2012.narrabn.c5.erase.jpg'
p1040
aS'daytimex_1243371628.Wed.May.27_07_00_28.AEST.2009.narrabn.c5.erase.jpg'
p1041
aS'daytimex_1165525227.Fri.Dec.08_07_00_27.AEST.2006.narrabn.c5.erase.jpg'
p1042
aS'daytimex_1122843628.Mon.Aug.01_07_00_28.AEST.2005.narrabn.c5.erase.jpg'
p1043
aS'daytimex_1269032427.Sat.Mar.20_07_00_27.AEST.2010.narrabn.c5.erase.jpg'
p1044
aS'daytimex_1321822828.Mon.Nov.21_07_00_28.AEST.2011.narrabn.c5.erase.jpg'
p1045
aS'daytimex_1362344426.Mon.Mar.04_07_00_26.AEST.2013.narrabn.c5.erase.jpg'
p1046
aS'daytimex_1367269226.Tue.Apr.30_07_00_26.AEST.2013.narrabn.c5.erase.jpg'
p1047
aS'daytimex_1279141227.Thu.Jul.15_07_00_27.AEST.2010.narrabn.c5.erase.jpg'
p1048
aS'daytimex_1174683628.Sat.Mar.24_07_00_28.AEST.2007.narrabn.c5.erase.jpg'
p1049
aS'daytimex_1179262828.Wed.May.16_07_00_28.AEST.2007.narrabn.c5.erase.jpg'
p1050
aS'daytimex_1205960427.Thu.Mar.20_07_00_27.AEST.2008.narrabn.c5.erase.jpg'
p1051
aS'daytimex_1160082028.Fri.Oct.06_07_00_28.AEST.2006.narrabn.c5.erase.jpg'
p1052
aS'daytimex_1176066028.Mon.Apr.09_07_00_28.AEST.2007.narrabn.c5.erase.jpg'
p1053
aS'daytimex_1278018028.Fri.Jul.02_07_00_28.AEST.2010.narrabn.c5.erase.jpg'
p1054
aS'daytimex_1393707627.Sun.Mar.02_07_00_27.AEST.2014.narrabn.c5.erase.jpg'
p1055
aS'daytimex_1285448428.Sun.Sep.26_07_00_28.AEST.2010.narrabn.c5.erase.jpg'
p1056
aS'daytimex_1210366827.Sat.May.10_07_00_27.AEST.2008.narrabn.c5.erase.jpg'
p1057
aS'daytimex_1179435627.Fri.May.18_07_00_27.AEST.2007.narrabn.c5.erase.jpg'
p1058
aS'daytimex_1164488428.Sun.Nov.26_07_00_28.AEST.2006.narrabn.c5.erase.jpg'
p1059
aS'daytimex_1114203627.Sat.Apr.23_07_00_27.AEST.2005.narrabn.c5.erase.jpg'
p1060
aS'daytimex_1192482027.Tue.Oct.16_07_00_27.AEST.2007.narrabn.c5.erase.jpg'
p1061
aS'daytimex_1320699628.Tue.Nov.08_07_00_28.AEST.2011.narrabn.c5.erase.jpg'
p1062
aS'daytimex_1421803807.Wed.Jan.21_11_30_07.AEST.2015.narrabn.c5.erase.jpg'
p1063
aS'daytimex_1192136427.Fri.Oct.12_07_00_27.AEST.2007.narrabn.c5.erase.jpg'
p1064
aS'daytimex_1210194028.Thu.May.08_07_00_28.AEST.2008.narrabn.c5.erase.jpg'
p1065
aS'daytimex_1166475628.Tue.Dec.19_07_00_28.AEST.2006.narrabn.c5.erase.jpg'
p1066
aS'daytimex_1397077227.Thu.Apr.10_07_00_27.AEST.2014.narrabn.c5.erase.jpg'
p1067
aS'daytimex_1243198828.Mon.May.25_07_00_28.AEST.2009.narrabn.c5.erase.jpg'
p1068
aS'daytimex_1206046827.Fri.Mar.21_07_00_27.AEST.2008.narrabn.c5.erase.jpg'
p1069
aS'daytimex_1215032428.Thu.Jul.03_07_00_28.AEST.2008.narrabn.c5.erase.jpg'
p1070
aS'daytimex_1095542444.Sun.Sep.19_07_20_44.AEST.2004.narrabn.c5.erase.jpg'
p1071
aS'daytimex_1220043628.Sat.Aug.30_07_00_28.AEST.2008.narrabn.c5.erase.jpg'
p1072
aS'daytimex_1305752427.Thu.May.19_07_00_27.AEST.2011.narrabn.c5.erase.jpg'
p1073
aS'daytimex_1300482028.Sat.Mar.19_07_00_28.AEST.2011.narrabn.c5.erase.jpg'
p1074
aS'daytimex_1396040427.Sat.Mar.29_07_00_27.AEST.2014.narrabn.c5.erase.jpg'
p1075
aS'daytimex_1152738027.Thu.Jul.13_07_00_27.AEST.2006.narrabn.c5.erase.jpg'
p1076
aS'daytimex_1114117228.Fri.Apr.22_07_00_28.AEST.2005.narrabn.c5.erase.jpg'
p1077
aS'daytimex_1193432428.Sat.Oct.27_07_00_28.AEST.2007.narrabn.c5.erase.jpg'
p1078
aS'daytimex_1285362027.Sat.Sep.25_07_00_27.AEST.2010.narrabn.c5.erase.jpg'
p1079
aS'daytimex_1091568045.Wed.Aug.04_07_20_45.AEST.2004.narrabn.c5.erase.jpg'
p1080
aS'daytimex_1176584427.Sun.Apr.15_07_00_27.AEST.2007.narrabn.c5.erase.jpg'
p1081
aS'daytimex_1297803627.Wed.Feb.16_07_00_27.AEST.2011.narrabn.c5.erase.jpg'
p1082
aS'daytimex_1115154028.Wed.May.04_07_00_28.AEST.2005.narrabn.c5.erase.jpg'
p1083
aS'daytimex_1210280428.Fri.May.09_07_00_28.AEST.2008.narrabn.c5.erase.jpg'
p1084
aS'daytimex_1095456045.Sat.Sep.18_07_20_45.AEST.2004.narrabn.c5.erase.jpg'
p1085
aS'daytimex_1296421228.Mon.Jan.31_07_00_28.AEST.2011.narrabn.c5.erase.jpg'
p1086
aS'daytimex_1271278827.Thu.Apr.15_07_00_27.AEST.2010.narrabn.c5.erase.jpg'
p1087
aS'daytimex_1321045227.Sat.Nov.12_07_00_27.AEST.2011.narrabn.c5.erase.jpg'
p1088
aS'daytimex_1218747627.Fri.Aug.15_07_00_27.AEST.2008.narrabn.c5.erase.jpg'
p1089
aS'daytimex_1407358807.Thu.Aug.07_07_00_07.AEST.2014.narrabn.c5.erase.jpg'
p1090
aS'daytimex_1269291628.Tue.Mar.23_07_00_28.AEST.2010.narrabn.c5.erase.jpg'
p1091
aS'daytimex_1096492844.Thu.Sep.30_07_20_44.AEST.2004.narrabn.c5.erase.jpg'
p1092
aS'daytimex_1264194027.Sat.Jan.23_07_00_27.AEST.2010.narrabn.c5.erase.jpg'
p1093
aS'daytimex_1148331627.Tue.May.23_07_00_27.AEST.2006.narrabn.c5.erase.jpg'
p1094
aS'daytimex_1280350828.Thu.Jul.29_07_00_28.AEST.2010.narrabn.c5.erase.jpg'
p1095
aS'daytimex_1358283627.Wed.Jan.16_07_00_27.AEST.2013.narrabn.c5.erase.jpg'
p1096
aS'daytimex_1156798828.Tue.Aug.29_07_00_28.AEST.2006.narrabn.c5.erase.jpg'
p1097
aS'daytimex_1218920428.Sun.Aug.17_07_00_28.AEST.2008.narrabn.c5.erase.jpg'
p1098
aS'daytimex_1269550828.Fri.Mar.26_07_00_28.AEST.2010.narrabn.c5.erase.jpg'
p1099
aS'daytimex_1253394027.Sun.Sep.20_07_00_27.AEST.2009.narrabn.c5.erase.jpg'
p1100
aS'daytimex_1159909227.Wed.Oct.04_07_00_27.AEST.2006.narrabn.c5.erase.jpg'
p1101
aS'daytimex_1266267628.Tue.Feb.16_07_00_28.AEST.2010.narrabn.c5.erase.jpg'
p1102
aS'daytimex_1313614827.Thu.Aug.18_07_00_27.AEST.2011.narrabn.c5.erase.jpg'
p1103
aS'daytimex_1383166828.Thu.Oct.31_07_00_28.AEST.2013.narrabn.c5.erase.jpg'
p1104
aS'daytimex_1368478827.Tue.May.14_07_00_27.AEST.2013.narrabn.c5.erase.jpg'
p1105
aS'daytimex_1194901228.Tue.Nov.13_07_00_28.AEST.2007.narrabn.c5.erase.jpg'
p1106
aS'daytimex_1170968427.Fri.Feb.09_07_00_27.AEST.2007.narrabn.c5.erase.jpg'
p1107
aS'daytimex_1313182827.Sat.Aug.13_07_00_27.AEST.2011.narrabn.c5.erase.jpg'
p1108
aS'daytimex_1263070827.Sun.Jan.10_07_00_27.AEST.2010.narrabn.c5.erase.jpg'
p1109
aS'daytimex_1118264428.Thu.Jun.09_07_00_28.AEST.2005.narrabn.c5.erase.jpg'
p1110
aS'daytimex_1348779627.Fri.Sep.28_07_00_27.AEST.2012.narrabn.c5.erase.jpg'
p1111
aS'daytimex_1331499627.Mon.Mar.12_07_00_27.AEST.2012.narrabn.c5.erase.jpg'
p1112
aS'daytimex_1375736428.Tue.Aug.06_07_00_28.AEST.2013.narrabn.c5.erase.jpg'
p1113
aS'daytimex_1158613228.Tue.Sep.19_07_00_28.AEST.2006.narrabn.c5.erase.jpg'
p1114
aS'daytimex_1277240427.Wed.Jun.23_07_00_27.AEST.2010.narrabn.c5.erase.jpg'
p1115
aS'daytimex_1132347628.Sat.Nov.19_07_00_28.AEST.2005.narrabn.c5.erase.jpg'
p1116
aS'daytimex_1392930028.Fri.Feb.21_07_00_28.AEST.2014.narrabn.c5.erase.jpg'
p1117
aS'daytimex_1263675627.Sun.Jan.17_07_00_27.AEST.2010.narrabn.c5.erase.jpg'
p1118
aS'daytimex_1390424427.Thu.Jan.23_07_00_27.AEST.2014.narrabn.c5.erase.jpg'
p1119
aS'daytimex_1296248427.Sat.Jan.29_07_00_27.AEST.2011.narrabn.c5.erase.jpg'
p1120
aS'daytimex_1132088427.Wed.Nov.16_07_00_27.AEST.2005.narrabn.c5.erase.jpg'
p1121
aS'daytimex_1233003628.Tue.Jan.27_07_00_28.AEST.2009.narrabn.c5.erase.jpg'
p1122
aS'daytimex_1286485227.Fri.Oct.08_07_00_27.AEST.2010.narrabn.c5.erase.jpg'
p1123
aS'daytimex_1209589228.Thu.May.01_07_00_28.AEST.2008.narrabn.c5.erase.jpg'
p1124
aS'daytimex_1246654827.Sat.Jul.04_07_00_27.AEST.2009.narrabn.c5.erase.jpg'
p1125
aS'daytimex_1136062828.Sun.Jan.01_07_00_28.AEST.2006.narrabn.c5.erase.jpg'
p1126
aS'daytimex_1105304428.Mon.Jan.10_07_00_28.AEST.2005.narrabn.c5.erase.jpg'
p1127
aS'daytimex_1170104428.Tue.Jan.30_07_00_28.AEST.2007.narrabn.c5.erase.jpg'
p1128
aS'daytimex_1100553644.Tue.Nov.16_07_20_44.AEST.2004.narrabn.c5.erase.jpg'
p1129
aS'daytimex_1230757227.Thu.Jan.01_07_00_27.AEST.2009.narrabn.c5.erase.jpg'
p1130
aS'daytimex_1237323627.Wed.Mar.18_07_00_27.AEST.2009.narrabn.c5.erase.jpg'
p1131
aS'daytimex_1382302828.Mon.Oct.21_07_00_28.AEST.2013.narrabn.c5.erase.jpg'
p1132
aS'daytimex_1336770028.Sat.May.12_07_00_28.AEST.2012.narrabn.c5.erase.jpg'
p1133
aS'daytimex_1304715627.Sat.May.07_07_00_27.AEST.2011.narrabn.c5.erase.jpg'
p1134
aS'daytimex_1113771628.Mon.Apr.18_07_00_28.AEST.2005.narrabn.c5.erase.jpg'
p1135
aS'daytimex_1344286827.Tue.Aug.07_07_00_27.AEST.2012.narrabn.c5.erase.jpg'
p1136
aS'daytimex_1332795628.Tue.Mar.27_07_00_28.AEST.2012.narrabn.c5.erase.jpg'
p1137
aS'daytimex_1166994028.Mon.Dec.25_07_00_28.AEST.2006.narrabn.c5.erase.jpg'
p1138
aS'daytimex_1346533227.Sun.Sep.02_07_00_27.AEST.2012.narrabn.c5.erase.jpg'
p1139
aS'daytimex_1257195628.Tue.Nov.03_07_00_28.AEST.2009.narrabn.c5.erase.jpg'
p1140
aS'daytimex_1277758827.Tue.Jun.29_07_00_27.AEST.2010.narrabn.c5.erase.jpg'
p1141
aS'daytimex_1104699628.Mon.Jan.03_07_00_28.AEST.2005.narrabn.c5.erase.jpg'
p1142
aS'daytimex_1369515627.Sun.May.26_07_00_27.AEST.2013.narrabn.c5.erase.jpg'
p1143
aS'daytimex_1188853227.Tue.Sep.04_07_00_27.AEST.2007.narrabn.c5.erase.jpg'
p1144
aS'daytimex_1210021227.Tue.May.06_07_00_27.AEST.2008.narrabn.c5.erase.jpg'
p1145
aS'daytimex_1106600428.Tue.Jan.25_07_00_28.AEST.2005.narrabn.c5.erase.jpg'
p1146
aS'daytimex_1308430828.Sun.Jun.19_07_00_28.AEST.2011.narrabn.c5.erase.jpg'
p1147
aS'daytimex_1093641644.Sat.Aug.28_07_20_44.AEST.2004.narrabn.c5.erase.jpg'
p1148
aS'daytimex_1277845228.Wed.Jun.30_07_00_28.AEST.2010.narrabn.c5.erase.jpg'
p1149
aS'daytimex_1290459628.Tue.Nov.23_07_00_28.AEST.2010.narrabn.c5.erase.jpg'
p1150
aS'daytimex_1239138028.Wed.Apr.08_07_00_28.AEST.2009.narrabn.c5.erase.jpg'
p1151
aS'daytimex_1103403628.Sun.Dec.19_07_00_28.AEST.2004.narrabn.c5.erase.jpg'
p1152
aS'daytimex_1232744428.Sat.Jan.24_07_00_28.AEST.2009.narrabn.c5.erase.jpg'
p1153
aS'daytimex_1164229228.Thu.Nov.23_07_00_28.AEST.2006.narrabn.c5.erase.jpg'
p1154
aS'daytimex_1130446828.Fri.Oct.28_07_00_28.AEST.2005.narrabn.c5.erase.jpg'
p1155
aS'daytimex_1132261228.Fri.Nov.18_07_00_28.AEST.2005.narrabn.c5.erase.jpg'
p1156
aS'daytimex_1413493206.Fri.Oct.17_07_00_06.AEST.2014.narrabn.c5.erase.jpg'
p1157
aS'daytimex_1366664426.Tue.Apr.23_07_00_26.AEST.2013.narrabn.c5.erase.jpg'
p1158
aS'daytimex_1102885227.Mon.Dec.13_07_00_27.AEST.2004.narrabn.c5.erase.jpg'
p1159
aS'daytimex_1094764845.Fri.Sep.10_07_20_45.AEST.2004.narrabn.c5.erase.jpg'
p1160
aS'daytimex_1307134828.Sat.Jun.04_07_00_28.AEST.2011.narrabn.c5.erase.jpg'
p1161
aS'daytimex_1289422827.Thu.Nov.11_07_00_27.AEST.2010.narrabn.c5.erase.jpg'
p1162
aS'daytimex_1168722027.Sun.Jan.14_07_00_27.AEST.2007.narrabn.c5.erase.jpg'
p1163
aS'daytimex_1166907628.Sun.Dec.24_07_00_28.AEST.2006.narrabn.c5.erase.jpg'
p1164
aS'daytimex_1130878828.Wed.Nov.02_07_00_28.AEST.2005.narrabn.c5.erase.jpg'
p1165
aS'daytimex_1349730027.Tue.Oct.09_07_00_27.AEST.2012.narrabn.c5.erase.jpg'
p1166
aS'daytimex_1106341227.Sat.Jan.22_07_00_27.AEST.2005.narrabn.c5.erase.jpg'
p1167
aS'daytimex_1194469228.Thu.Nov.08_07_00_28.AEST.2007.narrabn.c5.erase.jpg'
p1168
aS'daytimex_1223931628.Tue.Oct.14_07_00_28.AEST.2008.narrabn.c5.erase.jpg'
p1169
aS'daytimex_1289336428.Wed.Nov.10_07_00_28.AEST.2010.narrabn.c5.erase.jpg'
p1170
aS'daytimex_1259442028.Sun.Nov.29_07_00_28.AEST.2009.narrabn.c5.erase.jpg'
p1171
aS'daytimex_1275080427.Sat.May.29_07_00_27.AEST.2010.narrabn.c5.erase.jpg'
p1172
aS'daytimex_1364245227.Tue.Mar.26_07_00_27.AEST.2013.narrabn.c5.erase.jpg'
p1173
aS'daytimex_1144702827.Tue.Apr.11_07_00_27.AEST.2006.narrabn.c5.erase.jpg'
p1174
aS'daytimex_1137013242.Thu.Jan.12_07_00_42.AEST.2006.narrabn.c5.erase.jpg'
p1175
aS'daytimex_1168981228.Wed.Jan.17_07_00_28.AEST.2007.narrabn.c5.erase.jpg'
p1176
aS'daytimex_1106514027.Mon.Jan.24_07_00_27.AEST.2005.narrabn.c5.erase.jpg'
p1177
aS'daytimex_1355518826.Sat.Dec.15_07_00_26.AEST.2012.narrabn.c5.erase.jpg'
p1178
aS'daytimex_1105131627.Sat.Jan.08_07_00_27.AEST.2005.narrabn.c5.erase.jpg'
p1179
aS'daytimex_1125781227.Sun.Sep.04_07_00_27.AEST.2005.narrabn.c5.erase.jpg'
p1180
aS'daytimex_1100640044.Wed.Nov.17_07_20_44.AEST.2004.narrabn.c5.erase.jpg'
p1181
aS'daytimex_1211058028.Sun.May.18_07_00_28.AEST.2008.narrabn.c5.erase.jpg'
p1182
aS'daytimex_1422322207.Tue.Jan.27_11_30_07.AEST.2015.narrabn.c5.erase.jpg'
p1183
aS'daytimex_1189458027.Tue.Sep.11_07_00_27.AEST.2007.narrabn.c5.erase.jpg'
p1184
aS'daytimex_1311627628.Tue.Jul.26_07_00_28.AEST.2011.narrabn.c5.erase.jpg'
p1185
aS'daytimex_1367701227.Sun.May.05_07_00_27.AEST.2013.narrabn.c5.erase.jpg'
p1186
aS'daytimex_1103058027.Wed.Dec.15_07_00_27.AEST.2004.narrabn.c5.erase.jpg'
p1187
aS'daytimex_1335128427.Mon.Apr.23_07_00_27.AEST.2012.narrabn.c5.erase.jpg'
p1188
aS'daytimex_1352494827.Sat.Nov.10_07_00_27.AEST.2012.narrabn.c5.erase.jpg'
p1189
aS'daytimex_1425850207.Mon.Mar.09_07_30_07.AEST.2015.narrabn.c5.erase.jpg'
p1190
aS'daytimex_1384462828.Fri.Nov.15_07_00_28.AEST.2013.narrabn.c5.erase.jpg'
p1191
aS'daytimex_1262379627.Sat.Jan.02_07_00_27.AEST.2010.narrabn.c5.erase.jpg'
p1192
aS'daytimex_1232658027.Fri.Jan.23_07_00_27.AEST.2009.narrabn.c5.erase.jpg'
p1193
aS'daytimex_1162674028.Sun.Nov.05_07_00_28.AEST.2006.narrabn.c5.erase.jpg'
p1194
aS'daytimex_1123362028.Sun.Aug.07_07_00_28.AEST.2005.narrabn.c5.erase.jpg'
p1195
aS'daytimex_1337288428.Fri.May.18_07_00_28.AEST.2012.narrabn.c5.erase.jpg'
p1196
aS'daytimex_1389992427.Sat.Jan.18_07_00_27.AEST.2014.narrabn.c5.erase.jpg'
p1197
aS'daytimex_1119733228.Sun.Jun.26_07_00_28.AEST.2005.narrabn.c5.erase.jpg'
p1198
aS'daytimex_1327179628.Sun.Jan.22_07_00_28.AEST.2012.narrabn.c5.erase.jpg'
p1199
aS'daytimex_1344805229.Mon.Aug.13_07_00_29.AEST.2012.narrabn.c5.erase.jpg'
p1200
aS'daytimex_1105822828.Sun.Jan.16_07_00_28.AEST.2005.narrabn.c5.erase.jpg'
p1201
aS'daytimex_1199912427.Thu.Jan.10_07_00_27.AEST.2008.narrabn.c5.erase.jpg'
p1202
aS'daytimex_1390165228.Mon.Jan.20_07_00_28.AEST.2014.narrabn.c5.erase.jpg'
p1203
aS'daytimex_1363467627.Sun.Mar.17_07_00_27.AEST.2013.narrabn.c5.erase.jpg'
p1204
aS'daytimex_1200085228.Sat.Jan.12_07_00_28.AEST.2008.narrabn.c5.erase.jpg'
p1205
aS'daytimex_1144616428.Mon.Apr.10_07_00_28.AEST.2006.narrabn.c5.erase.jpg'
p1206
aS'daytimex_1199653228.Mon.Jan.07_07_00_28.AEST.2008.narrabn.c5.erase.jpg'
p1207
aS'daytimex_1365714027.Fri.Apr.12_07_00_27.AEST.2013.narrabn.c5.erase.jpg'
p1208
aS'daytimex_1129755628.Thu.Oct.20_07_00_28.AEST.2005.narrabn.c5.erase.jpg'
p1209
aS'daytimex_1200258027.Mon.Jan.14_07_00_27.AEST.2008.narrabn.c5.erase.jpg'
p1210
aS'daytimex_1362862827.Sun.Mar.10_07_00_27.AEST.2013.narrabn.c5.erase.jpg'
p1211
aS'daytimex_1364158827.Mon.Mar.25_07_00_27.AEST.2013.narrabn.c5.erase.jpg'
p1212
aS'daytimex_1238360427.Mon.Mar.30_07_00_27.AEST.2009.narrabn.c5.erase.jpg'
p1213
aS'daytimex_1363035626.Tue.Mar.12_07_00_26.AEST.2013.narrabn.c5.erase.jpg'
p1214
aS'daytimex_1199739627.Tue.Jan.08_07_00_27.AEST.2008.narrabn.c5.erase.jpg'
p1215
aS'daytimex_1359579627.Thu.Jan.31_07_00_27.AEST.2013.narrabn.c5.erase.jpg'
p1216
aS'daytimex_1202331628.Thu.Feb.07_07_00_28.AEST.2008.narrabn.c5.erase.jpg'
p1217
aS'daytimex_1169413228.Mon.Jan.22_07_00_28.AEST.2007.narrabn.c5.erase.jpg'
p1218
aS'daytimex_1098652844.Mon.Oct.25_07_20_44.AEST.2004.narrabn.c5.erase.jpg'
p1219
aS'daytimex_1199826027.Wed.Jan.09_07_00_27.AEST.2008.narrabn.c5.erase.jpg'
p1220
aS'daytimex_1364072427.Sun.Mar.24_07_00_27.AEST.2013.narrabn.c5.erase.jpg'
p1221
aS'daytimex_1364418026.Thu.Mar.28_07_00_26.AEST.2013.narrabn.c5.erase.jpg'
p1222
aS'daytimex_1364331627.Wed.Mar.27_07_00_27.AEST.2013.narrabn.c5.erase.jpg'
p1223
aS'daytimex_1307048427.Fri.Jun.03_07_00_27.AEST.2011.narrabn.c5.erase.jpg'
p1224
aS'daytimex_1365454827.Tue.Apr.09_07_00_27.AEST.2013.narrabn.c5.erase.jpg'
p1225
aS'daytimex_1102626027.Fri.Dec.10_07_00_27.AEST.2004.narrabn.c5.erase.jpg'
p1226
aS'daytimex_1098739244.Tue.Oct.26_07_20_44.AEST.2004.narrabn.c5.erase.jpg'
p1227
aS'daytimex_1365109227.Fri.Apr.05_07_00_27.AEST.2013.narrabn.c5.erase.jpg'
p1228
aS'daytimex_1363899627.Fri.Mar.22_07_00_27.AEST.2013.narrabn.c5.erase.jpg'
p1229
aS'daytimex_1129842028.Fri.Oct.21_07_00_28.AEST.2005.narrabn.c5.erase.jpg'
p1230
aS'daytimex_1199307628.Thu.Jan.03_07_00_28.AEST.2008.narrabn.c5.erase.jpg'
p1231
aS'daytimex_1161205227.Thu.Oct.19_07_00_27.AEST.2006.narrabn.c5.erase.jpg'
p1232
aS'daytimex_1098825644.Wed.Oct.27_07_20_44.AEST.2004.narrabn.c5.erase.jpg'
p1233
aS'daytimex_1141419628.Sat.Mar.04_07_00_28.AEST.2006.narrabn.c5.erase.jpg'
p1234
aS'daytimex_1366837226.Thu.Apr.25_07_00_26.AEST.2013.narrabn.c5.erase.jpg'
p1235
aS'daytimex_1364504427.Fri.Mar.29_07_00_27.AEST.2013.narrabn.c5.erase.jpg'
p1236
aS'daytimex_1199998828.Fri.Jan.11_07_00_28.AEST.2008.narrabn.c5.erase.jpg'
p1237
aS'daytimex_1363381227.Sat.Mar.16_07_00_27.AEST.2013.narrabn.c5.erase.jpg'
p1238
aS'daytimex_1363294826.Fri.Mar.15_07_00_26.AEST.2013.narrabn.c5.erase.jpg'
p1239
aS'daytimex_1366059626.Tue.Apr.16_07_00_26.AEST.2013.narrabn.c5.erase.jpg'
p1240
aS'daytimex_1304370028.Tue.May.03_07_00_28.AEST.2011.narrabn.c5.erase.jpg'
p1241
aS'daytimex_1102453228.Wed.Dec.08_07_00_28.AEST.2004.narrabn.c5.erase.jpg'
p1242
aS'daytimex_1200171628.Sun.Jan.13_07_00_28.AEST.2008.narrabn.c5.erase.jpg'
p1243
aS'daytimex_1154120427.Sat.Jul.29_07_00_27.AEST.2006.narrabn.c5.erase.jpg'
p1244
aS'daytimex_1102712427.Sat.Dec.11_07_00_27.AEST.2004.narrabn.c5.erase.jpg'
p1245
aS'daytimex_1298494828.Thu.Feb.24_07_00_28.AEST.2011.narrabn.c5.erase.jpg'
p1246
aS'daytimex_1252270827.Mon.Sep.07_07_00_27.AEST.2009.narrabn.c5.erase.jpg'
p1247
aS'daytimex_1258837227.Sun.Nov.22_07_00_27.AEST.2009.narrabn.c5.erase.jpg'
p1248
aS'daytimex_1365973226.Mon.Apr.15_07_00_26.AEST.2013.narrabn.c5.erase.jpg'
p1249
aS'daytimex_1169326827.Sun.Jan.21_07_00_27.AEST.2007.narrabn.c5.erase.jpg'
p1250
aS'daytimex_1246309228.Tue.Jun.30_07_00_28.AEST.2009.narrabn.c5.gamma.jpg'
p1251
aS'daytimex_1115413227.Sat.May.07_07_00_27.AEST.2005.narrabn.c5.gamma.jpg'
p1252
aS'daytimex_1244840427.Sat.Jun.13_07_00_27.AEST.2009.narrabn.c5.gamma.jpg'
p1253
aS'daytimex_1178571627.Tue.May.08_07_00_27.AEST.2007.narrabn.c5.gamma.jpg'
p1254
aS'daytimex_1303506028.Sat.Apr.23_07_00_28.AEST.2011.narrabn.c5.gamma.jpg'
p1255
aS'daytimex_1151614827.Fri.Jun.30_07_00_27.AEST.2006.narrabn.c5.gamma.jpg'
p1256
aS'daytimex_1244235628.Sat.Jun.06_07_00_28.AEST.2009.narrabn.c5.gamma.jpg'
p1257
aS'daytimex_1216587627.Mon.Jul.21_07_00_27.AEST.2008.narrabn.c5.gamma.jpg'
p1258
aS'daytimex_1149195628.Fri.Jun.02_07_00_28.AEST.2006.narrabn.c5.gamma.jpg'
p1259
aS'daytimex_1272056427.Sat.Apr.24_07_00_27.AEST.2010.narrabn.c5.gamma.jpg'
p1260
aS'daytimex_1180213228.Sun.May.27_07_00_28.AEST.2007.narrabn.c5.gamma.jpg'
p1261
aS'daytimex_1152478828.Mon.Jul.10_07_00_28.AEST.2006.narrabn.c5.gamma.jpg'
p1262
aS'daytimex_1152565228.Tue.Jul.11_07_00_28.AEST.2006.narrabn.c5.gamma.jpg'
p1263
aS'daytimex_1179522028.Sat.May.19_07_00_28.AEST.2007.narrabn.c5.gamma.jpg'
p1264
aS'daytimex_1244494828.Tue.Jun.09_07_00_28.AEST.2009.narrabn.c5.gamma.jpg'
p1265
aS'daytimex_1115326827.Fri.May.06_07_00_27.AEST.2005.narrabn.c5.gamma.jpg'
p1266
aS'daytimex_1218574827.Wed.Aug.13_07_00_27.AEST.2008.narrabn.c5.gamma.jpg'
p1267
aS'daytimex_1216414828.Sat.Jul.19_07_00_28.AEST.2008.narrabn.c5.gamma.jpg'
p1268
aS'daytimex_1244322027.Sun.Jun.07_07_00_27.AEST.2009.narrabn.c5.gamma.jpg'
p1269
aS'daytimex_1299358827.Sun.Mar.06_07_00_27.AEST.2011.narrabn.c5.gamma.jpg'
p1270
aS'daytimex_1218315628.Sun.Aug.10_07_00_28.AEST.2008.narrabn.c5.gamma.jpg'
p1271
aS'daytimex_1216328427.Fri.Jul.18_07_00_27.AEST.2008.narrabn.c5.gamma.jpg'
p1272
aS'daytimex_1377205228.Fri.Aug.23_07_00_28.AEST.2013.narrabn.c5.gamma.jpg'
p1273
aS'daytimex_1280523628.Sat.Jul.31_07_00_28.AEST.2010.narrabn.c5.gamma.jpg'
p1274
aS'daytimex_1180904428.Mon.Jun.04_07_00_28.AEST.2007.narrabn.c5.gamma.jpg'
p1275
aS'daytimex_1367182827.Mon.Apr.29_07_00_27.AEST.2013.narrabn.c5.gamma.jpg'
p1276
aS'daytimex_1362776427.Sat.Mar.09_07_00_27.AEST.2013.narrabn.c5.gamma.jpg'
p1277
aS'daytimex_1206997228.Tue.Apr.01_07_00_28.AEST.2008.narrabn.c5.gamma.jpg'
p1278
aS'daytimex_1183410028.Tue.Jul.03_07_00_28.AEST.2007.narrabn.c5.gamma.jpg'
p1279
aS'daytimex_1271624427.Mon.Apr.19_07_00_27.AEST.2010.narrabn.c5.gamma.jpg'
p1280
aS'daytimex_1362603627.Thu.Mar.07_07_00_27.AEST.2013.narrabn.c5.gamma.jpg'
p1281
aS'daytimex_1115067628.Tue.May.03_07_00_28.AEST.2005.narrabn.c5.gamma.jpg'
p1282
aS'daytimex_1272315628.Tue.Apr.27_07_00_28.AEST.2010.narrabn.c5.gamma.jpg'
p1283
aS'daytimex_1174338027.Tue.Mar.20_07_00_27.AEST.2007.narrabn.c5.gamma.jpg'
p1284
aS'daytimex_1115586027.Mon.May.09_07_00_27.AEST.2005.narrabn.c5.gamma.jpg'
p1285
aS'daytimex_1115758827.Wed.May.11_07_00_27.AEST.2005.narrabn.c5.gamma.jpg'
p1286
aS'daytimex_1178398828.Sun.May.06_07_00_28.AEST.2007.narrabn.c5.gamma.jpg'
p1287
aS'daytimex_1285621228.Tue.Sep.28_07_00_28.AEST.2010.narrabn.c5.gamma.jpg'
p1288
aS'daytimex_1129928428.Sat.Oct.22_07_00_28.AEST.2005.narrabn.c5.gamma.jpg'
p1289
aS'daytimex_1339448428.Tue.Jun.12_07_00_28.AEST.2012.narrabn.c5.gamma.jpg'
p1290
aS'daytimex_1243371628.Wed.May.27_07_00_28.AEST.2009.narrabn.c5.gamma.jpg'
p1291
aS'daytimex_1165525227.Fri.Dec.08_07_00_27.AEST.2006.narrabn.c5.gamma.jpg'
p1292
aS'daytimex_1122843628.Mon.Aug.01_07_00_28.AEST.2005.narrabn.c5.gamma.jpg'
p1293
aS'daytimex_1269032427.Sat.Mar.20_07_00_27.AEST.2010.narrabn.c5.gamma.jpg'
p1294
aS'daytimex_1321822828.Mon.Nov.21_07_00_28.AEST.2011.narrabn.c5.gamma.jpg'
p1295
aS'daytimex_1362344426.Mon.Mar.04_07_00_26.AEST.2013.narrabn.c5.gamma.jpg'
p1296
aS'daytimex_1367269226.Tue.Apr.30_07_00_26.AEST.2013.narrabn.c5.gamma.jpg'
p1297
aS'daytimex_1279141227.Thu.Jul.15_07_00_27.AEST.2010.narrabn.c5.gamma.jpg'
p1298
aS'daytimex_1174683628.Sat.Mar.24_07_00_28.AEST.2007.narrabn.c5.gamma.jpg'
p1299
aS'daytimex_1179262828.Wed.May.16_07_00_28.AEST.2007.narrabn.c5.gamma.jpg'
p1300
aS'daytimex_1205960427.Thu.Mar.20_07_00_27.AEST.2008.narrabn.c5.gamma.jpg'
p1301
aS'daytimex_1160082028.Fri.Oct.06_07_00_28.AEST.2006.narrabn.c5.gamma.jpg'
p1302
aS'daytimex_1176066028.Mon.Apr.09_07_00_28.AEST.2007.narrabn.c5.gamma.jpg'
p1303
aS'daytimex_1278018028.Fri.Jul.02_07_00_28.AEST.2010.narrabn.c5.gamma.jpg'
p1304
aS'daytimex_1393707627.Sun.Mar.02_07_00_27.AEST.2014.narrabn.c5.gamma.jpg'
p1305
aS'daytimex_1285448428.Sun.Sep.26_07_00_28.AEST.2010.narrabn.c5.gamma.jpg'
p1306
aS'daytimex_1210366827.Sat.May.10_07_00_27.AEST.2008.narrabn.c5.gamma.jpg'
p1307
aS'daytimex_1179435627.Fri.May.18_07_00_27.AEST.2007.narrabn.c5.gamma.jpg'
p1308
aS'daytimex_1164488428.Sun.Nov.26_07_00_28.AEST.2006.narrabn.c5.gamma.jpg'
p1309
aS'daytimex_1114203627.Sat.Apr.23_07_00_27.AEST.2005.narrabn.c5.gamma.jpg'
p1310
aS'daytimex_1192482027.Tue.Oct.16_07_00_27.AEST.2007.narrabn.c5.gamma.jpg'
p1311
aS'daytimex_1320699628.Tue.Nov.08_07_00_28.AEST.2011.narrabn.c5.gamma.jpg'
p1312
aS'daytimex_1421803807.Wed.Jan.21_11_30_07.AEST.2015.narrabn.c5.gamma.jpg'
p1313
aS'daytimex_1192136427.Fri.Oct.12_07_00_27.AEST.2007.narrabn.c5.gamma.jpg'
p1314
aS'daytimex_1210194028.Thu.May.08_07_00_28.AEST.2008.narrabn.c5.gamma.jpg'
p1315
aS'daytimex_1166475628.Tue.Dec.19_07_00_28.AEST.2006.narrabn.c5.gamma.jpg'
p1316
aS'daytimex_1397077227.Thu.Apr.10_07_00_27.AEST.2014.narrabn.c5.gamma.jpg'
p1317
aS'daytimex_1243198828.Mon.May.25_07_00_28.AEST.2009.narrabn.c5.gamma.jpg'
p1318
aS'daytimex_1206046827.Fri.Mar.21_07_00_27.AEST.2008.narrabn.c5.gamma.jpg'
p1319
aS'daytimex_1215032428.Thu.Jul.03_07_00_28.AEST.2008.narrabn.c5.gamma.jpg'
p1320
aS'daytimex_1095542444.Sun.Sep.19_07_20_44.AEST.2004.narrabn.c5.gamma.jpg'
p1321
aS'daytimex_1220043628.Sat.Aug.30_07_00_28.AEST.2008.narrabn.c5.gamma.jpg'
p1322
aS'daytimex_1305752427.Thu.May.19_07_00_27.AEST.2011.narrabn.c5.gamma.jpg'
p1323
aS'daytimex_1300482028.Sat.Mar.19_07_00_28.AEST.2011.narrabn.c5.gamma.jpg'
p1324
aS'daytimex_1396040427.Sat.Mar.29_07_00_27.AEST.2014.narrabn.c5.gamma.jpg'
p1325
aS'daytimex_1152738027.Thu.Jul.13_07_00_27.AEST.2006.narrabn.c5.gamma.jpg'
p1326
aS'daytimex_1114117228.Fri.Apr.22_07_00_28.AEST.2005.narrabn.c5.gamma.jpg'
p1327
aS'daytimex_1193432428.Sat.Oct.27_07_00_28.AEST.2007.narrabn.c5.gamma.jpg'
p1328
aS'daytimex_1285362027.Sat.Sep.25_07_00_27.AEST.2010.narrabn.c5.gamma.jpg'
p1329
aS'daytimex_1091568045.Wed.Aug.04_07_20_45.AEST.2004.narrabn.c5.gamma.jpg'
p1330
aS'daytimex_1176584427.Sun.Apr.15_07_00_27.AEST.2007.narrabn.c5.gamma.jpg'
p1331
aS'daytimex_1297803627.Wed.Feb.16_07_00_27.AEST.2011.narrabn.c5.gamma.jpg'
p1332
aS'daytimex_1115154028.Wed.May.04_07_00_28.AEST.2005.narrabn.c5.gamma.jpg'
p1333
aS'daytimex_1210280428.Fri.May.09_07_00_28.AEST.2008.narrabn.c5.gamma.jpg'
p1334
aS'daytimex_1095456045.Sat.Sep.18_07_20_45.AEST.2004.narrabn.c5.gamma.jpg'
p1335
aS'daytimex_1296421228.Mon.Jan.31_07_00_28.AEST.2011.narrabn.c5.gamma.jpg'
p1336
aS'daytimex_1271278827.Thu.Apr.15_07_00_27.AEST.2010.narrabn.c5.gamma.jpg'
p1337
aS'daytimex_1321045227.Sat.Nov.12_07_00_27.AEST.2011.narrabn.c5.gamma.jpg'
p1338
aS'daytimex_1218747627.Fri.Aug.15_07_00_27.AEST.2008.narrabn.c5.gamma.jpg'
p1339
aS'daytimex_1407358807.Thu.Aug.07_07_00_07.AEST.2014.narrabn.c5.gamma.jpg'
p1340
aS'daytimex_1269291628.Tue.Mar.23_07_00_28.AEST.2010.narrabn.c5.gamma.jpg'
p1341
aS'daytimex_1096492844.Thu.Sep.30_07_20_44.AEST.2004.narrabn.c5.gamma.jpg'
p1342
aS'daytimex_1264194027.Sat.Jan.23_07_00_27.AEST.2010.narrabn.c5.gamma.jpg'
p1343
aS'daytimex_1148331627.Tue.May.23_07_00_27.AEST.2006.narrabn.c5.gamma.jpg'
p1344
aS'daytimex_1280350828.Thu.Jul.29_07_00_28.AEST.2010.narrabn.c5.gamma.jpg'
p1345
aS'daytimex_1358283627.Wed.Jan.16_07_00_27.AEST.2013.narrabn.c5.gamma.jpg'
p1346
aS'daytimex_1156798828.Tue.Aug.29_07_00_28.AEST.2006.narrabn.c5.gamma.jpg'
p1347
aS'daytimex_1218920428.Sun.Aug.17_07_00_28.AEST.2008.narrabn.c5.gamma.jpg'
p1348
aS'daytimex_1269550828.Fri.Mar.26_07_00_28.AEST.2010.narrabn.c5.gamma.jpg'
p1349
aS'daytimex_1253394027.Sun.Sep.20_07_00_27.AEST.2009.narrabn.c5.gamma.jpg'
p1350
aS'daytimex_1159909227.Wed.Oct.04_07_00_27.AEST.2006.narrabn.c5.gamma.jpg'
p1351
aS'daytimex_1266267628.Tue.Feb.16_07_00_28.AEST.2010.narrabn.c5.gamma.jpg'
p1352
aS'daytimex_1313614827.Thu.Aug.18_07_00_27.AEST.2011.narrabn.c5.gamma.jpg'
p1353
aS'daytimex_1383166828.Thu.Oct.31_07_00_28.AEST.2013.narrabn.c5.gamma.jpg'
p1354
aS'daytimex_1368478827.Tue.May.14_07_00_27.AEST.2013.narrabn.c5.gamma.jpg'
p1355
aS'daytimex_1194901228.Tue.Nov.13_07_00_28.AEST.2007.narrabn.c5.gamma.jpg'
p1356
aS'daytimex_1170968427.Fri.Feb.09_07_00_27.AEST.2007.narrabn.c5.gamma.jpg'
p1357
aS'daytimex_1313182827.Sat.Aug.13_07_00_27.AEST.2011.narrabn.c5.gamma.jpg'
p1358
aS'daytimex_1263070827.Sun.Jan.10_07_00_27.AEST.2010.narrabn.c5.gamma.jpg'
p1359
aS'daytimex_1118264428.Thu.Jun.09_07_00_28.AEST.2005.narrabn.c5.gamma.jpg'
p1360
aS'daytimex_1348779627.Fri.Sep.28_07_00_27.AEST.2012.narrabn.c5.gamma.jpg'
p1361
aS'daytimex_1331499627.Mon.Mar.12_07_00_27.AEST.2012.narrabn.c5.gamma.jpg'
p1362
aS'daytimex_1375736428.Tue.Aug.06_07_00_28.AEST.2013.narrabn.c5.gamma.jpg'
p1363
aS'daytimex_1158613228.Tue.Sep.19_07_00_28.AEST.2006.narrabn.c5.gamma.jpg'
p1364
aS'daytimex_1277240427.Wed.Jun.23_07_00_27.AEST.2010.narrabn.c5.gamma.jpg'
p1365
aS'daytimex_1132347628.Sat.Nov.19_07_00_28.AEST.2005.narrabn.c5.gamma.jpg'
p1366
aS'daytimex_1392930028.Fri.Feb.21_07_00_28.AEST.2014.narrabn.c5.gamma.jpg'
p1367
aS'daytimex_1263675627.Sun.Jan.17_07_00_27.AEST.2010.narrabn.c5.gamma.jpg'
p1368
aS'daytimex_1390424427.Thu.Jan.23_07_00_27.AEST.2014.narrabn.c5.gamma.jpg'
p1369
aS'daytimex_1296248427.Sat.Jan.29_07_00_27.AEST.2011.narrabn.c5.gamma.jpg'
p1370
aS'daytimex_1132088427.Wed.Nov.16_07_00_27.AEST.2005.narrabn.c5.gamma.jpg'
p1371
aS'daytimex_1233003628.Tue.Jan.27_07_00_28.AEST.2009.narrabn.c5.gamma.jpg'
p1372
aS'daytimex_1286485227.Fri.Oct.08_07_00_27.AEST.2010.narrabn.c5.gamma.jpg'
p1373
aS'daytimex_1209589228.Thu.May.01_07_00_28.AEST.2008.narrabn.c5.gamma.jpg'
p1374
aS'daytimex_1246654827.Sat.Jul.04_07_00_27.AEST.2009.narrabn.c5.gamma.jpg'
p1375
aS'daytimex_1136062828.Sun.Jan.01_07_00_28.AEST.2006.narrabn.c5.gamma.jpg'
p1376
aS'daytimex_1105304428.Mon.Jan.10_07_00_28.AEST.2005.narrabn.c5.gamma.jpg'
p1377
aS'daytimex_1170104428.Tue.Jan.30_07_00_28.AEST.2007.narrabn.c5.gamma.jpg'
p1378
aS'daytimex_1100553644.Tue.Nov.16_07_20_44.AEST.2004.narrabn.c5.gamma.jpg'
p1379
aS'daytimex_1230757227.Thu.Jan.01_07_00_27.AEST.2009.narrabn.c5.gamma.jpg'
p1380
aS'daytimex_1237323627.Wed.Mar.18_07_00_27.AEST.2009.narrabn.c5.gamma.jpg'
p1381
aS'daytimex_1382302828.Mon.Oct.21_07_00_28.AEST.2013.narrabn.c5.gamma.jpg'
p1382
aS'daytimex_1336770028.Sat.May.12_07_00_28.AEST.2012.narrabn.c5.gamma.jpg'
p1383
aS'daytimex_1304715627.Sat.May.07_07_00_27.AEST.2011.narrabn.c5.gamma.jpg'
p1384
aS'daytimex_1113771628.Mon.Apr.18_07_00_28.AEST.2005.narrabn.c5.gamma.jpg'
p1385
aS'daytimex_1344286827.Tue.Aug.07_07_00_27.AEST.2012.narrabn.c5.gamma.jpg'
p1386
aS'daytimex_1332795628.Tue.Mar.27_07_00_28.AEST.2012.narrabn.c5.gamma.jpg'
p1387
aS'daytimex_1166994028.Mon.Dec.25_07_00_28.AEST.2006.narrabn.c5.gamma.jpg'
p1388
aS'daytimex_1346533227.Sun.Sep.02_07_00_27.AEST.2012.narrabn.c5.gamma.jpg'
p1389
aS'daytimex_1257195628.Tue.Nov.03_07_00_28.AEST.2009.narrabn.c5.gamma.jpg'
p1390
aS'daytimex_1277758827.Tue.Jun.29_07_00_27.AEST.2010.narrabn.c5.gamma.jpg'
p1391
aS'daytimex_1104699628.Mon.Jan.03_07_00_28.AEST.2005.narrabn.c5.gamma.jpg'
p1392
aS'daytimex_1369515627.Sun.May.26_07_00_27.AEST.2013.narrabn.c5.gamma.jpg'
p1393
aS'daytimex_1188853227.Tue.Sep.04_07_00_27.AEST.2007.narrabn.c5.gamma.jpg'
p1394
aS'daytimex_1210021227.Tue.May.06_07_00_27.AEST.2008.narrabn.c5.gamma.jpg'
p1395
aS'daytimex_1106600428.Tue.Jan.25_07_00_28.AEST.2005.narrabn.c5.gamma.jpg'
p1396
aS'daytimex_1308430828.Sun.Jun.19_07_00_28.AEST.2011.narrabn.c5.gamma.jpg'
p1397
aS'daytimex_1093641644.Sat.Aug.28_07_20_44.AEST.2004.narrabn.c5.gamma.jpg'
p1398
aS'daytimex_1277845228.Wed.Jun.30_07_00_28.AEST.2010.narrabn.c5.gamma.jpg'
p1399
aS'daytimex_1290459628.Tue.Nov.23_07_00_28.AEST.2010.narrabn.c5.gamma.jpg'
p1400
aS'daytimex_1239138028.Wed.Apr.08_07_00_28.AEST.2009.narrabn.c5.gamma.jpg'
p1401
aS'daytimex_1103403628.Sun.Dec.19_07_00_28.AEST.2004.narrabn.c5.gamma.jpg'
p1402
aS'daytimex_1232744428.Sat.Jan.24_07_00_28.AEST.2009.narrabn.c5.gamma.jpg'
p1403
aS'daytimex_1164229228.Thu.Nov.23_07_00_28.AEST.2006.narrabn.c5.gamma.jpg'
p1404
aS'daytimex_1130446828.Fri.Oct.28_07_00_28.AEST.2005.narrabn.c5.gamma.jpg'
p1405
aS'daytimex_1132261228.Fri.Nov.18_07_00_28.AEST.2005.narrabn.c5.gamma.jpg'
p1406
aS'daytimex_1413493206.Fri.Oct.17_07_00_06.AEST.2014.narrabn.c5.gamma.jpg'
p1407
aS'daytimex_1366664426.Tue.Apr.23_07_00_26.AEST.2013.narrabn.c5.gamma.jpg'
p1408
aS'daytimex_1102885227.Mon.Dec.13_07_00_27.AEST.2004.narrabn.c5.gamma.jpg'
p1409
aS'daytimex_1094764845.Fri.Sep.10_07_20_45.AEST.2004.narrabn.c5.gamma.jpg'
p1410
aS'daytimex_1307134828.Sat.Jun.04_07_00_28.AEST.2011.narrabn.c5.gamma.jpg'
p1411
aS'daytimex_1289422827.Thu.Nov.11_07_00_27.AEST.2010.narrabn.c5.gamma.jpg'
p1412
aS'daytimex_1168722027.Sun.Jan.14_07_00_27.AEST.2007.narrabn.c5.gamma.jpg'
p1413
aS'daytimex_1166907628.Sun.Dec.24_07_00_28.AEST.2006.narrabn.c5.gamma.jpg'
p1414
aS'daytimex_1130878828.Wed.Nov.02_07_00_28.AEST.2005.narrabn.c5.gamma.jpg'
p1415
aS'daytimex_1349730027.Tue.Oct.09_07_00_27.AEST.2012.narrabn.c5.gamma.jpg'
p1416
aS'daytimex_1106341227.Sat.Jan.22_07_00_27.AEST.2005.narrabn.c5.gamma.jpg'
p1417
aS'daytimex_1194469228.Thu.Nov.08_07_00_28.AEST.2007.narrabn.c5.gamma.jpg'
p1418
aS'daytimex_1223931628.Tue.Oct.14_07_00_28.AEST.2008.narrabn.c5.gamma.jpg'
p1419
aS'daytimex_1289336428.Wed.Nov.10_07_00_28.AEST.2010.narrabn.c5.gamma.jpg'
p1420
aS'daytimex_1259442028.Sun.Nov.29_07_00_28.AEST.2009.narrabn.c5.gamma.jpg'
p1421
aS'daytimex_1275080427.Sat.May.29_07_00_27.AEST.2010.narrabn.c5.gamma.jpg'
p1422
aS'daytimex_1364245227.Tue.Mar.26_07_00_27.AEST.2013.narrabn.c5.gamma.jpg'
p1423
aS'daytimex_1144702827.Tue.Apr.11_07_00_27.AEST.2006.narrabn.c5.gamma.jpg'
p1424
aS'daytimex_1137013242.Thu.Jan.12_07_00_42.AEST.2006.narrabn.c5.gamma.jpg'
p1425
aS'daytimex_1168981228.Wed.Jan.17_07_00_28.AEST.2007.narrabn.c5.gamma.jpg'
p1426
aS'daytimex_1106514027.Mon.Jan.24_07_00_27.AEST.2005.narrabn.c5.gamma.jpg'
p1427
aS'daytimex_1355518826.Sat.Dec.15_07_00_26.AEST.2012.narrabn.c5.gamma.jpg'
p1428
aS'daytimex_1105131627.Sat.Jan.08_07_00_27.AEST.2005.narrabn.c5.gamma.jpg'
p1429
aS'daytimex_1125781227.Sun.Sep.04_07_00_27.AEST.2005.narrabn.c5.gamma.jpg'
p1430
aS'daytimex_1100640044.Wed.Nov.17_07_20_44.AEST.2004.narrabn.c5.gamma.jpg'
p1431
aS'daytimex_1211058028.Sun.May.18_07_00_28.AEST.2008.narrabn.c5.gamma.jpg'
p1432
aS'daytimex_1422322207.Tue.Jan.27_11_30_07.AEST.2015.narrabn.c5.gamma.jpg'
p1433
aS'daytimex_1189458027.Tue.Sep.11_07_00_27.AEST.2007.narrabn.c5.gamma.jpg'
p1434
aS'daytimex_1311627628.Tue.Jul.26_07_00_28.AEST.2011.narrabn.c5.gamma.jpg'
p1435
aS'daytimex_1367701227.Sun.May.05_07_00_27.AEST.2013.narrabn.c5.gamma.jpg'
p1436
aS'daytimex_1103058027.Wed.Dec.15_07_00_27.AEST.2004.narrabn.c5.gamma.jpg'
p1437
aS'daytimex_1335128427.Mon.Apr.23_07_00_27.AEST.2012.narrabn.c5.gamma.jpg'
p1438
aS'daytimex_1352494827.Sat.Nov.10_07_00_27.AEST.2012.narrabn.c5.gamma.jpg'
p1439
aS'daytimex_1425850207.Mon.Mar.09_07_30_07.AEST.2015.narrabn.c5.gamma.jpg'
p1440
aS'daytimex_1384462828.Fri.Nov.15_07_00_28.AEST.2013.narrabn.c5.gamma.jpg'
p1441
aS'daytimex_1262379627.Sat.Jan.02_07_00_27.AEST.2010.narrabn.c5.gamma.jpg'
p1442
aS'daytimex_1232658027.Fri.Jan.23_07_00_27.AEST.2009.narrabn.c5.gamma.jpg'
p1443
aS'daytimex_1162674028.Sun.Nov.05_07_00_28.AEST.2006.narrabn.c5.gamma.jpg'
p1444
aS'daytimex_1123362028.Sun.Aug.07_07_00_28.AEST.2005.narrabn.c5.gamma.jpg'
p1445
aS'daytimex_1337288428.Fri.May.18_07_00_28.AEST.2012.narrabn.c5.gamma.jpg'
p1446
aS'daytimex_1389992427.Sat.Jan.18_07_00_27.AEST.2014.narrabn.c5.gamma.jpg'
p1447
aS'daytimex_1119733228.Sun.Jun.26_07_00_28.AEST.2005.narrabn.c5.gamma.jpg'
p1448
aS'daytimex_1327179628.Sun.Jan.22_07_00_28.AEST.2012.narrabn.c5.gamma.jpg'
p1449
aS'daytimex_1344805229.Mon.Aug.13_07_00_29.AEST.2012.narrabn.c5.gamma.jpg'
p1450
aS'daytimex_1105822828.Sun.Jan.16_07_00_28.AEST.2005.narrabn.c5.gamma.jpg'
p1451
aS'daytimex_1199912427.Thu.Jan.10_07_00_27.AEST.2008.narrabn.c5.gamma.jpg'
p1452
aS'daytimex_1390165228.Mon.Jan.20_07_00_28.AEST.2014.narrabn.c5.gamma.jpg'
p1453
aS'daytimex_1363467627.Sun.Mar.17_07_00_27.AEST.2013.narrabn.c5.gamma.jpg'
p1454
aS'daytimex_1200085228.Sat.Jan.12_07_00_28.AEST.2008.narrabn.c5.gamma.jpg'
p1455
aS'daytimex_1144616428.Mon.Apr.10_07_00_28.AEST.2006.narrabn.c5.gamma.jpg'
p1456
aS'daytimex_1199653228.Mon.Jan.07_07_00_28.AEST.2008.narrabn.c5.gamma.jpg'
p1457
aS'daytimex_1365714027.Fri.Apr.12_07_00_27.AEST.2013.narrabn.c5.gamma.jpg'
p1458
aS'daytimex_1129755628.Thu.Oct.20_07_00_28.AEST.2005.narrabn.c5.gamma.jpg'
p1459
aS'daytimex_1200258027.Mon.Jan.14_07_00_27.AEST.2008.narrabn.c5.gamma.jpg'
p1460
aS'daytimex_1362862827.Sun.Mar.10_07_00_27.AEST.2013.narrabn.c5.gamma.jpg'
p1461
aS'daytimex_1364158827.Mon.Mar.25_07_00_27.AEST.2013.narrabn.c5.gamma.jpg'
p1462
aS'daytimex_1238360427.Mon.Mar.30_07_00_27.AEST.2009.narrabn.c5.gamma.jpg'
p1463
aS'daytimex_1363035626.Tue.Mar.12_07_00_26.AEST.2013.narrabn.c5.gamma.jpg'
p1464
aS'daytimex_1199739627.Tue.Jan.08_07_00_27.AEST.2008.narrabn.c5.gamma.jpg'
p1465
aS'daytimex_1359579627.Thu.Jan.31_07_00_27.AEST.2013.narrabn.c5.gamma.jpg'
p1466
aS'daytimex_1202331628.Thu.Feb.07_07_00_28.AEST.2008.narrabn.c5.gamma.jpg'
p1467
aS'daytimex_1169413228.Mon.Jan.22_07_00_28.AEST.2007.narrabn.c5.gamma.jpg'
p1468
aS'daytimex_1098652844.Mon.Oct.25_07_20_44.AEST.2004.narrabn.c5.gamma.jpg'
p1469
aS'daytimex_1199826027.Wed.Jan.09_07_00_27.AEST.2008.narrabn.c5.gamma.jpg'
p1470
aS'daytimex_1364072427.Sun.Mar.24_07_00_27.AEST.2013.narrabn.c5.gamma.jpg'
p1471
aS'daytimex_1364418026.Thu.Mar.28_07_00_26.AEST.2013.narrabn.c5.gamma.jpg'
p1472
aS'daytimex_1364331627.Wed.Mar.27_07_00_27.AEST.2013.narrabn.c5.gamma.jpg'
p1473
aS'daytimex_1307048427.Fri.Jun.03_07_00_27.AEST.2011.narrabn.c5.gamma.jpg'
p1474
aS'daytimex_1365454827.Tue.Apr.09_07_00_27.AEST.2013.narrabn.c5.gamma.jpg'
p1475
aS'daytimex_1102626027.Fri.Dec.10_07_00_27.AEST.2004.narrabn.c5.gamma.jpg'
p1476
aS'daytimex_1098739244.Tue.Oct.26_07_20_44.AEST.2004.narrabn.c5.gamma.jpg'
p1477
aS'daytimex_1365109227.Fri.Apr.05_07_00_27.AEST.2013.narrabn.c5.gamma.jpg'
p1478
aS'daytimex_1363899627.Fri.Mar.22_07_00_27.AEST.2013.narrabn.c5.gamma.jpg'
p1479
aS'daytimex_1129842028.Fri.Oct.21_07_00_28.AEST.2005.narrabn.c5.gamma.jpg'
p1480
aS'daytimex_1199307628.Thu.Jan.03_07_00_28.AEST.2008.narrabn.c5.gamma.jpg'
p1481
aS'daytimex_1161205227.Thu.Oct.19_07_00_27.AEST.2006.narrabn.c5.gamma.jpg'
p1482
aS'daytimex_1098825644.Wed.Oct.27_07_20_44.AEST.2004.narrabn.c5.gamma.jpg'
p1483
aS'daytimex_1141419628.Sat.Mar.04_07_00_28.AEST.2006.narrabn.c5.gamma.jpg'
p1484
aS'daytimex_1366837226.Thu.Apr.25_07_00_26.AEST.2013.narrabn.c5.gamma.jpg'
p1485
aS'daytimex_1364504427.Fri.Mar.29_07_00_27.AEST.2013.narrabn.c5.gamma.jpg'
p1486
aS'daytimex_1199998828.Fri.Jan.11_07_00_28.AEST.2008.narrabn.c5.gamma.jpg'
p1487
aS'daytimex_1363381227.Sat.Mar.16_07_00_27.AEST.2013.narrabn.c5.gamma.jpg'
p1488
aS'daytimex_1363294826.Fri.Mar.15_07_00_26.AEST.2013.narrabn.c5.gamma.jpg'
p1489
aS'daytimex_1366059626.Tue.Apr.16_07_00_26.AEST.2013.narrabn.c5.gamma.jpg'
p1490
aS'daytimex_1304370028.Tue.May.03_07_00_28.AEST.2011.narrabn.c5.gamma.jpg'
p1491
aS'daytimex_1102453228.Wed.Dec.08_07_00_28.AEST.2004.narrabn.c5.gamma.jpg'
p1492
aS'daytimex_1200171628.Sun.Jan.13_07_00_28.AEST.2008.narrabn.c5.gamma.jpg'
p1493
aS'daytimex_1154120427.Sat.Jul.29_07_00_27.AEST.2006.narrabn.c5.gamma.jpg'
p1494
aS'daytimex_1102712427.Sat.Dec.11_07_00_27.AEST.2004.narrabn.c5.gamma.jpg'
p1495
aS'daytimex_1298494828.Thu.Feb.24_07_00_28.AEST.2011.narrabn.c5.gamma.jpg'
p1496
aS'daytimex_1252270827.Mon.Sep.07_07_00_27.AEST.2009.narrabn.c5.gamma.jpg'
p1497
aS'daytimex_1258837227.Sun.Nov.22_07_00_27.AEST.2009.narrabn.c5.gamma.jpg'
p1498
aS'daytimex_1365973226.Mon.Apr.15_07_00_26.AEST.2013.narrabn.c5.gamma.jpg'
p1499
aS'daytimex_1169326827.Sun.Jan.21_07_00_27.AEST.2007.narrabn.c5.gamma.jpg'
p1500
a.