(lp0
S'daytimex_1115758827.Wed.May.11_07_00_27.AEST.2005.narrabn.c5.jpg'
p1
aS'daytimex_1115067628.Tue.May.03_07_00_28.AEST.2005.narrabn.c5.jpg'
p2
aS'daytimex_1362776427.Sat.Mar.09_07_00_27.AEST.2013.narrabn.c5.jpg'
p3
aS'daytimex_1152478828.Mon.Jul.10_07_00_28.AEST.2006.narrabn.c5.jpg'
p4
aS'daytimex_1244840427.Sat.Jun.13_07_00_27.AEST.2009.narrabn.c5.jpg'
p5
aS'daytimex_1179608427.Sun.May.20_07_00_27.AEST.2007.narrabn.c5.jpg'
p6
aS'daytimex_1391115627.Fri.Jan.31_07_00_27.AEST.2014.narrabn.c5.jpg'
p7
aS'daytimex_1151614827.Fri.Jun.30_07_00_27.AEST.2006.narrabn.c5.jpg'
p8
aS'daytimex_1168808428.Mon.Jan.15_07_00_28.AEST.2007.narrabn.c5.jpg'
p9
aS'daytimex_1178226028.Fri.May.04_07_00_28.AEST.2007.narrabn.c5.jpg'
p10
aS'daytimex_1199307628.Thu.Jan.03_07_00_28.AEST.2008.narrabn.c5.jpg'
p11
aS'daytimex_1179522028.Sat.May.19_07_00_28.AEST.2007.narrabn.c5.jpg'
p12
aS'daytimex_1115586027.Mon.May.09_07_00_27.AEST.2005.narrabn.c5.jpg'
p13
aS'daytimex_1092432044.Sat.Aug.14_07_20_44.AEST.2004.narrabn.c5.jpg'
p14
aS'daytimex_1377205228.Fri.Aug.23_07_00_28.AEST.2013.narrabn.c5.jpg'
p15
aS'daytimex_1114722027.Fri.Apr.29_07_00_27.AEST.2005.narrabn.c5.jpg'
p16
aS'daytimex_1356382827.Tue.Dec.25_07_00_27.AEST.2012.narrabn.c5.jpg'
p17
aS'daytimex_1183410028.Tue.Jul.03_07_00_28.AEST.2007.narrabn.c5.jpg'
p18
aS'daytimex_1244667628.Thu.Jun.11_07_00_28.AEST.2009.narrabn.c5.jpg'
p19
aS'daytimex_1216414828.Sat.Jul.19_07_00_28.AEST.2008.narrabn.c5.jpg'
p20
aS'daytimex_1180904428.Mon.Jun.04_07_00_28.AEST.2007.narrabn.c5.jpg'
p21
aS'daytimex_1216328427.Fri.Jul.18_07_00_27.AEST.2008.narrabn.c5.jpg'
p22
aS'daytimex_1179262828.Wed.May.16_07_00_28.AEST.2007.narrabn.c5.jpg'
p23
aS'daytimex_1233003628.Tue.Jan.27_07_00_28.AEST.2009.narrabn.c5.jpg'
p24
aS'daytimex_1115413227.Sat.May.07_07_00_27.AEST.2005.narrabn.c5.jpg'
p25
aS'daytimex_1122843628.Mon.Aug.01_07_00_28.AEST.2005.narrabn.c5.jpg'
p26
aS'daytimex_1218747627.Fri.Aug.15_07_00_27.AEST.2008.narrabn.c5.jpg'
p27
aS'daytimex_1191877228.Tue.Oct.09_07_00_28.AEST.2007.narrabn.c5.jpg'
p28
aS'daytimex_1189458027.Tue.Sep.11_07_00_27.AEST.2007.narrabn.c5.jpg'
p29
aS'daytimex_1192568427.Wed.Oct.17_07_00_27.AEST.2007.narrabn.c5.jpg'
p30
aS'daytimex_1210366827.Sat.May.10_07_00_27.AEST.2008.narrabn.c5.jpg'
p31
aS'daytimex_1366664426.Tue.Apr.23_07_00_26.AEST.2013.narrabn.c5.jpg'
p32
aS'daytimex_1176498028.Sat.Apr.14_07_00_28.AEST.2007.narrabn.c5.jpg'
p33
aS'daytimex_1199739627.Tue.Jan.08_07_00_27.AEST.2008.narrabn.c5.jpg'
p34
aS'daytimex_1192395627.Mon.Oct.15_07_00_27.AEST.2007.narrabn.c5.jpg'
p35
aS'daytimex_1367701227.Sun.May.05_07_00_27.AEST.2013.narrabn.c5.jpg'
p36
aS'daytimex_1095542444.Sun.Sep.19_07_20_44.AEST.2004.narrabn.c5.jpg'
p37
aS'daytimex_1300482028.Sat.Mar.19_07_00_28.AEST.2011.narrabn.c5.jpg'
p38
aS'daytimex_1176584427.Sun.Apr.15_07_00_27.AEST.2007.narrabn.c5.jpg'
p39
aS'daytimex_1107032427.Sun.Jan.30_07_00_27.AEST.2005.narrabn.c5.jpg'
p40
ag22
aS'daytimex_1113944427.Wed.Apr.20_07_00_27.AEST.2005.narrabn.c5.jpg'
p41
aS'daytimex_1393707627.Sun.Mar.02_07_00_27.AEST.2014.narrabn.c5.jpg'
p42
aS'daytimex_1177880427.Mon.Apr.30_07_00_27.AEST.2007.narrabn.c5.jpg'
p43
aS'daytimex_1285448428.Sun.Sep.26_07_00_28.AEST.2010.narrabn.c5.jpg'
p44
aS'daytimex_1110229228.Tue.Mar.08_07_00_28.AEST.2005.narrabn.c5.jpg'
p45
aS'daytimex_1296421228.Mon.Jan.31_07_00_28.AEST.2011.narrabn.c5.jpg'
p46
aS'daytimex_1160082028.Fri.Oct.06_07_00_28.AEST.2006.narrabn.c5.jpg'
p47
aS'daytimex_1325019628.Wed.Dec.28_07_00_28.AEST.2011.narrabn.c5.jpg'
p48
aS'daytimex_1364504427.Fri.Mar.29_07_00_27.AEST.2013.narrabn.c5.jpg'
p49
aS'daytimex_1395867628.Thu.Mar.27_07_00_28.AEST.2014.narrabn.c5.jpg'
p50
aS'daytimex_1280091628.Mon.Jul.26_07_00_28.AEST.2010.narrabn.c5.jpg'
p51
aS'daytimex_1278882027.Mon.Jul.12_07_00_27.AEST.2010.narrabn.c5.jpg'
p52
aS'daytimex_1110315628.Wed.Mar.09_07_00_28.AEST.2005.narrabn.c5.jpg'
p53
aS'daytimex_1324760428.Sun.Dec.25_07_00_28.AEST.2011.narrabn.c5.jpg'
p54
aS'daytimex_1396818028.Mon.Apr.07_07_00_28.AEST.2014.narrabn.c5.jpg'
p55
aS'daytimex_1110661227.Sun.Mar.13_07_00_27.AEST.2005.narrabn.c5.jpg'
p56
aS'daytimex_1174683628.Sat.Mar.24_07_00_28.AEST.2007.narrabn.c5.jpg'
p57
aS'daytimex_1302123627.Thu.Apr.07_07_00_27.AEST.2011.narrabn.c5.jpg'
p58
aS'daytimex_1394830828.Sat.Mar.15_07_00_28.AEST.2014.narrabn.c5.jpg'
p59
aS'daytimex_1115154028.Wed.May.04_07_00_28.AEST.2005.narrabn.c5.jpg'
p60
aS'daytimex_1397077227.Thu.Apr.10_07_00_27.AEST.2014.narrabn.c5.jpg'
p61
aS'daytimex_1165611628.Sat.Dec.09_07_00_28.AEST.2006.narrabn.c5.jpg'
p62
aS'daytimex_1118264428.Thu.Jun.09_07_00_28.AEST.2005.narrabn.c5.jpg'
p63
aS'daytimex_1095196845.Wed.Sep.15_07_20_45.AEST.2004.narrabn.c5.jpg'
p64
aS'daytimex_1115326827.Fri.May.06_07_00_27.AEST.2005.narrabn.c5.jpg'
p65
aS'daytimex_1348779627.Fri.Sep.28_07_00_27.AEST.2012.narrabn.c5.jpg'
p66
aS'daytimex_1192136427.Fri.Oct.12_07_00_27.AEST.2007.narrabn.c5.jpg'
p67
aS'daytimex_1091568045.Wed.Aug.04_07_20_45.AEST.2004.narrabn.c5.jpg'
p68
aS'daytimex_1298062827.Sat.Feb.19_07_00_27.AEST.2011.narrabn.c5.jpg'
p69
aS'daytimex_1383339628.Sat.Nov.02_07_00_28.AEST.2013.narrabn.c5.jpg'
p70
aS'daytimex_1338670828.Sun.Jun.03_07_00_28.AEST.2012.narrabn.c5.jpg'
p71
aS'daytimex_1383166828.Thu.Oct.31_07_00_28.AEST.2013.narrabn.c5.jpg'
p72
ag72
aS'daytimex_1170968427.Fri.Feb.09_07_00_27.AEST.2007.narrabn.c5.jpg'
p73
aS'daytimex_1158613228.Tue.Sep.19_07_00_28.AEST.2006.narrabn.c5.jpg'
p74
aS'daytimex_1113339627.Wed.Apr.13_07_00_27.AEST.2005.narrabn.c5.jpg'
p75
ag70
aS'daytimex_1231707628.Mon.Jan.12_07_00_28.AEST.2009.narrabn.c5.jpg'
p76
aS'daytimex_1193346027.Fri.Oct.26_07_00_27.AEST.2007.narrabn.c5.jpg'
p77
aS'daytimex_1392930028.Fri.Feb.21_07_00_28.AEST.2014.narrabn.c5.jpg'
p78
aS'daytimex_1132347628.Sat.Nov.19_07_00_28.AEST.2005.narrabn.c5.jpg'
p79
aS'daytimex_1276635628.Wed.Jun.16_07_00_28.AEST.2010.narrabn.c5.jpg'
p80
aS'daytimex_1309554027.Sat.Jul.02_07_00_27.AEST.2011.narrabn.c5.jpg'
p81
aS'daytimex_1277845228.Wed.Jun.30_07_00_28.AEST.2010.narrabn.c5.jpg'
p82
aS'daytimex_1200949228.Tue.Jan.22_07_00_28.AEST.2008.narrabn.c5.jpg'
p83
aS'daytimex_1390078828.Sun.Jan.19_07_00_28.AEST.2014.narrabn.c5.jpg'
p84
aS'daytimex_1175547628.Tue.Apr.03_07_00_28.AEST.2007.narrabn.c5.jpg'
p85
ag71
aS'daytimex_1150318827.Thu.Jun.15_07_00_27.AEST.2006.narrabn.c5.jpg'
p86
aS'daytimex_1296248427.Sat.Jan.29_07_00_27.AEST.2011.narrabn.c5.jpg'
p87
ag24
aS'daytimex_1170104428.Tue.Jan.30_07_00_28.AEST.2007.narrabn.c5.jpg'
p88
aS'daytimex_1297026028.Mon.Feb.07_07_00_28.AEST.2011.narrabn.c5.jpg'
p89
aS'daytimex_1237323627.Wed.Mar.18_07_00_27.AEST.2009.narrabn.c5.jpg'
p90
aS'daytimex_1210021227.Tue.May.06_07_00_27.AEST.2008.narrabn.c5.jpg'
p91
ag82
aS'daytimex_1096752044.Sun.Oct.03_07_20_44.AEST.2004.narrabn.c5.jpg'
p92
aS'daytimex_1130878828.Wed.Nov.02_07_00_28.AEST.2005.narrabn.c5.jpg'
p93
aS'daytimex_1104267628.Wed.Dec.29_07_00_28.AEST.2004.narrabn.c5.jpg'
p94
aS'daytimex_1184706028.Wed.Jul.18_07_00_28.AEST.2007.narrabn.c5.jpg'
p95
aS'daytimex_1339448428.Tue.Jun.12_07_00_28.AEST.2012.narrabn.c5.jpg'
p96
aS'daytimex_1113771628.Mon.Apr.18_07_00_28.AEST.2005.narrabn.c5.jpg'
p97
aS'daytimex_1118523628.Sun.Jun.12_07_00_28.AEST.2005.narrabn.c5.jpg'
p98
aS'daytimex_1304715627.Sat.May.07_07_00_27.AEST.2011.narrabn.c5.jpg'
p99
aS'daytimex_1295643628.Sat.Jan.22_07_00_28.AEST.2011.narrabn.c5.jpg'
p100
aS'daytimex_1356123626.Sat.Dec.22_07_00_26.AEST.2012.narrabn.c5.jpg'
p101
aS'daytimex_1258837227.Sun.Nov.22_07_00_27.AEST.2009.narrabn.c5.jpg'
p102
aS'daytimex_1278018028.Fri.Jul.02_07_00_28.AEST.2010.narrabn.c5.jpg'
p103
aS'daytimex_1355259627.Wed.Dec.12_07_00_27.AEST.2012.narrabn.c5.jpg'
p104
aS'daytimex_1164229228.Thu.Nov.23_07_00_28.AEST.2006.narrabn.c5.jpg'
p105
aS'daytimex_1205614828.Sun.Mar.16_07_00_28.AEST.2008.narrabn.c5.jpg'
p106
ag66
aS'daytimex_1230757227.Thu.Jan.01_07_00_27.AEST.2009.narrabn.c5.jpg'
p107
aS'daytimex_1239138028.Wed.Apr.08_07_00_28.AEST.2009.narrabn.c5.jpg'
p108
aS'daytimex_1168981228.Wed.Jan.17_07_00_28.AEST.2007.narrabn.c5.jpg'
p109
aS'daytimex_1211058028.Sun.May.18_07_00_28.AEST.2008.narrabn.c5.jpg'
p110
aS'daytimex_1327179628.Sun.Jan.22_07_00_28.AEST.2012.narrabn.c5.jpg'
p111
aS'daytimex_1106514027.Mon.Jan.24_07_00_27.AEST.2005.narrabn.c5.jpg'
p112
aS'daytimex_1133470828.Fri.Dec.02_07_00_28.AEST.2005.narrabn.c5.jpg'
p113
aS'daytimex_1162674028.Sun.Nov.05_07_00_28.AEST.2006.narrabn.c5.jpg'
p114
aS'daytimex_1199998828.Fri.Jan.11_07_00_28.AEST.2008.narrabn.c5.jpg'
p115
ag9
ag40
aS'daytimex_1275080427.Sat.May.29_07_00_27.AEST.2010.narrabn.c5.jpg'
p116
aS'daytimex_1131915627.Mon.Nov.14_07_00_27.AEST.2005.narrabn.c5.jpg'
p117
ag17
aS'daytimex_1289336428.Wed.Nov.10_07_00_28.AEST.2010.narrabn.c5.jpg'
p118
aS'daytimex_1181854827.Fri.Jun.15_07_00_27.AEST.2007.narrabn.c5.jpg'
p119
aS'daytimex_1194469228.Thu.Nov.08_07_00_28.AEST.2007.narrabn.c5.jpg'
p120
aS'daytimex_1168722027.Sun.Jan.14_07_00_27.AEST.2007.narrabn.c5.jpg'
p121
aS'daytimex_1319749225.Fri.Oct.28_07_00_25.AEST.2011.narrabn.c5.jpg'
p122
ag105
aS'daytimex_1263070827.Sun.Jan.10_07_00_27.AEST.2010.narrabn.c5.jpg'
p123
aS'daytimex_1365109227.Fri.Apr.05_07_00_27.AEST.2013.narrabn.c5.jpg'
p124
aS'daytimex_1103058027.Wed.Dec.15_07_00_27.AEST.2004.narrabn.c5.jpg'
p125
aS'daytimex_1103403628.Sun.Dec.19_07_00_28.AEST.2004.narrabn.c5.jpg'
p126
ag13
aS'daytimex_1355518826.Sat.Dec.15_07_00_26.AEST.2012.narrabn.c5.jpg'
p127
aS'daytimex_1364331627.Wed.Mar.27_07_00_27.AEST.2013.narrabn.c5.jpg'
p128
aS'daytimex_1110920428.Wed.Mar.16_07_00_28.AEST.2005.narrabn.c5.jpg'
p129
aS'daytimex_1102539628.Thu.Dec.09_07_00_28.AEST.2004.narrabn.c5.jpg'
p130
aS'daytimex_1363294826.Fri.Mar.15_07_00_26.AEST.2013.narrabn.c5.jpg'
p131
ag102
aS'daytimex_1102712427.Sat.Dec.11_07_00_27.AEST.2004.narrabn.c5.jpg'
p132
aS'daytimex_1390165228.Mon.Jan.20_07_00_28.AEST.2014.narrabn.c5.jpg'
p133
aS'daytimex_1137013242.Thu.Jan.12_07_00_42.AEST.2006.narrabn.c5.jpg'
p134
aS'daytimex_1363381227.Sat.Mar.16_07_00_27.AEST.2013.narrabn.c5.jpg'
p135
aS'daytimex_1366059626.Tue.Apr.16_07_00_26.AEST.2013.narrabn.c5.jpg'
p136
aS'daytimex_1272315628.Tue.Apr.27_07_00_28.AEST.2010.narrabn.c5.jpg'
p137
aS'daytimex_1141506027.Sun.Mar.05_07_00_27.AEST.2006.narrabn.c5.jpg'
p138
aS'daytimex_1202331628.Thu.Feb.07_07_00_28.AEST.2008.narrabn.c5.jpg'
p139
ag92
aS'daytimex_1365714027.Fri.Apr.12_07_00_27.AEST.2013.narrabn.c5.jpg'
p140
ag34
aS'daytimex_1238014828.Thu.Mar.26_07_00_28.AEST.2009.narrabn.c5.jpg'
p141
aS'daytimex_1102453228.Wed.Dec.08_07_00_28.AEST.2004.narrabn.c5.jpg'
p142
aS'daytimex_1200258027.Mon.Jan.14_07_00_27.AEST.2008.narrabn.c5.jpg'
p143
aS'daytimex_1366837226.Thu.Apr.25_07_00_26.AEST.2013.narrabn.c5.jpg'
p144
aS'daytimex_1252270827.Mon.Sep.07_07_00_27.AEST.2009.narrabn.c5.jpg'
p145
aS'daytimex_1379624427.Fri.Sep.20_07_00_27.AEST.2013.narrabn.c5.jpg'
p146
aS'daytimex_1144616428.Mon.Apr.10_07_00_28.AEST.2006.narrabn.c5.jpg'
p147
a.