(lp0
Vdaytimex_1272747627.Sun.May.02_07_00_27.AEST.2010.narrabn.c5.jpg
p1
aVdaytimex_1180213228.Sun.May.27_07_00_28.AEST.2007.narrabn.c5.jpg
p2
aVdaytimex_1285621228.Tue.Sep.28_07_00_28.AEST.2010.narrabn.c5.jpg
p3
aVdaytimex_1272056427.Sat.Apr.24_07_00_27.AEST.2010.narrabn.c5.jpg
p4
aVdaytimex_1321822828.Mon.Nov.21_07_00_28.AEST.2011.narrabn.c5.jpg
p5
aVdaytimex_1114722027.Fri.Apr.29_07_00_27.AEST.2005.narrabn.c5.jpg
p6
aVdaytimex_1152478828.Mon.Jul.10_07_00_28.AEST.2006.narrabn.c5.jpg
p7
aVdaytimex_1177966828.Tue.May.01_07_00_28.AEST.2007.narrabn.c5.jpg
p8
aVdaytimex_1179522028.Sat.May.19_07_00_28.AEST.2007.narrabn.c5.jpg
p9
aVdaytimex_1269032427.Sat.Mar.20_07_00_27.AEST.2010.narrabn.c5.jpg
p10
aVdaytimex_1122843628.Mon.Aug.01_07_00_28.AEST.2005.narrabn.c5.jpg
p11
aVdaytimex_1212267627.Sun.Jun.01_07_00_27.AEST.2008.narrabn.c5.jpg
p12
aVdaytimex_1377205228.Fri.Aug.23_07_00_28.AEST.2013.narrabn.c5.jpg
p13
aVdaytimex_1179694828.Mon.May.21_07_00_28.AEST.2007.narrabn.c5.jpg
p14
aVdaytimex_1180904428.Mon.Jun.04_07_00_28.AEST.2007.narrabn.c5.jpg
p15
aVdaytimex_1349470828.Sat.Oct.06_07_00_28.AEST.2012.narrabn.c5.jpg
p16
aVdaytimex_1210280428.Fri.May.09_07_00_28.AEST.2008.narrabn.c5.jpg
p17
aVdaytimex_1302123627.Thu.Apr.07_07_00_27.AEST.2011.narrabn.c5.jpg
p18
aVdaytimex_1397163628.Fri.Apr.11_07_00_28.AEST.2014.narrabn.c5.jpg
p19
aVdaytimex_1192395627.Mon.Oct.15_07_00_27.AEST.2007.narrabn.c5.jpg
p20
aVdaytimex_1148936427.Tue.May.30_07_00_27.AEST.2006.narrabn.c5.jpg
p21
aVdaytimex_1160082028.Fri.Oct.06_07_00_28.AEST.2006.narrabn.c5.jpg
p22
aVdaytimex_1269118827.Sun.Mar.21_07_00_27.AEST.2010.narrabn.c5.jpg
p23
aVdaytimex_1115413227.Sat.May.07_07_00_27.AEST.2005.narrabn.c5.jpg
p24
aVdaytimex_1152738027.Thu.Jul.13_07_00_27.AEST.2006.narrabn.c5.jpg
p25
aVdaytimex_1300482028.Sat.Mar.19_07_00_28.AEST.2011.narrabn.c5.jpg
p26
aVdaytimex_1174424427.Wed.Mar.21_07_00_27.AEST.2007.narrabn.c5.jpg
p27
aVdaytimex_1171141228.Sun.Feb.11_07_00_28.AEST.2007.narrabn.c5.jpg
p28
aVdaytimex_1123362028.Sun.Aug.07_07_00_28.AEST.2005.narrabn.c5.jpg
p29
aVdaytimex_1301950828.Tue.Apr.05_07_00_28.AEST.2011.narrabn.c5.jpg
p30
aVdaytimex_1382475627.Wed.Oct.23_07_00_27.AEST.2013.narrabn.c5.jpg
p31
aVdaytimex_1118264428.Thu.Jun.09_07_00_28.AEST.2005.narrabn.c5.jpg
p32
aVdaytimex_1117832428.Sat.Jun.04_07_00_28.AEST.2005.narrabn.c5.jpg
p33
aVdaytimex_1159822828.Tue.Oct.03_07_00_28.AEST.2006.narrabn.c5.jpg
p34
aVdaytimex_1113426028.Thu.Apr.14_07_00_28.AEST.2005.narrabn.c5.jpg
p35
aVdaytimex_1127509228.Sat.Sep.24_07_00_28.AEST.2005.narrabn.c5.jpg
p36
aVdaytimex_1138136428.Wed.Jan.25_07_00_28.AEST.2006.narrabn.c5.jpg
p37
aVdaytimex_1118523628.Sun.Jun.12_07_00_28.AEST.2005.narrabn.c5.jpg
p38
aVdaytimex_1113166827.Mon.Apr.11_07_00_27.AEST.2005.narrabn.c5.jpg
p39
aVdaytimex_1170968427.Fri.Feb.09_07_00_27.AEST.2007.narrabn.c5.jpg
p40
aVdaytimex_1121893228.Thu.Jul.21_07_00_28.AEST.2005.narrabn.c5.jpg
p41
aVdaytimex_1119128428.Sun.Jun.19_07_00_28.AEST.2005.narrabn.c5.jpg
p42
aVdaytimex_1194901228.Tue.Nov.13_07_00_28.AEST.2007.narrabn.c5.jpg
p43
aVdaytimex_1236459627.Sun.Mar.08_07_00_27.AEST.2009.narrabn.c5.jpg
p44
aVdaytimex_1175202028.Fri.Mar.30_07_00_28.AEST.2007.narrabn.c5.jpg
p45
aVdaytimex_1141592428.Mon.Mar.06_07_00_28.AEST.2006.narrabn.c5.jpg
p46
aVdaytimex_1116795627.Mon.May.23_07_00_27.AEST.2005.narrabn.c5.jpg
p47
aVdaytimex_1289422827.Thu.Nov.11_07_00_27.AEST.2010.narrabn.c5.jpg
p48
aVdaytimex_1169499628.Tue.Jan.23_07_00_28.AEST.2007.narrabn.c5.jpg
p49
aVdaytimex_1344891627.Tue.Aug.14_07_00_27.AEST.2012.narrabn.c5.jpg
p50
aVdaytimex_1130706027.Mon.Oct.31_07_00_27.AEST.2005.narrabn.c5.jpg
p51
aVdaytimex_1181854827.Fri.Jun.15_07_00_27.AEST.2007.narrabn.c5.jpg
p52
aVdaytimex_1130446828.Fri.Oct.28_07_00_28.AEST.2005.narrabn.c5.jpg
p53
aVdaytimex_1107032427.Sun.Jan.30_07_00_27.AEST.2005.narrabn.c5.jpg
p54
aVdaytimex_1246136428.Sun.Jun.28_07_00_28.AEST.2009.narrabn.c5.jpg
p55
aVdaytimex_1322773228.Fri.Dec.02_07_00_28.AEST.2011.narrabn.c5.jpg
p56
aVdaytimex_1099171245.Sun.Oct.31_07_20_45.AEST.2004.narrabn.c5.jpg
p57
aVdaytimex_1355518826.Sat.Dec.15_07_00_26.AEST.2012.narrabn.c5.jpg
p58
aVdaytimex_1200171628.Sun.Jan.13_07_00_28.AEST.2008.narrabn.c5.jpg
p59
aVdaytimex_1327352427.Tue.Jan.24_07_00_27.AEST.2012.narrabn.c5.jpg
p60
aVdaytimex_1363122026.Wed.Mar.13_07_00_26.AEST.2013.narrabn.c5.jpg
p61
aVdaytimex_1199307628.Thu.Jan.03_07_00_28.AEST.2008.narrabn.c5.jpg
p62
aVdaytimex_1364763627.Mon.Apr.01_07_00_27.AEST.2013.narrabn.c5.jpg
p63
aVdaytimex_1337115627.Wed.May.16_07_00_27.AEST.2012.narrabn.c5.jpg
p64
aVdaytimex_1390078828.Sun.Jan.19_07_00_28.AEST.2014.narrabn.c5.jpg
p65
aVdaytimex_1391115627.Fri.Jan.31_07_00_27.AEST.2014.narrabn.c5.jpg
p66
aVdaytimex_1363035626.Tue.Mar.12_07_00_26.AEST.2013.narrabn.c5.jpg
p67
aVdaytimex_1199653228.Mon.Jan.07_07_00_28.AEST.2008.narrabn.c5.jpg
p68
aVdaytimex_1146258028.Sat.Apr.29_07_00_28.AEST.2006.narrabn.c5.jpg
p69
aVdaytimex_1379451627.Wed.Sep.18_07_00_27.AEST.2013.narrabn.c5.jpg
p70
aVdaytimex_1098825644.Wed.Oct.27_07_20_44.AEST.2004.narrabn.c5.jpg
p71
aVdaytimex_1379624427.Fri.Sep.20_07_00_27.AEST.2013.narrabn.c5.jpg
p72
aVdaytimex_1349730027.Tue.Oct.09_07_00_27.AEST.2012.narrabn.c5.jpg
p73
aVdaytimex_1098566444.Sun.Oct.24_07_20_44.AEST.2004.narrabn.c5.jpg
p74
aVdaytimex_1363294826.Fri.Mar.15_07_00_26.AEST.2013.narrabn.c5.jpg
p75
a.