(lp0
S'daytimex_1365282027.Sun.Apr.07_07_00_27.AEST.2013.narrabn.c5.jpg'
p1
aS'daytimex_1362690026.Fri.Mar.08_07_00_26.AEST.2013.narrabn.c5.jpg'
p2
aS'daytimex_1391115627.Fri.Jan.31_07_00_27.AEST.2014.narrabn.c5.jpg'
p3
aS'daytimex_1244581228.Wed.Jun.10_07_00_28.AEST.2009.narrabn.c5.jpg'
p4
aS'daytimex_1367096427.Sun.Apr.28_07_00_27.AEST.2013.narrabn.c5.jpg'
p5
aS'daytimex_1272747627.Sun.May.02_07_00_27.AEST.2010.narrabn.c5.jpg'
p6
aS'daytimex_1151701228.Sat.Jul.01_07_00_28.AEST.2006.narrabn.c5.jpg'
p7
aS'daytimex_1244667628.Thu.Jun.11_07_00_28.AEST.2009.narrabn.c5.jpg'
p8
aS'daytimex_1243976428.Wed.Jun.03_07_00_28.AEST.2009.narrabn.c5.jpg'
p9
aS'daytimex_1207429228.Sun.Apr.06_07_00_28.AEST.2008.narrabn.c5.jpg'
p10
aS'daytimex_1244408427.Mon.Jun.08_07_00_27.AEST.2009.narrabn.c5.jpg'
p11
aS'daytimex_1178226028.Fri.May.04_07_00_28.AEST.2007.narrabn.c5.jpg'
p12
aS'daytimex_1177102828.Sat.Apr.21_07_00_28.AEST.2007.narrabn.c5.jpg'
p13
aS'daytimex_1174424427.Wed.Mar.21_07_00_27.AEST.2007.narrabn.c5.jpg'
p14
aS'daytimex_1298926828.Tue.Mar.01_07_00_28.AEST.2011.narrabn.c5.jpg'
p15
aS'daytimex_1396386028.Wed.Apr.02_07_00_28.AEST.2014.narrabn.c5.jpg'
p16
aS'daytimex_1252184428.Sun.Sep.06_07_00_28.AEST.2009.narrabn.c5.jpg'
p17
aS'daytimex_1165611628.Sat.Dec.09_07_00_28.AEST.2006.narrabn.c5.jpg'
p18
aS'daytimex_1193346027.Fri.Oct.26_07_00_27.AEST.2007.narrabn.c5.jpg'
p19
aS'daytimex_1278795628.Sun.Jul.11_07_00_28.AEST.2010.narrabn.c5.jpg'
p20
aS'daytimex_1249592428.Fri.Aug.07_07_00_28.AEST.2009.narrabn.c5.jpg'
p21
aS'daytimex_1160168427.Sat.Oct.07_07_00_27.AEST.2006.narrabn.c5.jpg'
p22
aS'daytimex_1396818028.Mon.Apr.07_07_00_28.AEST.2014.narrabn.c5.jpg'
p23
aS'daytimex_1395867628.Thu.Mar.27_07_00_28.AEST.2014.narrabn.c5.jpg'
p24
aS'daytimex_1124744428.Tue.Aug.23_07_00_28.AEST.2005.narrabn.c5.jpg'
p25
aS'daytimex_1297890028.Thu.Feb.17_07_00_28.AEST.2011.narrabn.c5.jpg'
p26
aS'daytimex_1298062827.Sat.Feb.19_07_00_27.AEST.2011.narrabn.c5.jpg'
p27
aS'daytimex_1303160427.Tue.Apr.19_07_00_27.AEST.2011.narrabn.c5.jpg'
p28
aS'daytimex_1338670828.Sun.Jun.03_07_00_28.AEST.2012.narrabn.c5.jpg'
p29
aS'daytimex_1305579627.Tue.May.17_07_00_27.AEST.2011.narrabn.c5.jpg'
p30
aS'daytimex_1297630827.Mon.Feb.14_07_00_27.AEST.2011.narrabn.c5.jpg'
p31
aS'daytimex_1282856427.Fri.Aug.27_07_00_27.AEST.2010.narrabn.c5.jpg'
p32
aS'daytimex_1113598827.Sat.Apr.16_07_00_27.AEST.2005.narrabn.c5.jpg'
p33
aS'daytimex_1110229228.Tue.Mar.08_07_00_28.AEST.2005.narrabn.c5.jpg'
p34
aS'daytimex_1386536428.Mon.Dec.09_07_00_28.AEST.2013.narrabn.c5.jpg'
p35
aS'daytimex_1104526828.Sat.Jan.01_07_00_28.AEST.2005.narrabn.c5.jpg'
p36
aS'daytimex_1352667627.Mon.Nov.12_07_00_27.AEST.2012.narrabn.c5.jpg'
p37
aS'daytimex_1200949228.Tue.Jan.22_07_00_28.AEST.2008.narrabn.c5.jpg'
p38
aS'daytimex_1219179627.Wed.Aug.20_07_00_27.AEST.2008.narrabn.c5.jpg'
p39
aS'daytimex_1295557227.Fri.Jan.21_07_00_27.AEST.2011.narrabn.c5.jpg'
p40
aS'daytimex_1276635628.Wed.Jun.16_07_00_28.AEST.2010.narrabn.c5.jpg'
p41
aS'daytimex_1112562027.Mon.Apr.04_07_00_27.AEST.2005.narrabn.c5.jpg'
p42
aS'daytimex_1376859628.Mon.Aug.19_07_00_28.AEST.2013.narrabn.c5.jpg'
p43
aS'daytimex_1295643628.Sat.Jan.22_07_00_28.AEST.2011.narrabn.c5.jpg'
p44
aS'daytimex_1184706028.Wed.Jul.18_07_00_28.AEST.2007.narrabn.c5.jpg'
p45
aS'daytimex_1366750827.Wed.Apr.24_07_00_27.AEST.2013.narrabn.c5.jpg'
p46
aS'daytimex_1327093228.Sat.Jan.21_07_00_28.AEST.2012.narrabn.c5.jpg'
p47
aS'daytimex_1382389228.Tue.Oct.22_07_00_28.AEST.2013.narrabn.c5.jpg'
p48
aS'daytimex_1189890028.Sun.Sep.16_07_00_28.AEST.2007.narrabn.c5.jpg'
p49
aS'daytimex_1364590827.Sat.Mar.30_07_00_27.AEST.2013.narrabn.c5.jpg'
p50
aS'daytimex_1172955628.Sun.Mar.04_07_00_28.AEST.2007.narrabn.c5.jpg'
p51
aS'daytimex_1355432427.Fri.Dec.14_07_00_27.AEST.2012.narrabn.c5.jpg'
p52
aS'daytimex_1230152428.Thu.Dec.25_07_00_28.AEST.2008.narrabn.c5.jpg'
p53
aS'daytimex_1200430827.Wed.Jan.16_07_00_27.AEST.2008.narrabn.c5.jpg'
p54
aS'daytimex_1168808428.Mon.Jan.15_07_00_28.AEST.2007.narrabn.c5.jpg'
p55
aS'daytimex_1231016428.Sun.Jan.04_07_00_28.AEST.2009.narrabn.c5.jpg'
p56
aS'daytimex_1107032427.Sun.Jan.30_07_00_27.AEST.2005.narrabn.c5.jpg'
p57
aS'daytimex_1203886827.Mon.Feb.25_07_00_27.AEST.2008.narrabn.c5.jpg'
p58
aS'daytimex_1099171245.Sun.Oct.31_07_20_45.AEST.2004.narrabn.c5.jpg'
p59
aS'daytimex_1133470828.Fri.Dec.02_07_00_28.AEST.2005.narrabn.c5.jpg'
p60
aS'daytimex_1141506027.Sun.Mar.05_07_00_27.AEST.2006.narrabn.c5.jpg'
p61
aS'daytimex_1390078828.Sun.Jan.19_07_00_28.AEST.2014.narrabn.c5.jpg'
p62
aS'daytimex_1363986027.Sat.Mar.23_07_00_27.AEST.2013.narrabn.c5.jpg'
p63
aS'daytimex_1238014828.Thu.Mar.26_07_00_28.AEST.2009.narrabn.c5.jpg'
p64
aS'daytimex_1098566444.Sun.Oct.24_07_20_44.AEST.2004.narrabn.c5.jpg'
p65
aS'daytimex_1252357227.Tue.Sep.08_07_00_27.AEST.2009.narrabn.c5.jpg'
p66
aS'daytimex_1364763627.Mon.Apr.01_07_00_27.AEST.2013.narrabn.c5.jpg'
p67
aS'daytimex_1366491627.Sun.Apr.21_07_00_27.AEST.2013.narrabn.c5.jpg'
p68
aS'daytimex_1096752044.Sun.Oct.03_07_20_44.AEST.2004.narrabn.c5.jpg'
p69
aS'daytimex_1363122026.Wed.Mar.13_07_00_26.AEST.2013.narrabn.c5.jpg'
p70
aS'daytimex_1379624427.Fri.Sep.20_07_00_27.AEST.2013.narrabn.c5.jpg'
p71
aS'daytimex_1110920428.Wed.Mar.16_07_00_28.AEST.2005.narrabn.c5.jpg'
p72
aS'daytimex_1301864427.Mon.Apr.04_07_00_27.AEST.2011.narrabn.c5.jpg'
p73
aS'daytimex_1146258028.Sat.Apr.29_07_00_28.AEST.2006.narrabn.c5.jpg'
p74
aS'daytimex_1363208427.Thu.Mar.14_07_00_27.AEST.2013.narrabn.c5.jpg'
p75
a.