(lp0
V1091030400.Wed.Jul.28_16_00_00.GMT.2004.argus02a.c0.daytimex.rect.jpg
p1
aV1311523200.Sun.Jul.24_16_00_00.GMT.2011.argus02a.c0.daytimex.rect.jpg
p2
aV1089734400.Tue.Jul.13_16_00_00.GMT.2004.argus02a.c0.daytimex.rect.jpg
p3
aV932313600.Sun.Jul.18_16_00_00.GMT.1999.argus02a.c0.daytimex.rect.jpg
p4
aV995299200.Mon.Jul.16_16_00_00.GMT.2001.argus02a.c0.daytimex.rect.jpg
p5
aV1184169600.Wed.Jul.11_16_00_00.GMT.2007.argus02a.c0.daytimex.rect.jpg
p6
aV1076518800.Wed.Feb.11_17_00_00.GMT.2004.argus02a.c0.daytimex.rect.jpg
p7
aV1112803200.Wed.Apr.06_16_00_00.GMT.2005.argus02a.c0.daytimex.rect.jpg
p8
aV1190563200.Sun.Sep.23_16_00_00.GMT.2007.argus02a.c0.daytimex.rect.jpg
p9
aV1184342400.Fri.Jul.13_16_00_00.GMT.2007.argus02a.c0.daytimex.rect.jpg
p10
aV1186243200.Sat.Aug.04_16_00_00.GMT.2007.argus02a.c0.daytimex.rect.jpg
p11
aV1190476800.Sat.Sep.22_16_00_00.GMT.2007.argus02a.c0.daytimex.rect.jpg
p12
aV933264000.Thu.Jul.29_16_00_00.GMT.1999.argus02a.c0.daytimex.rect.jpg
p13
aV775152000.Mon.Jul.25_16_00_00.GMT.1994.argus02.c0.daytimex.rect.jpg
p14
aV993484800.Mon.Jun.25_16_00_00.GMT.2001.argus02a.c0.daytimex.rect.jpg
p15
aV1178121600.Wed.May.02_16_00_00.GMT.2007.argus02a.c0.daytimex.rect.jpg
p16
aV771091200.Wed.Jun.08_16_00_00.GMT.1994.argus02.c0.daytimex.rect.jpg
p17
aV1085500800.Tue.May.25_16_00_00.GMT.2004.argus02a.c0.daytimex.rect.jpg
p18
aV730486800.Tue.Feb.23_17_00_00.GMT.1993.argus02.c0.daytimex.rect.jpg
p19
aV965491200.Sat.Aug.05_16_00_00.GMT.2000.argus02a.c0.daytimex.rect.jpg
p20
aV933955200.Fri.Aug.06_16_00_00.GMT.1999.argus02a.c0.daytimex.rect.jpg
p21
aV992793600.Sun.Jun.17_16_00_00.GMT.2001.argus02a.c0.daytimex.rect.jpg
p22
aV779212800.Sat.Sep.10_16_00_00.GMT.1994.argus02.c0.daytimex.rect.jpg
p23
aV1150819200.Tue.Jun.20_16_00_00.GMT.2006.argus02a.c0.daytimex.rect.jpg
p24
aV1194368400.Tue.Nov.06_17_00_00.GMT.2007.argus02a.c0.daytimex.rect.jpg
p25
aV802972800.Mon.Jun.12_16_00_00.GMT.1995.argus02.c0.daytimex.rect.jpg
p26
aV1165856400.Mon.Dec.11_17_00_00.GMT.2006.argus02a.c0.daytimex.rect.jpg
p27
aV1185984000.Wed.Aug.01_16_00_00.GMT.2007.argus02a.c0.daytimex.rect.jpg
p28
aV1042131600.Thu.Jan.09_17_00_00.GMT.2003.argus02a.c0.daytimex.rect.jpg
p29
aV1264611600.Wed.Jan.27_17_00_00.GMT.2010.argus02a.c0.daytimex.rect.jpg
p30
aV1086192000.Wed.Jun.02_16_00_00.GMT.2004.argus02a.c0.daytimex.rect.jpg
p31
aV1263661200.Sat.Jan.16_17_00_00.GMT.2010.argus02a.c0.daytimex.rect.jpg
p32
aV1084723200.Sun.May.16_16_00_00.GMT.2004.argus02a.c0.daytimex.rect.jpg
p33
aV1089561600.Sun.Jul.11_16_00_00.GMT.2004.argus02a.c0.daytimex.rect.jpg
p34
aV934992000.Wed.Aug.18_16_00_00.GMT.1999.argus02a.c0.daytimex.rect.jpg
p35
aV1330966800.Mon.Mar.05_17_00_00.GMT.2012.argus02a.c0.daytimex.rect.jpg
p36
aV1332003600.Sat.Mar.17_17_00_00.GMT.2012.argus02a.c0.daytimex.rect.jpg
p37
aV739555200.Tue.Jun.08_16_00_00.GMT.1993.argus02.c0.daytimex.rect.jpg
p38
aV1215705600.Thu.Jul.10_16_00_00.GMT.2008.argus02a.c0.daytimex.rect.jpg
p39
aV744652800.Fri.Aug.06_16_00_00.GMT.1993.argus02.c0.daytimex.rect.jpg
p40
aV1153238400.Tue.Jul.18_16_00_00.GMT.2006.argus02a.c0.daytimex.rect.jpg
p41
aV1312473600.Thu.Aug.04_16_00_00.GMT.2011.argus02a.c0.daytimex.rect.jpg
p42
aV994262400.Wed.Jul.04_16_00_00.GMT.2001.argus02a.c0.daytimex.rect.jpg
p43
aV741888000.Mon.Jul.05_16_00_00.GMT.1993.argus02.c0.daytimex.rect.jpg
p44
aV741801600.Sun.Jul.04_16_00_00.GMT.1993.argus02.c0.daytimex.rect.jpg
p45
aV1322413200.Sun.Nov.27_17_00_00.GMT.2011.argus02a.c0.daytimex.rect.jpg
p46
aV880045200.Thu.Nov.20_17_00_00.GMT.1997.argus02a.c0.daytimex.rect.jpg
p47
aV994003200.Sun.Jul.01_16_00_00.GMT.2001.argus02a.c0.daytimex.rect.jpg
p48
aV1019145600.Thu.Apr.18_16_00_00.GMT.2002.argus02a.c0.daytimex.rect.jpg
p49
aV1331485200.Sun.Mar.11_17_00_00.GMT.2012.argus02a.c0.daytimex.rect.jpg
p50
aV932572800.Wed.Jul.21_16_00_00.GMT.1999.argus02a.c0.daytimex.rect.jpg
p51
aV931622400.Sat.Jul.10_16_00_00.GMT.1999.argus02a.c0.daytimex.rect.jpg
p52
aV926179200.Sat.May.08_16_00_00.GMT.1999.argus02a.c0.daytimex.rect.jpg
p53
aV1287417600.Mon.Oct.18_16_00_00.GMT.2010.argus02a.c0.daytimex.rect.jpg
p54
aV1330621200.Thu.Mar.01_17_00_00.GMT.2012.argus02a.c0.daytimex.rect.jpg
p55
aV927648000.Tue.May.25_16_00_00.GMT.1999.argus02a.c0.daytimex.rect.jpg
p56
aV835372800.Fri.Jun.21_16_00_00.GMT.1996.argus02.c0.daytimex.rect.jpg
p57
aV838224000.Wed.Jul.24_16_00_00.GMT.1996.argus02.c0.daytimex.rect.jpg
p58
aV965923200.Thu.Aug.10_16_00_00.GMT.2000.argus02a.c0.daytimex.rect.jpg
p59
aV738691200.Sat.May.29_16_00_00.GMT.1993.argus02.c0.daytimex.rect.jpg
p60
aV1178985600.Sat.May.12_16_00_00.GMT.2007.argus02a.c0.daytimex.rect.jpg
p61
aV1260896400.Tue.Dec.15_17_00_00.GMT.2009.argus02a.c0.daytimex.rect.jpg
p62
aV1192464000.Mon.Oct.15_16_00_00.GMT.2007.argus02a.c0.daytimex.rect.jpg
p63
aV1197392400.Tue.Dec.11_17_00_00.GMT.2007.argus02a.c0.daytimex.rect.jpg
p64
aV1084291200.Tue.May.11_16_00_00.GMT.2004.argus02a.c0.daytimex.rect.jpg
p65
aV1190822400.Wed.Sep.26_16_00_00.GMT.2007.argus02a.c0.daytimex.rect.jpg
p66
aV733597200.Wed.Mar.31_17_00_00.GMT.1993.argus02.c0.daytimex.rect.jpg
p67
aV1310313600.Sun.Jul.10_16_00_00.GMT.2011.argus02a.c0.daytimex.rect.jpg
p68
aV1183219200.Sat.Jun.30_16_00_00.GMT.2007.argus02a.c0.daytimex.rect.jpg
p69
aV1272729600.Sat.May.01_16_00_00.GMT.2010.argus02a.c0.daytimex.rect.jpg
p70
aV927475200.Sun.May.23_16_00_00.GMT.1999.argus02a.c0.daytimex.rect.jpg
p71
aV1019318400.Sat.Apr.20_16_00_00.GMT.2002.argus02a.c0.daytimex.rect.jpg
p72
aV1218124800.Thu.Aug.07_16_00_00.GMT.2008.argus02a.c0.daytimex.rect.jpg
p73
aV1139590800.Fri.Feb.10_17_00_00.GMT.2006.argus02a.c0.daytimex.rect.jpg
p74
aV1330534800.Wed.Feb.29_17_00_00.GMT.2012.argus02a.c0.daytimex.rect.jpg
p75
aV1283184000.Mon.Aug.30_16_00_00.GMT.2010.argus02a.c0.daytimex.rect.jpg
p76
aV744566400.Thu.Aug.05_16_00_00.GMT.1993.argus02.c0.daytimex.rect.jpg
p77
aV1168016400.Fri.Jan.05_17_00_00.GMT.2007.argus02a.c0.daytimex.rect.jpg
p78
aV1410969600.Wed.Sep.17_16_00_00.GMT.2014.argus02a.c0.daytimex.rect.jpg
p79
aV840297600.Sat.Aug.17_16_00_00.GMT.1996.argus02.c0.daytimex.rect.jpg
p80
aV1214755200.Sun.Jun.29_16_00_00.GMT.2008.argus02a.c0.daytimex.rect.jpg
p81
aV749750400.Mon.Oct.04_16_00_00.GMT.1993.argus02.c0.daytimex.rect.jpg
p82
aV1345651200.Wed.Aug.22_16_00_00.GMT.2012.argus02a.c0.daytimex.rect.jpg
p83
aV871747200.Sat.Aug.16_16_00_00.GMT.1997.argus02.c0.daytimex.rect.jpg
p84
aV837446400.Mon.Jul.15_16_00_00.GMT.1996.argus02.c0.daytimex.rect.jpg
p85
aV995385600.Tue.Jul.17_16_00_00.GMT.2001.argus02a.c0.daytimex.rect.jpg
p86
aV832435200.Sat.May.18_16_00_00.GMT.1996.argus02.c0.daytimex.rect.jpg
p87
aV965577600.Sun.Aug.06_16_00_00.GMT.2000.argus02a.c0.daytimex.rect.jpg
p88
aV1156867200.Tue.Aug.29_16_00_00.GMT.2006.argus02a.c0.daytimex.rect.jpg
p89
aV960566400.Fri.Jun.09_16_00_00.GMT.2000.argus02a.c0.daytimex.rect.jpg
p90
aV1061913600.Tue.Aug.26_16_00_00.GMT.2003.argus02a.c0.daytimex.rect.jpg
p91
aV1003507200.Fri.Oct.19_16_00_00.GMT.2001.argus02a.c0.daytimex.rect.jpg
p92
aV871920000.Mon.Aug.18_16_00_00.GMT.1997.argus02.c0.daytimex.rect.jpg
p93
aV1165683600.Sat.Dec.09_17_00_00.GMT.2006.argus02a.c0.daytimex.rect.jpg
p94
aV963417600.Wed.Jul.12_16_00_00.GMT.2000.argus02a.c0.daytimex.rect.jpg
p95
aV872611200.Tue.Aug.26_16_00_00.GMT.1997.argus02.c0.daytimex.rect.jpg
p96
aV843062400.Wed.Sep.18_16_00_00.GMT.1996.argus02.c0.daytimex.rect.jpg
p97
aV1164819600.Wed.Nov.29_17_00_00.GMT.2006.argus02a.c0.daytimex.rect.jpg
p98
aV980096400.Sun.Jan.21_17_00_00.GMT.2001.argus02a.c0.daytimex.rect.jpg
p99
aV1352221200.Tue.Nov.06_17_00_00.GMT.2012.argus02a.c0.daytimex.rect.jpg
p100
aV1374854400.Fri.Jul.26_16_00_00.GMT.2013.argus02a.c0.daytimex.rect.jpg
p101
aV965059200.Mon.Jul.31_16_00_00.GMT.2000.argus02a.c0.daytimex.rect.jpg
p102
aV1250265600.Fri.Aug.14_16_00_00.GMT.2009.argus02a.c0.daytimex.rect.jpg
p103
aV824749200.Mon.Feb.19_17_00_00.GMT.1996.argus02.c0.daytimex.rect.jpg
p104
aV839692800.Sat.Aug.10_16_00_00.GMT.1996.argus02.c0.daytimex.rect.jpg
p105
aV842976000.Tue.Sep.17_16_00_00.GMT.1996.argus02.c0.daytimex.rect.jpg
p106
aV1216396800.Fri.Jul.18_16_00_00.GMT.2008.argus02a.c0.daytimex.rect.jpg
p107
aV1325091600.Wed.Dec.28_17_00_00.GMT.2011.argus02a.c0.daytimex.rect.jpg
p108
aV1323882000.Wed.Dec.14_17_00_00.GMT.2011.argus02a.c0.daytimex.rect.jpg
p109
aV1048611600.Tue.Mar.25_17_00_00.GMT.2003.argus02a.c0.daytimex.rect.jpg
p110
aV1060876800.Thu.Aug.14_16_00_00.GMT.2003.argus02a.c0.daytimex.rect.jpg
p111
aV1216224000.Wed.Jul.16_16_00_00.GMT.2008.argus02a.c0.daytimex.rect.jpg
p112
aV1007139600.Fri.Nov.30_17_00_00.GMT.2001.argus02a.c0.daytimex.rect.jpg
p113
aV1094227200.Fri.Sep.03_16_00_00.GMT.2004.argus02a.c0.daytimex.rect.jpg
p114
aV1006275600.Tue.Nov.20_17_00_00.GMT.2001.argus02a.c0.daytimex.rect.jpg
p115
aV964972800.Sun.Jul.30_16_00_00.GMT.2000.argus02a.c0.daytimex.rect.jpg
p116
aV746035200.Sun.Aug.22_16_00_00.GMT.1993.argus02.c0.daytimex.rect.jpg
p117
aV1249315200.Mon.Aug.03_16_00_00.GMT.2009.argus02a.c0.daytimex.rect.jpg
p118
aV1223308800.Mon.Oct.06_16_00_00.GMT.2008.argus02a.c0.daytimex.rect.jpg
p119
aV842198400.Sun.Sep.08_16_00_00.GMT.1996.argus02.c0.daytimex.rect.jpg
p120
aV1343750400.Tue.Jul.31_16_00_00.GMT.2012.argus02a.c0.daytimex.rect.jpg
p121
aV1407945600.Wed.Aug.13_16_00_00.GMT.2014.argus02a.c0.daytimex.rect.jpg
p122
aV1058803200.Mon.Jul.21_16_00_00.GMT.2003.argus02a.c0.daytimex.rect.jpg
p123
aV985539600.Sun.Mar.25_17_00_00.GMT.2001.argus02a.c0.daytimex.rect.jpg
p124
aV833385600.Wed.May.29_16_00_00.GMT.1996.argus02.c0.daytimex.rect.jpg
p125
aV870796800.Tue.Aug.05_16_00_00.GMT.1997.argus02.c0.daytimex.rect.jpg
p126
aV966873600.Mon.Aug.21_16_00_00.GMT.2000.argus02a.c0.daytimex.rect.jpg
p127
aV869846400.Fri.Jul.25_16_00_00.GMT.1997.argus02.c0.daytimex.rect.jpg
p128
aV764182800.Sun.Mar.20_17_00_00.GMT.1994.argus02.c0.daytimex.rect.jpg
p129
aV763059600.Mon.Mar.07_17_00_00.GMT.1994.argus02.c0.daytimex.rect.jpg
p130
aV838396800.Fri.Jul.26_16_00_00.GMT.1996.argus02.c0.daytimex.rect.jpg
p131
aV784746000.Sun.Nov.13_17_00_00.GMT.1994.argus02.c0.daytimex.rect.jpg
p132
aV984934800.Sun.Mar.18_17_00_00.GMT.2001.argus02a.c0.daytimex.rect.jpg
p133
aV1125590400.Thu.Sep.01_16_00_00.GMT.2005.argus02a.c0.daytimex.rect.jpg
p134
aV832608000.Mon.May.20_16_00_00.GMT.1996.argus02.c0.daytimex.rect.jpg
p135
aV1049216400.Tue.Apr.01_17_00_00.GMT.2003.argus02a.c0.daytimex.rect.jpg
p136
aV745257600.Fri.Aug.13_16_00_00.GMT.1993.argus02.c0.daytimex.rect.jpg
p137
aV1343145600.Tue.Jul.24_16_00_00.GMT.2012.argus02a.c0.daytimex.rect.jpg
p138
aV868204800.Sun.Jul.06_16_00_00.GMT.1997.argus02.c0.daytimex.rect.jpg
p139
aV843926400.Sat.Sep.28_16_00_00.GMT.1996.argus02.c0.daytimex.rect.jpg
p140
aV1055606400.Sat.Jun.14_16_00_00.GMT.2003.argus02a.c0.daytimex.rect.jpg
p141
aV839952000.Tue.Aug.13_16_00_00.GMT.1996.argus02.c0.daytimex.rect.jpg
p142
aV1065628800.Wed.Oct.08_16_00_00.GMT.2003.argus02a.c0.daytimex.rect.jpg
p143
aV1065542400.Tue.Oct.07_16_00_00.GMT.2003.argus02a.c0.daytimex.rect.jpg
p144
aV1122566400.Thu.Jul.28_16_00_00.GMT.2005.argus02a.c0.daytimex.rect.jpg
p145
aV1210176000.Wed.May.07_16_00_00.GMT.2008.argus02a.c0.daytimex.rect.jpg
p146
aV1248624000.Sun.Jul.26_16_00_00.GMT.2009.argus02a.c0.daytimex.rect.jpg
p147
aV1250784000.Thu.Aug.20_16_00_00.GMT.2009.argus02a.c0.daytimex.rect.jpg
p148
aV1331053200.Tue.Mar.06_17_00_00.GMT.2012.argus02a.c0.daytimex.rect.jpg
p149
aV1333126800.Fri.Mar.30_17_00_00.GMT.2012.argus02a.c0.daytimex.rect.jpg
p150
aV1015088400.Sat.Mar.02_17_00_00.GMT.2002.argus02a.c0.daytimex.rect.jpg
p151
aV1247760000.Thu.Jul.16_16_00_00.GMT.2009.argus02a.c0.daytimex.rect.jpg
p152
aV896889600.Wed.Jun.03_16_00_00.GMT.1998.argus02a.c0.daytimex.rect.jpg
p153
aV1383843600.Thu.Nov.07_17_00_00.GMT.2013.argus02a.c0.daytimex.rect.jpg
p154
aV1358614800.Sat.Jan.19_17_00_00.GMT.2013.argus02a.c0.daytimex.rect.jpg
p155
aV958147200.Fri.May.12_16_00_00.GMT.2000.argus02a.c0.daytimex.rect.jpg
p156
aV1046797200.Tue.Mar.04_17_00_00.GMT.2003.argus02a.c0.daytimex.rect.jpg
p157
aV736531200.Tue.May.04_16_00_00.GMT.1993.argus02.c0.daytimex.rect.jpg
p158
aV1401120000.Mon.May.26_16_00_00.GMT.2014.argus02a.c0.daytimex.rect.jpg
p159
aV1009558800.Fri.Dec.28_17_00_00.GMT.2001.argus02a.c0.daytimex.rect.jpg
p160
aV911149200.Sun.Nov.15_17_00_00.GMT.1998.argus02a.c0.daytimex.rect.jpg
p161
aV896976000.Thu.Jun.04_16_00_00.GMT.1998.argus02a.c0.daytimex.rect.jpg
p162
aV1082390400.Mon.Apr.19_16_00_00.GMT.2004.argus02a.c0.daytimex.rect.jpg
p163
aV1030809600.Sat.Aug.31_16_00_00.GMT.2002.argus02a.c0.daytimex.rect.jpg
p164
aV1122048000.Fri.Jul.22_16_00_00.GMT.2005.argus02a.c0.daytimex.rect.jpg
p165
aV1114012800.Wed.Apr.20_16_00_00.GMT.2005.argus02a.c0.daytimex.rect.jpg
p166
aV805219200.Sat.Jul.08_16_00_00.GMT.1995.argus02.c0.daytimex.rect.jpg
p167
aV902246400.Tue.Aug.04_16_00_00.GMT.1998.argus02a.c0.daytimex.rect.jpg
p168
aV801763200.Mon.May.29_16_00_00.GMT.1995.argus02.c0.daytimex.rect.jpg
p169
aV1379088000.Fri.Sep.13_16_00_00.GMT.2013.argus02a.c0.daytimex.rect.jpg
p170
aV873216000.Tue.Sep.02_16_00_00.GMT.1997.argus02.c0.daytimex.rect.jpg
p171
aV860515200.Tue.Apr.08_16_00_00.GMT.1997.argus02.c0.daytimex.rect.jpg
p172
aV1121011200.Sun.Jul.10_16_00_00.GMT.2005.argus02a.c0.daytimex.rect.jpg
p173
aV1117555200.Tue.May.31_16_00_00.GMT.2005.argus02a.c0.daytimex.rect.jpg
p174
aV957542400.Fri.May.05_16_00_00.GMT.2000.argus02a.c0.daytimex.rect.jpg
p175
aV879786000.Mon.Nov.17_17_00_00.GMT.1997.argus02a.c0.daytimex.rect.jpg
p176
aV1247155200.Thu.Jul.09_16_00_00.GMT.2009.argus02a.c0.daytimex.rect.jpg
p177
aV1358960400.Wed.Jan.23_17_00_00.GMT.2013.argus02a.c0.daytimex.rect.jpg
p178
aV941734800.Thu.Nov.04_17_00_00.GMT.1999.argus02a.c0.daytimex.rect.jpg
p179
aV1229792400.Sat.Dec.20_17_00_00.GMT.2008.argus02a.c0.daytimex.rect.jpg
p180
aV896457600.Fri.May.29_16_00_00.GMT.1998.argus02a.c0.daytimex.rect.jpg
p181
aV954608400.Sat.Apr.01_17_00_00.GMT.2000.argus02a.c0.daytimex.rect.jpg
p182
aV1383411600.Sat.Nov.02_17_00_00.GMT.2013.argus02a.c0.daytimex.rect.jpg
p183
aV968428800.Fri.Sep.08_16_00_00.GMT.2000.argus02a.c0.daytimex.rect.jpg
p184
aV740246400.Wed.Jun.16_16_00_00.GMT.1993.argus02.c0.daytimex.rect.jpg
p185
aV1378483200.Fri.Sep.06_16_00_00.GMT.2013.argus02a.c0.daytimex.rect.jpg
p186
aV1399478400.Wed.May.07_16_00_00.GMT.2014.argus02a.c0.daytimex.rect.jpg
p187
aV930499200.Sun.Jun.27_16_00_00.GMT.1999.argus02a.c0.daytimex.rect.jpg
p188
aV856976400.Wed.Feb.26_17_00_00.GMT.1997.argus02.c0.daytimex.rect.jpg
p189
aV1253721600.Wed.Sep.23_16_00_00.GMT.2009.argus02a.c0.daytimex.rect.jpg
p190
aV867340800.Thu.Jun.26_16_00_00.GMT.1997.argus02.c0.daytimex.rect.jpg
p191
aV1401552000.Sat.May.31_16_00_00.GMT.2014.argus02a.c0.daytimex.rect.jpg
p192
aV1255276800.Sun.Oct.11_16_00_00.GMT.2009.argus02a.c0.daytimex.rect.jpg
p193
aV888166800.Sun.Feb.22_17_00_00.GMT.1998.argus02a.c0.daytimex.rect.jpg
p194
aV893174400.Tue.Apr.21_16_00_00.GMT.1998.argus02a.c0.daytimex.rect.jpg
p195
aV1373644800.Fri.Jul.12_16_00_00.GMT.2013.argus02a.c0.daytimex.rect.jpg
p196
aV1031328000.Fri.Sep.06_16_00_00.GMT.2002.argus02a.c0.daytimex.rect.jpg
p197
aV1119801600.Sun.Jun.26_16_00_00.GMT.2005.argus02a.c0.daytimex.rect.jpg
p198
aV1358787600.Mon.Jan.21_17_00_00.GMT.2013.argus02a.c0.daytimex.rect.jpg
p199
aV1120924800.Sat.Jul.09_16_00_00.GMT.2005.argus02a.c0.daytimex.rect.jpg
p200
aV1247068800.Wed.Jul.08_16_00_00.GMT.2009.argus02a.c0.daytimex.rect.jpg
p201
aV1082822400.Sat.Apr.24_16_00_00.GMT.2004.argus02a.c0.daytimex.rect.jpg
p202
aV739296000.Sat.Jun.05_16_00_00.GMT.1993.argus02.c0.daytimex.rect.jpg
p203
aV1023465600.Fri.Jun.07_16_00_00.GMT.2002.argus02a.c0.daytimex.rect.jpg
p204
aV1081699200.Sun.Apr.11_16_00_00.GMT.2004.argus02a.c0.daytimex.rect.jpg
p205
aV1253462400.Sun.Sep.20_16_00_00.GMT.2009.argus02a.c0.daytimex.rect.jpg
p206
aV1336060800.Thu.May.03_16_00_00.GMT.2012.argus02a.c0.daytimex.rect.jpg
p207
aV1023379200.Thu.Jun.06_16_00_00.GMT.2002.argus02a.c0.daytimex.rect.jpg
p208
aV738000000.Fri.May.21_16_00_00.GMT.1993.argus02.c0.daytimex.rect.jpg
p209
aV1382198400.Sat.Oct.19_16_00_00.GMT.2013.argus02a.c0.daytimex.rect.jpg
p210
aV1401724800.Mon.Jun.02_16_00_00.GMT.2014.argus02a.c0.daytimex.rect.jpg
p211
aV1401379200.Thu.May.29_16_00_00.GMT.2014.argus02a.c0.daytimex.rect.jpg
p212
aV1373731200.Sat.Jul.13_16_00_00.GMT.2013.argus02a.c0.daytimex.rect.jpg
p213
aV896630400.Sun.May.31_16_00_00.GMT.1998.argus02a.c0.daytimex.rect.jpg
p214
aV910803600.Wed.Nov.11_17_00_00.GMT.1998.argus02a.c0.daytimex.rect.jpg
p215
aV900432000.Tue.Jul.14_16_00_00.GMT.1998.argus02a.c0.daytimex.rect.jpg
p216
aV958665600.Thu.May.18_16_00_00.GMT.2000.argus02a.c0.daytimex.rect.jpg
p217
aV1237050000.Sat.Mar.14_17_00_00.GMT.2009.argus02a.c0.daytimex.rect.jpg
p218
aV1007830800.Sat.Dec.08_17_00_00.GMT.2001.argus02a.c0.daytimex.rect.jpg
p219
aV1008349200.Fri.Dec.14_17_00_00.GMT.2001.argus02a.c0.daytimex.rect.jpg
p220
aV1008608400.Mon.Dec.17_17_00_00.GMT.2001.argus02a.c0.daytimex.rect.jpg
p221
aV1014742800.Tue.Feb.26_17_00_00.GMT.2002.argus02a.c0.daytimex.rect.jpg
p222
aV1019836800.Fri.Apr.26_16_00_00.GMT.2002.argus02a.c0.daytimex.rect.jpg
p223
aV1030809600.Sat.Aug.31_16_00_00.GMT.2002.argus02a.c0.daytimex.rect.jpg
p224
aV1063468800.Sat.Sep.13_16_00_00.GMT.2003.argus02a.c0.daytimex.rect.jpg
p225
aV1397577600.Tue.Apr.15_16_00_00.GMT.2014.argus02a.c0.daytimex.rect.jpg
p226
aV788029200.Wed.Dec.21_17_00_00.GMT.1994.argus02.c0.daytimex.rect.jpg
p227
aV1226336400.Mon.Nov.10_17_00_00.GMT.2008.argus02a.c0.daytimex.rect.jpg
p228
aV796410000.Tue.Mar.28_17_00_00.GMT.1995.argus02.c0.daytimex.rect.jpg
p229
aV1416157200.Sun.Nov.16_17_00_00.GMT.2014.argus02a.c0.daytimex.rect.jpg
p230
aV796064400.Fri.Mar.24_17_00_00.GMT.1995.argus02.c0.daytimex.rect.jpg
p231
aV799689600.Fri.May.05_16_00_00.GMT.1995.argus02.c0.daytimex.rect.jpg
p232
aV1135702800.Tue.Dec.27_17_00_00.GMT.2005.argus02a.c0.daytimex.rect.jpg
p233
aV924451200.Sun.Apr.18_16_00_00.GMT.1999.argus02a.c0.daytimex.rect.jpg
p234
aV920134800.Sat.Feb.27_17_00_00.GMT.1999.argus02a.c0.daytimex.rect.jpg
p235
aV809539200.Sun.Aug.27_16_00_00.GMT.1995.argus02.c0.daytimex.rect.jpg
p236
aV861292800.Thu.Apr.17_16_00_00.GMT.1997.argus02.c0.daytimex.rect.jpg
p237
aV1409068800.Tue.Aug.26_16_00_00.GMT.2014.argus02a.c0.daytimex.rect.jpg
p238
aV1233421200.Sat.Jan.31_17_00_00.GMT.2009.argus02a.c0.daytimex.rect.jpg
p239
aV1285603200.Mon.Sep.27_16_00_00.GMT.2010.argus02a.c0.daytimex.rect.jpg
p240
aV1272297600.Mon.Apr.26_16_00_00.GMT.2010.argus02a.c0.daytimex.rect.jpg
p241
aV1139677200.Sat.Feb.11_17_00_00.GMT.2006.argus02a.c0.daytimex.rect.jpg
p242
aV1103043600.Tue.Dec.14_17_00_00.GMT.2004.argus02a.c0.daytimex.rect.jpg
p243
aV1396198800.Sun.Mar.30_17_00_00.GMT.2014.argus02a.c0.daytimex.rect.jpg
p244
aV1024070400.Fri.Jun.14_16_00_00.GMT.2002.argus02a.c0.daytimex.rect.jpg
p245
aV1177257600.Sun.Apr.22_16_00_00.GMT.2007.argus02a.c0.daytimex.rect.jpg
p246
aV1338566400.Fri.Jun.01_16_00_00.GMT.2012.argus02a.c0.daytimex.rect.jpg
p247
aV1294160400.Tue.Jan.04_17_00_00.GMT.2011.argus02a.c0.daytimex.rect.jpg
p248
aV1233248400.Thu.Jan.29_17_00_00.GMT.2009.argus02a.c0.daytimex.rect.jpg
p249
aV1305561600.Mon.May.16_16_00_00.GMT.2011.argus02a.c0.daytimex.rect.jpg
p250
aV809366400.Fri.Aug.25_16_00_00.GMT.1995.argus02.c0.daytimex.rect.jpg
p251
aV905097600.Sun.Sep.06_16_00_00.GMT.1998.argus02a.c0.daytimex.rect.jpg
p252
aV905184000.Mon.Sep.07_16_00_00.GMT.1998.argus02a.c0.daytimex.rect.jpg
p253
aV1253030400.Tue.Sep.15_16_00_00.GMT.2009.argus02a.c0.daytimex.rect.jpg
p254
aV799084800.Fri.Apr.28_16_00_00.GMT.1995.argus02.c0.daytimex.rect.jpg
p255
aV1293814800.Fri.Dec.31_17_00_00.GMT.2010.argus02a.c0.daytimex.rect.jpg
p256
aV813340800.Tue.Oct.10_16_00_00.GMT.1995.argus02.c0.daytimex.rect.jpg
p257
aV788893200.Sat.Dec.31_17_00_00.GMT.1994.argus02.c0.daytimex.rect.jpg
p258
aV812908800.Thu.Oct.05_16_00_00.GMT.1995.argus02.c0.daytimex.rect.jpg
p259
aV730400400.Mon.Feb.22_17_00_00.GMT.1993.argus02.c0.daytimex.rect.jpg
p260
aV813859200.Mon.Oct.16_16_00_00.GMT.1995.argus02.c0.daytimex.rect.jpg
p261
aV809798400.Wed.Aug.30_16_00_00.GMT.1995.argus02.c0.daytimex.rect.jpg
p262
aV1291741200.Tue.Dec.07_17_00_00.GMT.2010.argus02a.c0.daytimex.rect.jpg
p263
aV1235235600.Sat.Feb.21_17_00_00.GMT.2009.argus02a.c0.daytimex.rect.jpg
p264
aV1226250000.Sun.Nov.09_17_00_00.GMT.2008.argus02a.c0.daytimex.rect.jpg
p265
aV1234285200.Tue.Feb.10_17_00_00.GMT.2009.argus02a.c0.daytimex.rect.jpg
p266
aV1385226000.Sat.Nov.23_17_00_00.GMT.2013.argus02a.c0.daytimex.rect.jpg
p267
aV1410105600.Sun.Sep.07_16_00_00.GMT.2014.argus02a.c0.daytimex.rect.jpg
p268
aV750960000.Mon.Oct.18_16_00_00.GMT.1993.argus02.c0.daytimex.rect.jpg
p269
aV1243526400.Thu.May.28_16_00_00.GMT.2009.argus02a.c0.daytimex.rect.jpg
p270
aV1395594000.Sun.Mar.23_17_00_00.GMT.2014.argus02a.c0.daytimex.rect.jpg
p271
aV905011200.Sat.Sep.05_16_00_00.GMT.1998.argus02a.c0.daytimex.rect.jpg
p272
aV1394816400.Fri.Mar.14_17_00_00.GMT.2014.argus02a.c0.daytimex.rect.jpg
p273
aV1295110800.Sat.Jan.15_17_00_00.GMT.2011.argus02a.c0.daytimex.rect.jpg
p274
aV1015693200.Sat.Mar.09_17_00_00.GMT.2002.argus02a.c0.daytimex.rect.jpg
p275
aV1017853200.Wed.Apr.03_17_00_00.GMT.2002.argus02a.c0.daytimex.rect.jpg
p276
aV1032624000.Sat.Sep.21_16_00_00.GMT.2002.argus02a.c0.daytimex.rect.jpg
p277
aV1036170000.Fri.Nov.01_17_00_00.GMT.2002.argus02a.c0.daytimex.rect.jpg
p278
aV1072026000.Sun.Dec.21_17_00_00.GMT.2003.argus02a.c0.daytimex.rect.jpg
p279
aV1072544400.Sat.Dec.27_17_00_00.GMT.2003.argus02a.c0.daytimex.rect.jpg
p280
aV1072890000.Wed.Dec.31_17_00_00.GMT.2003.argus02a.c0.daytimex.rect.jpg
p281
aV1100538000.Mon.Nov.15_17_00_00.GMT.2004.argus02a.c0.daytimex.rect.jpg
p282
aV1100710800.Wed.Nov.17_17_00_00.GMT.2004.argus02a.c0.daytimex.rect.jpg
p283
aV1101229200.Tue.Nov.23_17_00_00.GMT.2004.argus02a.c0.daytimex.rect.jpg
p284
aV1103043600.Tue.Dec.14_17_00_00.GMT.2004.argus02a.c0.daytimex.rect.jpg
p285
aV1118073600.Mon.Jun.06_16_00_00.GMT.2005.argus02a.c0.daytimex.rect.jpg
p286
aV1175360400.Sat.Mar.31_17_00_00.GMT.2007.argus02a.c0.daytimex.rect.jpg
p287
aV1177344000.Mon.Apr.23_16_00_00.GMT.2007.argus02a.c0.daytimex.rect.jpg
p288
aV1178294400.Fri.May.04_16_00_00.GMT.2007.argus02a.c0.daytimex.rect.jpg
p289
aV1233248400.Thu.Jan.29_17_00_00.GMT.2009.argus02a.c0.daytimex.rect.jpg
p290
aV1233421200.Sat.Jan.31_17_00_00.GMT.2009.argus02a.c0.daytimex.rect.jpg
p291
aV1234976400.Wed.Feb.18_17_00_00.GMT.2009.argus02a.c0.daytimex.rect.jpg
p292
aV1235235600.Sat.Feb.21_17_00_00.GMT.2009.argus02a.c0.daytimex.rect.jpg
p293
aV1243526400.Thu.May.28_16_00_00.GMT.2009.argus02a.c0.daytimex.rect.jpg
p294
aV1252771200.Sat.Sep.12_16_00_00.GMT.2009.argus02a.c0.daytimex.rect.jpg
p295
aV1252944000.Mon.Sep.14_16_00_00.GMT.2009.argus02a.c0.daytimex.rect.jpg
p296
aV1255449600.Tue.Oct.13_16_00_00.GMT.2009.argus02a.c0.daytimex.rect.jpg
p297
aV1256054400.Tue.Oct.20_16_00_00.GMT.2009.argus02a.c0.daytimex.rect.jpg
p298
aV1256576400.Mon.Oct.26_17_00_00.GMT.2009.argus02a.c0.daytimex.rect.jpg
p299
aV1265648400.Mon.Feb.08_17_00_00.GMT.2010.argus02a.c0.daytimex.rect.jpg
p300
aV907344000.Fri.Oct.02_16_00_00.GMT.1998.argus02a.c0.daytimex.rect.jpg
p301
aV1038416400.Wed.Nov.27_17_00_00.GMT.2002.argus02a.c0.daytimex.rect.jpg
p302
aV1103562000.Mon.Dec.20_17_00_00.GMT.2004.argus02a.c0.daytimex.rect.jpg
p303
aV829065600.Tue.Apr.09_16_00_00.GMT.1996.argus02.c0.daytimex.rect.jpg
p304
aV915642000.Wed.Jan.06_17_00_00.GMT.1999.argus02a.c0.daytimex.rect.jpg
p305
aV1171904400.Mon.Feb.19_17_00_00.GMT.2007.argus02a.c0.daytimex.rect.jpg
p306
aV966182400.Sun.Aug.13_16_00_00.GMT.2000.argus02a.c0.daytimex.rect.jpg
p307
aV1175014800.Tue.Mar.27_17_00_00.GMT.2007.argus02a.c0.daytimex.rect.jpg
p308
aV1277136000.Mon.Jun.21_16_00_00.GMT.2010.argus02a.c0.daytimex.rect.jpg
p309
aV1133197200.Mon.Nov.28_17_00_00.GMT.2005.argus02a.c0.daytimex.rect.jpg
p310
aV1142701200.Sat.Mar.18_17_00_00.GMT.2006.argus02a.c0.daytimex.rect.jpg
p311
aV781632000.Sat.Oct.08_16_00_00.GMT.1994.argus02.c0.daytimex.rect.jpg
p312
aV1415638800.Mon.Nov.10_17_00_00.GMT.2014.argus02a.c0.daytimex.rect.jpg
p313
aV847386000.Thu.Nov.07_17_00_00.GMT.1996.argus02.c0.daytimex.rect.jpg
p314
aV873475200.Fri.Sep.05_16_00_00.GMT.1997.argus02.c0.daytimex.rect.jpg
p315
aV1297270800.Wed.Feb.09_17_00_00.GMT.2011.argus02a.c0.daytimex.rect.jpg
p316
aV913395600.Fri.Dec.11_17_00_00.GMT.1998.argus02a.c0.daytimex.rect.jpg
p317
aV1076259600.Sun.Feb.08_17_00_00.GMT.2004.argus02a.c0.daytimex.rect.jpg
p318
aV1350057600.Fri.Oct.12_16_00_00.GMT.2012.argus02a.c0.daytimex.rect.jpg
p319
aV1172250000.Fri.Feb.23_17_00_00.GMT.2007.argus02a.c0.daytimex.rect.jpg
p320
aV769795200.Tue.May.24_16_00_00.GMT.1994.argus02.c0.daytimex.rect.jpg
p321
aV1357578000.Mon.Jan.07_17_00_00.GMT.2013.argus02a.c0.daytimex.rect.jpg
p322
aV1196269200.Wed.Nov.28_17_00_00.GMT.2007.argus02a.c0.daytimex.rect.jpg
p323
aV1251820800.Tue.Sep.01_16_00_00.GMT.2009.argus02a.c0.daytimex.rect.jpg
p324
aV1103734800.Wed.Dec.22_17_00_00.GMT.2004.argus02a.c0.daytimex.rect.jpg
p325
aV1308067200.Tue.Jun.14_16_00_00.GMT.2011.argus02a.c0.daytimex.rect.jpg
p326
aV815590800.Sun.Nov.05_17_00_00.GMT.1995.argus02.c0.daytimex.rect.jpg
p327
aV1032278400.Tue.Sep.17_16_00_00.GMT.2002.argus02a.c0.daytimex.rect.jpg
p328
aV1142874000.Mon.Mar.20_17_00_00.GMT.2006.argus02a.c0.daytimex.rect.jpg
p329
aV1165165200.Sun.Dec.03_17_00_00.GMT.2006.argus02a.c0.daytimex.rect.jpg
p330
aV1327424400.Tue.Jan.24_17_00_00.GMT.2012.argus02a.c0.daytimex.rect.jpg
p331
aV807984000.Wed.Aug.09_16_00_00.GMT.1995.argus02.c0.daytimex.rect.jpg
p332
aV768844800.Fri.May.13_16_00_00.GMT.1994.argus02.c0.daytimex.rect.jpg
p333
aV755888400.Tue.Dec.14_17_00_00.GMT.1993.argus02.c0.daytimex.rect.jpg
p334
aV1328634000.Tue.Feb.07_17_00_00.GMT.2012.argus02a.c0.daytimex.rect.jpg
p335
aV1187971200.Fri.Aug.24_16_00_00.GMT.2007.argus02a.c0.daytimex.rect.jpg
p336
aV817664400.Wed.Nov.29_17_00_00.GMT.1995.argus02.c0.daytimex.rect.jpg
p337
aV1409587200.Mon.Sep.01_16_00_00.GMT.2014.argus02a.c0.daytimex.rect.jpg
p338
aV1138122000.Tue.Jan.24_17_00_00.GMT.2006.argus02a.c0.daytimex.rect.jpg
p339
aV797443200.Sun.Apr.09_16_00_00.GMT.1995.argus02.c0.daytimex.rect.jpg
p340
aV1303660800.Sun.Apr.24_16_00_00.GMT.2011.argus02a.c0.daytimex.rect.jpg
p341
aV817923600.Sat.Dec.02_17_00_00.GMT.1995.argus02.c0.daytimex.rect.jpg
p342
aV1317398400.Fri.Sep.30_16_00_00.GMT.2011.argus02a.c0.daytimex.rect.jpg
p343
aV778176000.Mon.Aug.29_16_00_00.GMT.1994.argus02.c0.daytimex.rect.jpg
p344
aV1261155600.Fri.Dec.18_17_00_00.GMT.2009.argus02a.c0.daytimex.rect.jpg
p345
aV1071507600.Mon.Dec.15_17_00_00.GMT.2003.argus02a.c0.daytimex.rect.jpg
p346
aV1413820800.Mon.Oct.20_16_00_00.GMT.2014.argus02a.c0.daytimex.rect.jpg
p347
aV769622400.Sun.May.22_16_00_00.GMT.1994.argus02.c0.daytimex.rect.jpg
p348
aV1180022400.Thu.May.24_16_00_00.GMT.2007.argus02a.c0.daytimex.rect.jpg
p349
aV1163782800.Fri.Nov.17_17_00_00.GMT.2006.argus02a.c0.daytimex.rect.jpg
p350
aV780249600.Thu.Sep.22_16_00_00.GMT.1994.argus02.c0.daytimex.rect.jpg
p351
aV1385053200.Thu.Nov.21_17_00_00.GMT.2013.argus02a.c0.daytimex.rect.jpg
p352
aV1181836800.Thu.Jun.14_16_00_00.GMT.2007.argus02a.c0.daytimex.rect.jpg
p353
aV942944400.Thu.Nov.18_17_00_00.GMT.1999.argus02a.c0.daytimex.rect.jpg
p354
aV755974800.Wed.Dec.15_17_00_00.GMT.1993.argus02.c0.daytimex.rect.jpg
p355
aV884797200.Wed.Jan.14_17_00_00.GMT.1998.argus02a.c0.daytimex.rect.jpg
p356
aV1298394000.Tue.Feb.22_17_00_00.GMT.2011.argus02a.c0.daytimex.rect.jpg
p357
aV787856400.Mon.Dec.19_17_00_00.GMT.1994.argus02.c0.daytimex.rect.jpg
p358
aV1166547600.Tue.Dec.19_17_00_00.GMT.2006.argus02a.c0.daytimex.rect.jpg
p359
aV1255968000.Mon.Oct.19_16_00_00.GMT.2009.argus02a.c0.daytimex.rect.jpg
p360
aV821206800.Tue.Jan.09_17_00_00.GMT.1996.argus02.c0.daytimex.rect.jpg
p361
aV1137690000.Thu.Jan.19_17_00_00.GMT.2006.argus02a.c0.daytimex.rect.jpg
p362
aV1131814800.Sat.Nov.12_17_00_00.GMT.2005.argus02a.c0.daytimex.rect.jpg
p363
aV1299862800.Fri.Mar.11_17_00_00.GMT.2011.argus02a.c0.daytimex.rect.jpg
p364
aV819738000.Sat.Dec.23_17_00_00.GMT.1995.argus02.c0.daytimex.rect.jpg
p365
aV1143133200.Thu.Mar.23_17_00_00.GMT.2006.argus02a.c0.daytimex.rect.jpg
p366
aV1195750800.Thu.Nov.22_17_00_00.GMT.2007.argus02a.c0.daytimex.rect.jpg
p367
aV825958800.Mon.Mar.04_17_00_00.GMT.1996.argus02.c0.daytimex.rect.jpg
p368
aV1304611200.Thu.May.05_16_00_00.GMT.2011.argus02a.c0.daytimex.rect.jpg
p369
aV1196528400.Sat.Dec.01_17_00_00.GMT.2007.argus02a.c0.daytimex.rect.jpg
p370
aV1298307600.Mon.Feb.21_17_00_00.GMT.2011.argus02a.c0.daytimex.rect.jpg
p371
aV923328000.Mon.Apr.05_16_00_00.GMT.1999.argus02a.c0.daytimex.rect.jpg
p372
aV1032883200.Tue.Sep.24_16_00_00.GMT.2002.argus02a.c0.daytimex.rect.jpg
p373
aV1413734400.Sun.Oct.19_16_00_00.GMT.2014.argus02a.c0.daytimex.rect.jpg
p374
aV948474000.Fri.Jan.21_17_00_00.GMT.2000.argus02a.c0.daytimex.rect.jpg
p375
a.